 sharp

 Timestamp is 5e47e15d (Sat Feb 15 11:17:33 2020)

 Preferred load address is 0000000180000000

 Start         Length     Name                   Class
 0001:00000000 00000130H .text                   CODE
 0001:00000130 0002b220H .text$mn                CODE
 0001:0002b350 00000020H .text$mn$00             CODE
 0001:0002b370 00001f90H .text$x                 CODE
 0002:00000000 000006d8H .idata$5                DATA
 0002:000006d8 00000010H .00cfg                  DATA
 0002:000006e8 00000008H .CRT$XCA                DATA
 0002:000006f0 00000008H .CRT$XCU                DATA
 0002:000006f8 00000008H .CRT$XCZ                DATA
 0002:00000700 00000008H .CRT$XIA                DATA
 0002:00000708 00000018H .CRT$XIC                DATA
 0002:00000720 00000008H .CRT$XIZ                DATA
 0002:00000728 00000008H .CRT$XPA                DATA
 0002:00000730 00000010H .CRT$XPX                DATA
 0002:00000740 00000008H .CRT$XPXA               DATA
 0002:00000748 00000008H .CRT$XPZ                DATA
 0002:00000750 00000008H .CRT$XTA                DATA
 0002:00000758 00000008H .CRT$XTZ                DATA
 0002:00000760 00000000H .gfids$y                DATA
 0002:00000760 0000a540H .rdata                  DATA
 0002:0000aca0 00000484H .rdata$r                DATA
 0002:0000b124 000003fcH .rdata$zzzdbg           DATA
 0002:0000b520 00000008H .rtc$IAA                DATA
 0002:0000b528 00000008H .rtc$IZZ                DATA
 0002:0000b530 00000008H .rtc$TAA                DATA
 0002:0000b538 00000008H .rtc$TZZ                DATA
 0002:0000b540 00004ea8H .xdata                  DATA
 0002:000103e8 0000032cH .xdata$x                DATA
 0002:00010714 00000020H .didat$2                DATA
 0002:00010734 00000024H .didat$3                DATA
 0002:00010758 000001b8H .didat$4                DATA
 0002:00010910 00000f38H .didat$6                DATA
 0002:00011848 000001b8H .didat$7                DATA
 0002:00011a00 00000050H .edata                  DATA
 0002:00011a50 00000050H .idata$2                DATA
 0002:00011aa0 00000018H .idata$3                DATA
 0002:00011ab8 000006d8H .idata$4                DATA
 0002:00012190 00001d20H .idata$6                DATA
 0002:00013eb0 000000b8H .idata$7                DATA
 0003:00000000 00000970H .data                   DATA
 0003:00000970 00000220H .data$r                 DATA
 0003:00000b90 000001c0H .didat$5                DATA
 0003:00000d50 00001248H .bss                    DATA
 0004:00000000 00001ec0H .pdata                  DATA
 0005:00000000 00000060H .rsrc$01                DATA
 0005:00000060 00000180H .rsrc$02                DATA

  Address         Publics by Value              Rva+Base               Lib:Object

 0000:00000000       __guard_fids_count         0000000000000000     <absolute>
 0000:00000000       __guard_longjmp_count      0000000000000000     <absolute>
 0000:00000000       __hybrid_code_map          0000000000000000     <absolute>
 0000:00000000       __guard_iat_count          0000000000000000     <absolute>
 0000:00000000       __guard_longjmp_table      0000000000000000     <absolute>
 0000:00000000       __volatile_metadata        0000000000000000     <absolute>
 0000:00000000       __guard_iat_table          0000000000000000     <absolute>
 0000:00000000       __hybrid_code_map_count    0000000000000000     <absolute>
 0000:00000000       __enclave_config           0000000000000000     <absolute>
 0000:00000000       ___safe_se_handler_count   0000000000000000     <absolute>
 0000:00000000       ___safe_se_handler_table   0000000000000000     <absolute>
 0000:00000000       __guard_fids_table         0000000000000000     <absolute>
 0000:00000000       __hybrid_auxiliary_iat     0000000000000000     <absolute>
 0000:00000000       __dynamic_value_reloc_table 0000000000000000     <absolute>
 0000:00000100       __guard_flags              0000000000000100     <absolute>
 0000:00000000       __ImageBase                0000000180000000     <linker-defined>
 0001:00000000       vips_foreign_find_load_buffer 0000000180001000     libvips:dowls01213.o
 0001:00000008       vips_operation_boolean_get_type 0000000180001008     libvips:dowls01643.o
 0001:00000010       vips_enum_from_nick        0000000180001010     libvips:dowls01158.o
 0001:00000018       vips_interpretation_get_type 0000000180001018     libvips:dowls01488.o
 0001:00000020       vips_foreign_find_load     0000000180001020     libvips:dowls01212.o
 0001:00000028       vips_blob_get_type         0000000180001028     libvips:dowls00930.o
 0001:00000030       vips_error_clear           0000000180001030     libvips:dowls01169.o
 0001:00000038       vips_enum_nick             0000000180001038     libvips:dowls01159.o
 0001:00000040       vips_thread_shutdown       0000000180001040     libvips:dowls01862.o
 0001:00000048       vips_get_tile_size         0000000180001048     libvips:dowls01320.o
 0001:00000050       vips_image_remove          0000000180001050     libvips:dowls01447.o
 0001:00000058       vips_blob_new              0000000180001058     libvips:dowls00931.o
 0001:00000060       vips_kernel_get_type       0000000180001060     libvips:dowls01505.o
 0001:00000068       vips_area_unref            0000000180001068     libvips:dowls00861.o
 0001:00000070       vips_init                  0000000180001070     libvips:dowls01468.o
 0001:00000078       vips_cache_get_max_mem     0000000180001078     libvips:dowls00978.o
 0001:00000080       vips_version               0000000180001080     libvips:dowls01931.o
 0001:00000088       vips_cache_get_size        0000000180001088     libvips:dowls00979.o
 0001:00000090       vips_vector_set_enabled    0000000180001090     libvips:dowls01925.o
 0001:00000098       vips_cache_get_max         0000000180001098     libvips:dowls00976.o
 0001:000000a0       vips_cache_set_max         00000001800010a0     libvips:dowls00987.o
 0001:000000a8       vips_cache_get_max_files   00000001800010a8     libvips:dowls00977.o
 0001:000000b0       vips_cache_set_max_mem     00000001800010b0     libvips:dowls00989.o
 0001:000000b8       vips_concurrency_get       00000001800010b8     libvips:dowls01093.o
 0001:000000c0       vips_cache_set_max_files   00000001800010c0     libvips:dowls00988.o
 0001:000000c8       vips_type_find             00000001800010c8     libvips:dowls01884.o
 0001:000000d0       vips_concurrency_set       00000001800010d0     libvips:dowls01094.o
 0001:000000d8       vips_vector_isenabled      00000001800010d8     libvips:dowls01921.o
 0001:000000e0       vips_tracked_get_mem_highwater 00000001800010e0     libvips:dowls01880.o
 0001:000000e8       vips_tracked_get_mem       00000001800010e8     libvips:dowls01879.o
 0001:000000f0       vips_tracked_get_files     00000001800010f0     libvips:dowls01878.o
 0001:00000100       g_free                     0000000180001100     libglib-2.0:dhtls00380.o
 0001:00000108       g_snprintf                 0000000180001108     libglib-2.0:dhtls01081.o
 0001:00000110       g_atomic_int_inc           0000000180001110     libglib-2.0:dhtls00077.o
 0001:00000118       g_atomic_int_dec_and_test  0000000180001118     libglib-2.0:dhtls00074.o
 0001:00000120       g_malloc                   0000000180001120     libglib-2.0:dhtls00673.o
 0001:00000128       g_stat                     0000000180001128     libglib-2.0:dhtls01122.o
 0001:00000130       ??0exception@stdext@@QEAA@AEBV01@@Z 0000000180001130 f i common.obj
 0001:00000150       ?what@exception@stdext@@UEBAPEBDXZ 0000000180001150 f i common.obj
 0001:00000170       ?_Doraise@exception@stdext@@MEBAXXZ 0000000180001170 f i common.obj
 0001:00000170       _guard_check_icall_nop     0000000180001170 f i LIBCMT:guard_support.obj
 0001:00000180       ??_Eexception@stdext@@UEAAPEAXI@Z 0000000180001180 f i * CIL library *:* CIL module *
 0001:00000180       ??_Gexception@stdext@@UEAAPEAXI@Z 0000000180001180 f i common.obj
 0001:000001b0       ?to_string@std@@YA?AV?$basic_string@DU?$char_traits@D@std@@V?$allocator@D@2@@1@H@Z 00000001800011b0 f i common.obj
 0001:00000290       ??1EscapableHandleScope@Nan@@QEAA@XZ 0000000180001290 f i metadata.obj
 0001:00000290       ??1HandleScope@Nan@@QEAA@XZ 0000000180001290 f i common.obj
 0001:000002a0       ??0Utf8String@Nan@@QEAA@V?$Local@VValue@v8@@@v8@@@Z 00000001800012a0 f i common.obj
 0001:000003d0       ??1Utf8String@Nan@@QEAA@XZ 00000001800013d0 f i common.obj
 0001:000003f0       ?HasAttr@sharp@@YA_NV?$Local@VObject@v8@@@v8@@V?$basic_string@DU?$char_traits@D@std@@V?$allocator@D@2@@std@@@Z 00000001800013f0 f   common.obj
 0001:00000530       ?AttrAsStr@sharp@@YA?AV?$basic_string@DU?$char_traits@D@std@@V?$allocator@D@2@@std@@V?$Local@VObject@v8@@@v8@@V23@@Z 0000000180001530 f   common.obj
 0001:000006e0       ?CreateInputDescriptor@sharp@@YAPEAUInputDescriptor@1@V?$Local@VObject@v8@@@v8@@V?$vector@V?$Local@VObject@v8@@@v8@@V?$allocator@V?$Local@VObject@v8@@@v8@@@std@@@std@@@Z 00000001800016e0 f   common.obj
 0001:00000a60       ?IsJpeg@sharp@@YA_NAEBV?$basic_string@DU?$char_traits@D@std@@V?$allocator@D@2@@std@@@Z 0000000180001a60 f   common.obj
 0001:00000e00       ?IsPng@sharp@@YA_NAEBV?$basic_string@DU?$char_traits@D@std@@V?$allocator@D@2@@std@@@Z 0000000180001e00 f   common.obj
 0001:00001010       ?IsWebp@sharp@@YA_NAEBV?$basic_string@DU?$char_traits@D@std@@V?$allocator@D@2@@std@@@Z 0000000180002010 f   common.obj
 0001:00001220       ?IsTiff@sharp@@YA_NAEBV?$basic_string@DU?$char_traits@D@std@@V?$allocator@D@2@@std@@@Z 0000000180002220 f   common.obj
 0001:000015c0       ?IsDz@sharp@@YA_NAEBV?$basic_string@DU?$char_traits@D@std@@V?$allocator@D@2@@std@@@Z 00000001800025c0 f   common.obj
 0001:000017d0       ?IsDzZip@sharp@@YA_NAEBV?$basic_string@DU?$char_traits@D@std@@V?$allocator@D@2@@std@@@Z 00000001800027d0 f   common.obj
 0001:00001b70       ?IsV@sharp@@YA_NAEBV?$basic_string@DU?$char_traits@D@std@@V?$allocator@D@2@@std@@@Z 0000000180002b70 f   common.obj
 0001:00001f10       ?ImageTypeId@sharp@@YA?AV?$basic_string@DU?$char_traits@D@std@@V?$allocator@D@2@@std@@W4ImageType@1@@Z 0000000180002f10 f   common.obj
 0001:00002140       ?DetermineImageType@sharp@@YA?AW4ImageType@1@PEAX_K@Z 0000000180003140 f   common.obj
 0001:00002860       ?DetermineImageType@sharp@@YA?AW4ImageType@1@PEBD@Z 0000000180003860 f   common.obj
 0001:00003390       ?OpenInput@sharp@@YA?AV?$tuple@VVImage@vips@@W4ImageType@sharp@@@std@@PEAUInputDescriptor@1@W4VipsAccess@@@Z 0000000180004390 f   common.obj
 0001:00003770       ??1?$tuple@VVImage@vips@@W4ImageType@sharp@@@std@@QEAA@XZ 0000000180004770 f i common.obj
 0001:00003780       ?HasProfile@sharp@@YA_NVVImage@vips@@@Z 0000000180004780 f   common.obj
 0001:000037d0       ?HasAlpha@sharp@@YA_NVVImage@vips@@@Z 00000001800047d0 f   common.obj
 0001:00003840       ?ExifOrientation@sharp@@YAHVVImage@vips@@@Z 0000000180004840 f   common.obj
 0001:000038b0       ?SetExifOrientation@sharp@@YAXVVImage@vips@@H@Z 00000001800048b0 f   common.obj
 0001:00003910       ?RemoveExifOrientation@sharp@@YAXVVImage@vips@@@Z 0000000180004910 f   common.obj
 0001:00003990       ?SetDensity@sharp@@YAXVVImage@vips@@H@Z 0000000180004990 f   common.obj
 0001:00003a10       ?FreeCallback@sharp@@YAXPEADPEAX@Z 0000000180004a10 f   common.obj
 0001:00003a20       ?CalculateCrop@sharp@@YA?AV?$tuple@HH@std@@HHHHH@Z 0000000180004a20 f   common.obj
 0001:00003b20       ?CalculateCrop@sharp@@YA?AV?$tuple@HH@std@@HHHHHH@Z 0000000180004b20 f   common.obj
 0001:00003b80       ?Is16Bit@sharp@@YA_NW4VipsInterpretation@@@Z 0000000180004b80 f   common.obj
 0001:00003b90       ?_Tidy@?$vector@V?$Local@VObject@v8@@@v8@@V?$allocator@V?$Local@VObject@v8@@@v8@@@std@@@std@@AEAAXXZ 0000000180004b90 f i common.obj
 0001:00003b90       ??1?$vector@NV?$allocator@N@std@@@std@@QEAA@XZ 0000000180004b90 f i operations.obj
 0001:00003b90       ??1?$vector@V?$Local@VObject@v8@@@v8@@V?$allocator@V?$Local@VObject@v8@@@v8@@@std@@@std@@QEAA@XZ 0000000180004b90 f i common.obj
 0001:00003b90       ?_Tidy@?$vector@NV?$allocator@N@std@@@std@@AEAAXXZ 0000000180004b90 f i operations.obj
 0001:00003bf0       ?data@?$basic_string@DU?$char_traits@D@std@@V?$allocator@D@2@@std@@QEBAPEBDXZ 0000000180004bf0 f i common.obj
 0001:00003c00       ??4?$basic_string@DU?$char_traits@D@std@@V?$allocator@D@2@@std@@QEAAAEAV01@QEBD@Z 0000000180004c00 f i common.obj
 0001:00003c20       ?_Tidy_deallocate@?$basic_string@DU?$char_traits@D@std@@V?$allocator@D@2@@std@@QEAAXXZ 0000000180004c20 f i common.obj
 0001:00003c20       ??1?$basic_string@DU?$char_traits@D@std@@V?$allocator@D@2@@std@@QEAA@XZ 0000000180004c20 f i common.obj
 0001:00003c80       ??4?$basic_string@DU?$char_traits@D@std@@V?$allocator@D@2@@std@@QEAAAEAV01@$$QEAV01@@Z 0000000180004c80 f i common.obj
 0001:00003d10       ??0?$basic_string@DU?$char_traits@D@std@@V?$allocator@D@2@@std@@QEAA@$$QEAV01@@Z 0000000180004d10 f i common.obj
 0001:00003d40       ??0?$basic_string@DU?$char_traits@D@std@@V?$allocator@D@2@@std@@QEAA@QEBD@Z 0000000180004d40 f i common.obj
 0001:00003d80       ??0?$basic_string@DU?$char_traits@D@std@@V?$allocator@D@2@@std@@QEAA@XZ 0000000180004d80 f i common.obj
 0001:00003da0       ??0?$basic_string@DU?$char_traits@D@std@@V?$allocator@D@2@@std@@QEAA@AEBV01@@Z 0000000180004da0 f i common.obj
 0001:00003e80       ?assign@?$basic_string@DU?$char_traits@D@std@@V?$allocator@D@2@@std@@QEAAAEAV12@QEBD_K@Z 0000000180004e80 f i common.obj
 0001:00003fd0       ?_Xran@?$_String_val@U?$_Simple_types@D@std@@@std@@SAXXZ 0000000180004fd0 f i common.obj
 0001:00003ff0       ??$New@VString@v8@@V?$basic_string@DU?$char_traits@D@std@@V?$allocator@D@2@@std@@@Nan@@YA?AV?$MaybeLocal@VString@v8@@@v8@@V?$basic_string@DU?$char_traits@D@std@@V?$allocator@D@2@@std@@@Z 0000000180004ff0 f i common.obj
 0001:000040f0       ??$AttrAs@VFunction@v8@@@sharp@@YA?AV?$Local@VFunction@v8@@@v8@@V?$Local@VObject@v8@@@2@V?$basic_string@DU?$char_traits@D@std@@V?$allocator@D@2@@std@@@Z 00000001800050f0 f i pipeline.obj
 0001:000040f0       ??$AttrAs@VObject@v8@@@sharp@@YA?AV?$Local@VObject@v8@@@v8@@V12@V?$basic_string@DU?$char_traits@D@std@@V?$allocator@D@2@@std@@@Z 00000001800050f0 f i common.obj
 0001:00004240       ??$AttrTo@I@sharp@@YAIV?$Local@VObject@v8@@@v8@@V?$basic_string@DU?$char_traits@D@std@@V?$allocator@D@2@@std@@@Z 0000000180005240 f i common.obj
 0001:000043e0       ??$_Emplace_reallocate@AEBV?$Local@VObject@v8@@@v8@@@?$vector@V?$Local@VObject@v8@@@v8@@V?$allocator@V?$Local@VObject@v8@@@v8@@@std@@@std@@QEAAPEAV?$Local@VObject@v8@@@v8@@QEAV23@AEBV23@@Z 00000001800053e0 f i common.obj
 0001:00004620       ?_Xlength@?$vector@PEAUInputDescriptor@sharp@@V?$allocator@PEAUInputDescriptor@sharp@@@std@@@std@@CAXXZ 0000000180005620 f i pipeline.obj
 0001:00004620       ?_Xlength@?$vector@V?$Local@VObject@v8@@@v8@@V?$allocator@V?$Local@VObject@v8@@@v8@@@std@@@std@@CAXXZ 0000000180005620 f i common.obj
 0001:00004620       ?_Xlength@?$vector@NV?$allocator@N@std@@@std@@CAXXZ 0000000180005620 f i operations.obj
 0001:00004640       ?_Xlen@?$basic_string@DU?$char_traits@D@std@@V?$allocator@D@2@@std@@SAXXZ 0000000180005640 f i common.obj
 0001:00004660       ?Set@Nan@@YA?AV?$Maybe@_N@1@V?$Local@VObject@v8@@@v8@@V?$Local@VValue@v8@@@4@1@Z 0000000180005660 f i metadata.obj
 0001:00004700       ?New@?$Factory@VUint32@v8@@@imp@Nan@@SA?AV?$Local@VUint32@v8@@@v8@@H@Z 0000000180005700 f i metadata.obj
 0001:000047b0       ??0AsyncResource@Nan@@QEAA@PEBDV?$Local@VObject@v8@@@v8@@@Z 00000001800057b0 f i metadata.obj
 0001:00004870       ??1AsyncResource@Nan@@QEAA@XZ 0000000180005870 f i metadata.obj
 0001:000048b0       ??0Callback@Nan@@QEAA@AEBV?$Local@VFunction@v8@@@v8@@@Z 00000001800058b0 f i metadata.obj
 0001:00004900       ?Call@Callback@Nan@@QEBA?AV?$Local@VValue@v8@@@v8@@HQEAV34@@Z 0000000180005900 f i metadata.obj
 0001:00004b00       ?Call_@Callback@Nan@@AEBA?AV?$MaybeLocal@VValue@v8@@@v8@@PEAVIsolate@4@V?$Local@VObject@v8@@@4@HQEAV?$Local@VValue@v8@@@4@PEAVAsyncResource@2@@Z 0000000180005b00 f i metadata.obj
 0001:00004bf0       ??0AsyncWorker@Nan@@QEAA@PEAVCallback@1@PEBD@Z 0000000180005bf0 f i metadata.obj
 0001:00004cf0       ??1AsyncWorker@Nan@@UEAA@XZ 0000000180005cf0 f i metadata.obj
 0001:00004de0       ?WorkComplete@AsyncWorker@Nan@@UEAAXXZ 0000000180005de0 f i metadata.obj
 0001:00004e80       ?GetFromPersistent@AsyncWorker@Nan@@QEBA?AV?$Local@VValue@v8@@@v8@@I@Z 0000000180005e80 f i metadata.obj
 0001:00004f70       ?Destroy@AsyncWorker@Nan@@UEAAXXZ 0000000180005f70 f i metadata.obj
 0001:00004f90       ?HandleOKCallback@AsyncWorker@Nan@@MEAAXXZ 0000000180005f90 f i metadata.obj
 0001:00005030       ?HandleErrorCallback@AsyncWorker@Nan@@MEAAXXZ 0000000180006030 f i metadata.obj
 0001:00005130       ??_GAsyncWorker@Nan@@UEAAPEAXI@Z 0000000180006130 f i metadata.obj
 0001:00005130       ??_EAsyncWorker@Nan@@UEAAPEAXI@Z 0000000180006130 f i * CIL library *:* CIL module *
 0001:00005170       ??1?$Persistent@VObject@v8@@V?$NonCopyablePersistentTraits@VObject@v8@@@2@@Nan@@QEAA@XZ 0000000180006170 f i metadata.obj
 0001:00005190       ?AsyncExecute@Nan@@YAXPEAUuv_work_s@@@Z 0000000180006190 f i metadata.obj
 0001:000051a0       ?AsyncExecuteComplete@Nan@@YAXPEAUuv_work_s@@@Z 00000001800061a0 f i metadata.obj
 0001:000051d0       ?AsyncQueueWorker@Nan@@YAXPEAVAsyncWorker@1@@Z 00000001800061d0 f i metadata.obj
 0001:00005210       ??0MetadataWorker@@QEAA@PEAVCallback@Nan@@PEAUMetadataBaton@@V?$vector@V?$Local@VObject@v8@@@v8@@V?$allocator@V?$Local@VObject@v8@@@v8@@@std@@@std@@@Z 0000000180006210 f i metadata.obj
 0001:000053a0       ?Execute@MetadataWorker@@UEAAXXZ 00000001800063a0 f i metadata.obj
 0001:00005750       ?HandleOKCallback@MetadataWorker@@UEAAXXZ 0000000180006750 f i metadata.obj
 0001:000063b0       ??_EMetadataWorker@@UEAAPEAXI@Z 00000001800073b0 f i * CIL library *:* CIL module *
 0001:000063b0       ??_GMetadataWorker@@UEAAPEAXI@Z 00000001800073b0 f i metadata.obj
 0001:00006450       ??_GInputDescriptor@sharp@@QEAAPEAXI@Z 0000000180007450 f i metadata.obj
 0001:00006510       ?metadata@@YAXAEBV?$FunctionCallbackInfo@VValue@v8@@@Nan@@@Z 0000000180007510 f   metadata.obj
 0001:00006750       ??0?$vector@V?$Local@VObject@v8@@@v8@@V?$allocator@V?$Local@VObject@v8@@@v8@@@std@@@std@@QEAA@AEBV01@@Z 0000000180007750 f i metadata.obj
 0001:00006870       ??A?$FunctionCallbackInfo@VValue@v8@@@Nan@@QEBA?AV?$Local@VValue@v8@@@v8@@H@Z 0000000180007870 f i metadata.obj
 0001:000068b0       ?append@?$basic_string@DU?$char_traits@D@std@@V?$allocator@D@2@@std@@QEAAAEAV12@QEBD@Z 00000001800078b0 f i metadata.obj
 0001:000068d0       ?append@?$basic_string@DU?$char_traits@D@std@@V?$allocator@D@2@@std@@QEAAAEAV12@QEBD_K@Z 00000001800078d0 f i metadata.obj
 0001:00006950       ??$?0AEAVVImage@vips@@$0A@@?$tuple@AEAVVImage@vips@@AEAW4ImageType@sharp@@@std@@QEAA@AEAVVImage@vips@@AEAW4ImageType@sharp@@@Z 0000000180007950 f i metadata.obj
 0001:00006950       ??$?0AEAH$0A@@?$tuple@AEAHAEAH@std@@QEAA@AEAH0@Z 0000000180007950 f i operations.obj
 0001:00006950       ??$tie@VVImage@vips@@W4ImageType@sharp@@@std@@YA?AV?$tuple@AEAVVImage@vips@@AEAW4ImageType@sharp@@@0@AEAVVImage@vips@@AEAW4ImageType@sharp@@@Z 0000000180007950 f i metadata.obj
 0001:00006960       ??$?4VVImage@vips@@W4ImageType@sharp@@$0A@@?$tuple@AEAVVImage@vips@@AEAW4ImageType@sharp@@@std@@QEAAAEAV01@$$QEAV?$tuple@VVImage@vips@@W4ImageType@sharp@@@1@@Z 0000000180007960 f i metadata.obj
 0001:000069a0       ??$_Reallocate_grow_by@V<lambda_65e615be2a453ca0576c979606f46740>@@PEBD_K@?$basic_string@DU?$char_traits@D@std@@V?$allocator@D@2@@std@@QEAAAEAV01@_KV<lambda_65e615be2a453ca0576c979606f46740>@@PEBD_K@Z 00000001800079a0 f i metadata.obj
 0001:00006b20       ??$?0U_Exact_args_t@std@@AEAVVImage@vips@@AEAW4ImageType@sharp@@$0A@@?$tuple@AEAVVImage@vips@@AEAW4ImageType@sharp@@@std@@QEAA@U_Exact_args_t@1@AEAVVImage@vips@@AEAW4ImageType@sharp@@@Z 0000000180007b20 f i metadata.obj
 0001:00006b30       ?Composite@sharp@@YA?AVVImage@vips@@V23@0H@Z 0000000180007b30 f   operations.obj
 0001:00006de0       ?Composite@sharp@@YA?AVVImage@vips@@V23@0HH@Z 0000000180007de0 f   operations.obj
 0001:000070b0       ?IsInputValidForComposition@sharp@@YA_NVVImage@vips@@0@Z 00000001800080b0 f   operations.obj
 0001:00007230       ?CompositeImage@sharp@@YA?AVVImage@vips@@V23@0@Z 0000000180008230 f   operations.obj
 0001:000074d0       ?Cutout@sharp@@YA?AVVImage@vips@@V23@0H@Z 00000001800084d0 f   operations.obj
 0001:00007a20       ?Normalize@sharp@@YA?AVVImage@vips@@V23@@Z 0000000180008a20 f   operations.obj
 0001:00007d30       ?Gamma@sharp@@YA?AVVImage@vips@@V23@N@Z 0000000180008d30 f   operations.obj
 0001:00007eb0       ?Blur@sharp@@YA?AVVImage@vips@@V23@N@Z 0000000180008eb0 f   operations.obj
 0001:00007fa0       ?Convolve@sharp@@YA?AVVImage@vips@@V23@HHNNAEBV?$unique_ptr@$$BY0A@NU?$default_delete@$$BY0A@N@std@@@std@@@Z 0000000180008fa0 f   operations.obj
 0001:00008090       ?Sharpen@sharp@@YA?AVVImage@vips@@V23@NNN@Z 0000000180009090 f   operations.obj
 0001:00008220       ??RAttentionStrategy@sharp@@QEAANVVImage@vips@@@Z 0000000180009220 f   operations.obj
 0001:00008620       ?Crop@sharp@@YA?AV?$tuple@HH@std@@VVImage@vips@@HHV?$function@$$A6ANVVImage@vips@@@Z@3@@Z 0000000180009620 f   operations.obj
 0001:00008960       ??1?$_Func_class@NVVImage@vips@@@std@@QEAA@XZ 0000000180009960 f i operations.obj
 0001:00008960       ??1?$function@$$A6ANVVImage@vips@@@Z@std@@QEAA@XZ 0000000180009960 f i operations.obj
 0001:000089a0       ?TileCache@sharp@@YA?AVVImage@vips@@V23@N@Z 00000001800099a0 f   operations.obj
 0001:00008ac0       ?Threshold@sharp@@YA?AVVImage@vips@@V23@N_N@Z 0000000180009ac0 f   operations.obj
 0001:00008b40       ?Bandbool@sharp@@YA?AVVImage@vips@@V23@W4VipsOperationBoolean@@@Z 0000000180009b40 f   operations.obj
 0001:00008bd0       ?Boolean@sharp@@YA?AVVImage@vips@@V23@0W4VipsOperationBoolean@@@Z 0000000180009bd0 f   operations.obj
 0001:00008c50       ?Trim@sharp@@YA?AVVImage@vips@@V23@H@Z 0000000180009c50 f   operations.obj
 0001:000090e0       ??0?$vector@NV?$allocator@N@std@@@std@@QEAA@AEBV01@@Z 000000018000a0e0 f i operations.obj
 0001:000091d0       ??0?$vector@NV?$allocator@N@std@@@std@@QEAA@V?$initializer_list@N@1@AEBV?$allocator@N@1@@Z 000000018000a1d0 f i operations.obj
 0001:000092c0       ?_Buy@?$vector@NV?$allocator@N@std@@@std@@AEAA_N_K@Z 000000018000a2c0 f i operations.obj
 0001:00009370       ??$min@H@std@@YAAEBHAEBH0@Z 000000018000a370 f i operations.obj
 0001:00009380       ??0PipelineWorker@@QEAA@PEAVCallback@Nan@@PEAUPipelineBaton@@0V?$vector@V?$Local@VObject@v8@@@v8@@V?$allocator@V?$Local@VObject@v8@@@v8@@@std@@@std@@@Z 000000018000a380 f i pipeline.obj
 0001:00009520       ?Execute@PipelineWorker@@UEAAXXZ 000000018000a520 f i pipeline.obj
 0001:0000d2b0       ?HandleOKCallback@PipelineWorker@@UEAAXXZ 000000018000e2b0 f i pipeline.obj
 0001:0000def0       ?CalculateRotationAndFlip@PipelineWorker@@AEAA?AV?$tuple@W4VipsAngle@@_N_N@std@@HVVImage@vips@@@Z 000000018000eef0 f i pipeline.obj
 0001:0000dff0       ?Error@PipelineWorker@@AEAAXXZ 000000018000eff0 f i pipeline.obj
 0001:0000e010       ??_EPipelineWorker@@UEAAPEAXI@Z 000000018000f010 f i * CIL library *:* CIL module *
 0001:0000e010       ??_GPipelineWorker@@UEAAPEAXI@Z 000000018000f010 f i pipeline.obj
 0001:0000e0b0       ??1?$map@W4VipsInterpretation@@V?$basic_string@DU?$char_traits@D@std@@V?$allocator@D@2@@std@@U?$less@W4VipsInterpretation@@@3@V?$allocator@U?$pair@$$CBW4VipsInterpretation@@V?$basic_string@DU?$char_traits@D@std@@V?$allocator@D@2@@std@@@std@@@3@@std@@QEAA@XZ 000000018000f0b0 f i pipeline.obj
 0001:0000e0b0       ??1?$_Tree@V?$_Tmap_traits@W4VipsInterpretation@@V?$basic_string@DU?$char_traits@D@std@@V?$allocator@D@2@@std@@U?$less@W4VipsInterpretation@@@3@V?$allocator@U?$pair@$$CBW4VipsInterpretation@@V?$basic_string@DU?$char_traits@D@std@@V?$allocator@D@2@@std@@@std@@@3@$0A@@std@@@std@@QEAA@XZ 000000018000f0b0 f i pipeline.obj
 0001:0000e0e0       ??1?$pair@W4VipsInterpretation@@V?$basic_string@DU?$char_traits@D@std@@V?$allocator@D@2@@std@@@std@@QEAA@XZ 000000018000f0e0 f i pipeline.obj
 0001:0000e140       ??1PipelineBaton@@QEAA@XZ  000000018000f140 f i pipeline.obj
 0001:0000e3c0       ?pipeline@@YAXAEBV?$FunctionCallbackInfo@VValue@v8@@@Nan@@@Z 000000018000f3c0 f   pipeline.obj
 0001:00010970       ??A?$map@W4VipsInterpretation@@V?$basic_string@DU?$char_traits@D@std@@V?$allocator@D@2@@std@@U?$less@W4VipsInterpretation@@@3@V?$allocator@U?$pair@$$CBW4VipsInterpretation@@V?$basic_string@DU?$char_traits@D@std@@V?$allocator@D@2@@std@@@std@@@3@@std@@QEAAAEAV?$basic_string@DU?$char_traits@D@std@@V?$allocator@D@2@@1@AEBW4VipsInterpretation@@@Z 0000000180011970 f i pipeline.obj
 0001:00010a40       ??$emplace_back@N@?$vector@NV?$allocator@N@std@@@std@@QEAAX$$QEAN@Z 0000000180011a40 f i pipeline.obj
 0001:00010a70       ?append@?$basic_string@DU?$char_traits@D@std@@V?$allocator@D@2@@std@@QEAAAEAV12@AEBV12@@Z 0000000180011a70 f i pipeline.obj
 0001:00010a90       ??0?$_Tree_comp_alloc@V?$_Tmap_traits@W4VipsInterpretation@@V?$basic_string@DU?$char_traits@D@std@@V?$allocator@D@2@@std@@U?$less@W4VipsInterpretation@@@3@V?$allocator@U?$pair@$$CBW4VipsInterpretation@@V?$basic_string@DU?$char_traits@D@std@@V?$allocator@D@2@@std@@@std@@@3@$0A@@std@@@std@@QEAA@AEBU?$less@W4VipsInterpretation@@@1@@Z 0000000180011a90 f i pipeline.obj
 0001:00010ad0       ?erase@?$_Tree@V?$_Tmap_traits@W4VipsInterpretation@@V?$basic_string@DU?$char_traits@D@std@@V?$allocator@D@2@@std@@U?$less@W4VipsInterpretation@@@3@V?$allocator@U?$pair@$$CBW4VipsInterpretation@@V?$basic_string@DU?$char_traits@D@std@@V?$allocator@D@2@@std@@@std@@@3@$0A@@std@@@std@@QEAA?AV?$_Tree_iterator@V?$_Tree_val@U?$_Tree_simple_types@U?$pair@$$CBW4VipsInterpretation@@V?$basic_string@DU?$char_traits@D@std@@V?$allocator@D@2@@std@@@std@@@std@@@std@@@2@V?$_Tree_const_iterator@V?$_Tree_val@U?$_Tree_simple_types@U?$pair@$$CBW4VipsInterpretation@@V?$basic_string@DU?$char_traits@D@std@@V?$allocator@D@2@@std@@@std@@@std@@@std@@@2@0@Z 0000000180011ad0 f i pipeline.obj
 0001:00010c80       ?_Extract@?$_Tree_val@U?$_Tree_simple_types@U?$pair@$$CBW4VipsInterpretation@@V?$basic_string@DU?$char_traits@D@std@@V?$allocator@D@2@@std@@@std@@@std@@@std@@QEAAPEAU?$_Tree_node@U?$pair@$$CBW4VipsInterpretation@@V?$basic_string@DU?$char_traits@D@std@@V?$allocator@D@2@@std@@@std@@PEAX@2@V?$_Tree_const_iterator@V?$_Tree_val@U?$_Tree_simple_types@U?$pair@$$CBW4VipsInterpretation@@V?$basic_string@DU?$char_traits@D@std@@V?$allocator@D@2@@std@@@std@@@std@@@std@@@2@@Z 0000000180011c80 f i pipeline.obj
 0001:00011110       ?_Erase@?$_Tree@V?$_Tmap_traits@W4VipsInterpretation@@V?$basic_string@DU?$char_traits@D@std@@V?$allocator@D@2@@std@@U?$less@W4VipsInterpretation@@@3@V?$allocator@U?$pair@$$CBW4VipsInterpretation@@V?$basic_string@DU?$char_traits@D@std@@V?$allocator@D@2@@std@@@std@@@3@$0A@@std@@@std@@IEAAXPEAU?$_Tree_node@U?$pair@$$CBW4VipsInterpretation@@V?$basic_string@DU?$char_traits@D@std@@V?$allocator@D@2@@std@@@std@@PEAX@2@@Z 0000000180012110 f i pipeline.obj
 0001:000111d0       ??$?HDU?$char_traits@D@std@@V?$allocator@D@1@@std@@YA?AV?$basic_string@DU?$char_traits@D@std@@V?$allocator@D@2@@0@AEBV10@QEBD@Z 00000001800121d0 f i pipeline.obj
 0001:00011280       ??$?4W4VipsAngle@@_N_N$0A@@?$tuple@AEAW4VipsAngle@@AEA_NAEA_N@std@@QEAAAEAV01@$$QEAV?$tuple@W4VipsAngle@@_N_N@1@@Z 0000000180012280 f i pipeline.obj
 0001:000112b0       ??$?9DU?$char_traits@D@std@@V?$allocator@D@1@@std@@YA_NAEBV?$basic_string@DU?$char_traits@D@std@@V?$allocator@D@2@@0@0@Z 00000001800122b0 f i pipeline.obj
 0001:00011300       ??$?8DU?$char_traits@D@std@@V?$allocator@D@1@@std@@YA_NAEBV?$basic_string@DU?$char_traits@D@std@@V?$allocator@D@2@@0@QEBD@Z 0000000180012300 f i pipeline.obj
 0001:00011300       ?_Equal@?$basic_string@DU?$char_traits@D@std@@V?$allocator@D@2@@std@@QEBA_NQEBD@Z 0000000180012300 f i pipeline.obj
 0001:00011350       ??$?HDU?$char_traits@D@std@@V?$allocator@D@1@@std@@YA?AV?$basic_string@DU?$char_traits@D@std@@V?$allocator@D@2@@0@QEBDAEBV10@@Z 0000000180012350 f i pipeline.obj
 0001:000113e0       ??$AttrTo@_N@sharp@@YA_NV?$Local@VObject@v8@@@v8@@V?$basic_string@DU?$char_traits@D@std@@V?$allocator@D@2@@std@@@Z 00000001800123e0 f i pipeline.obj
 0001:00011580       ??$AttrTo@H@sharp@@YAHV?$Local@VObject@v8@@@v8@@V?$basic_string@DU?$char_traits@D@std@@V?$allocator@D@2@@std@@@Z 0000000180012580 f i pipeline.obj
 0001:00011720       ??$AttrTo@N@sharp@@YANV?$Local@VObject@v8@@@v8@@V?$basic_string@DU?$char_traits@D@std@@V?$allocator@D@2@@std@@@Z 0000000180012720 f i pipeline.obj
 0001:000118d0       ??$_Emplace_reallocate@PEAUInputDescriptor@sharp@@@?$vector@PEAUInputDescriptor@sharp@@V?$allocator@PEAUInputDescriptor@sharp@@@std@@@std@@QEAAPEAPEAUInputDescriptor@sharp@@QEAPEAU23@$$QEAPEAU23@@Z 00000001800128d0 f i pipeline.obj
 0001:00011a70       ??$_Assign_range@PEBN@?$vector@NV?$allocator@N@std@@@std@@AEAAXPEBN0Uforward_iterator_tag@1@@Z 0000000180012a70 f i pipeline.obj
 0001:00011bc0       ??$_Emplace_reallocate@N@?$vector@NV?$allocator@N@std@@@std@@QEAAPEANQEAN$$QEAN@Z 0000000180012bc0 f i pipeline.obj
 0001:00011d60       ?reserve@?$basic_string@DU?$char_traits@D@std@@V?$allocator@D@2@@std@@QEAAX_K@Z 0000000180012d60 f i pipeline.obj
 0001:00011f20       ??$_Reset@UEntropyStrategy@sharp@@@?$_Func_class@NVVImage@vips@@@std@@IEAAX$$QEAUEntropyStrategy@sharp@@@Z 0000000180012f20 f i pipeline.obj
 0001:00011f30       ??$_Reset@UAttentionStrategy@sharp@@@?$_Func_class@NVVImage@vips@@@std@@IEAAX$$QEAUAttentionStrategy@sharp@@@Z 0000000180012f30 f i pipeline.obj
 0001:00011f40       ??$_Try_emplace@W4VipsInterpretation@@$$V@?$map@W4VipsInterpretation@@V?$basic_string@DU?$char_traits@D@std@@V?$allocator@D@2@@std@@U?$less@W4VipsInterpretation@@@3@V?$allocator@U?$pair@$$CBW4VipsInterpretation@@V?$basic_string@DU?$char_traits@D@std@@V?$allocator@D@2@@std@@@std@@@3@@std@@QEAA?AU?$pair@V?$_Tree_iterator@V?$_Tree_val@U?$_Tree_simple_types@U?$pair@$$CBW4VipsInterpretation@@V?$basic_string@DU?$char_traits@D@std@@V?$allocator@D@2@@std@@@std@@@std@@@std@@@std@@_N@1@$$QEAW4VipsInterpretation@@@Z 0000000180012f40 f i pipeline.obj
 0001:00012020       ?_Delete_this@?$_Func_impl_no_alloc@UAttentionStrategy@sharp@@NVVImage@vips@@@std@@EEAAX_N@Z 0000000180013020 f i pipeline.obj
 0001:00012020       ?_Delete_this@?$_Func_impl_no_alloc@UEntropyStrategy@sharp@@NVVImage@vips@@@std@@EEAAX_N@Z 0000000180013020 f i pipeline.obj
 0001:00012030       ?_Get@?$_Func_impl_no_alloc@UAttentionStrategy@sharp@@NVVImage@vips@@@std@@EEBAPEBXXZ 0000000180013030 f i pipeline.obj
 0001:00012030       ?_Get@?$_Func_impl_no_alloc@UEntropyStrategy@sharp@@NVVImage@vips@@@std@@EEBAPEBXXZ 0000000180013030 f i pipeline.obj
 0001:00012040       ?_Target_type@?$_Func_impl_no_alloc@UAttentionStrategy@sharp@@NVVImage@vips@@@std@@EEBAAEBVtype_info@@XZ 0000000180013040 f i pipeline.obj
 0001:00012050       ?_Copy@?$_Func_impl_no_alloc@UAttentionStrategy@sharp@@NVVImage@vips@@@std@@EEBAPEAV?$_Func_base@NVVImage@vips@@@2@PEAX@Z 0000000180013050 f i pipeline.obj
 0001:00012050       ?_Move@?$_Func_impl_no_alloc@UAttentionStrategy@sharp@@NVVImage@vips@@@std@@EEAAPEAV?$_Func_base@NVVImage@vips@@@2@PEAX@Z 0000000180013050 f i pipeline.obj
 0001:00012060       ?_Target_type@?$_Func_impl_no_alloc@UEntropyStrategy@sharp@@NVVImage@vips@@@std@@EEBAAEBVtype_info@@XZ 0000000180013060 f i pipeline.obj
 0001:00012070       ?_Copy@?$_Func_impl_no_alloc@UEntropyStrategy@sharp@@NVVImage@vips@@@std@@EEBAPEAV?$_Func_base@NVVImage@vips@@@2@PEAX@Z 0000000180013070 f i pipeline.obj
 0001:00012070       ?_Move@?$_Func_impl_no_alloc@UEntropyStrategy@sharp@@NVVImage@vips@@@std@@EEAAPEAV?$_Func_base@NVVImage@vips@@@2@PEAX@Z 0000000180013070 f i pipeline.obj
 0001:00012080       ??$_Buynode@U?$pair@W4VipsInterpretation@@V?$basic_string@DU?$char_traits@D@std@@V?$allocator@D@2@@std@@@std@@@?$_Tree_comp_alloc@V?$_Tmap_traits@W4VipsInterpretation@@V?$basic_string@DU?$char_traits@D@std@@V?$allocator@D@2@@std@@U?$less@W4VipsInterpretation@@@3@V?$allocator@U?$pair@$$CBW4VipsInterpretation@@V?$basic_string@DU?$char_traits@D@std@@V?$allocator@D@2@@std@@@std@@@3@$0A@@std@@@std@@QEAAPEAU?$_Tree_node@U?$pair@$$CBW4VipsInterpretation@@V?$basic_string@DU?$char_traits@D@std@@V?$allocator@D@2@@std@@@std@@PEAX@1@$$QEAU?$pair@W4VipsInterpretation@@V?$basic_string@DU?$char_traits@D@std@@V?$allocator@D@2@@std@@@1@@Z 0000000180013080 f i pipeline.obj
 0001:000120f0       ??$_Insert_nohint@AEAU?$pair@$$CBW4VipsInterpretation@@V?$basic_string@DU?$char_traits@D@std@@V?$allocator@D@2@@std@@@std@@PEAU?$_Tree_node@U?$pair@$$CBW4VipsInterpretation@@V?$basic_string@DU?$char_traits@D@std@@V?$allocator@D@2@@std@@@std@@PEAX@2@@?$_Tree@V?$_Tmap_traits@W4VipsInterpretation@@V?$basic_string@DU?$char_traits@D@std@@V?$allocator@D@2@@std@@U?$less@W4VipsInterpretation@@@3@V?$allocator@U?$pair@$$CBW4VipsInterpretation@@V?$basic_string@DU?$char_traits@D@std@@V?$allocator@D@2@@std@@@std@@@3@$0A@@std@@@std@@IEAA?AU?$pair@V?$_Tree_iterator@V?$_Tree_val@U?$_Tree_simple_types@U?$pair@$$CBW4VipsInterpretation@@V?$basic_string@DU?$char_traits@D@std@@V?$allocator@D@2@@std@@@std@@@std@@@std@@@std@@_N@1@_NAEAU?$pair@$$CBW4VipsInterpretation@@V?$basic_string@DU?$char_traits@D@std@@V?$allocator@D@2@@std@@@1@PEAU?$_Tree_node@U?$pair@$$CBW4VipsInterpretation@@V?$basic_string@DU?$char_traits@D@std@@V?$allocator@D@2@@std@@@std@@PEAX@1@@Z 00000001800130f0 f i pipeline.obj
 0001:00012290       ??$?0U_Exact_args_t@std@@AEAW4VipsAngle@@AEA_NAEA_N$0A@@?$tuple@AEAW4VipsAngle@@AEA_NAEA_N@std@@QEAA@U_Exact_args_t@1@AEAW4VipsAngle@@AEA_N2@Z 0000000180013290 f i pipeline.obj
 0001:000122b0       ?_Do_call@?$_Func_impl_no_alloc@UEntropyStrategy@sharp@@NVVImage@vips@@@std@@EEAAN$$QEAVVImage@vips@@@Z 00000001800132b0 f i pipeline.obj
 0001:00012320       ?_Do_call@?$_Func_impl_no_alloc@UAttentionStrategy@sharp@@NVVImage@vips@@@std@@EEAAN$$QEAVVImage@vips@@@Z 0000000180013320 f i pipeline.obj
 0001:00012350       ?_Destroy_if_node@?$_Tree@V?$_Tmap_traits@W4VipsInterpretation@@V?$basic_string@DU?$char_traits@D@std@@V?$allocator@D@2@@std@@U?$less@W4VipsInterpretation@@@3@V?$allocator@U?$pair@$$CBW4VipsInterpretation@@V?$basic_string@DU?$char_traits@D@std@@V?$allocator@D@2@@std@@@std@@@3@$0A@@std@@@std@@IEAAXPEAU?$_Tree_node@U?$pair@$$CBW4VipsInterpretation@@V?$basic_string@DU?$char_traits@D@std@@V?$allocator@D@2@@std@@@std@@PEAX@2@@Z 0000000180013350 f i pipeline.obj
 0001:000123c0       ??$_Insert_at@AEAU?$pair@$$CBW4VipsInterpretation@@V?$basic_string@DU?$char_traits@D@std@@V?$allocator@D@2@@std@@@std@@PEAU?$_Tree_node@U?$pair@$$CBW4VipsInterpretation@@V?$basic_string@DU?$char_traits@D@std@@V?$allocator@D@2@@std@@@std@@PEAX@2@@?$_Tree@V?$_Tmap_traits@W4VipsInterpretation@@V?$basic_string@DU?$char_traits@D@std@@V?$allocator@D@2@@std@@U?$less@W4VipsInterpretation@@@3@V?$allocator@U?$pair@$$CBW4VipsInterpretation@@V?$basic_string@DU?$char_traits@D@std@@V?$allocator@D@2@@std@@@std@@@3@$0A@@std@@@std@@IEAA?AV?$_Tree_iterator@V?$_Tree_val@U?$_Tree_simple_types@U?$pair@$$CBW4VipsInterpretation@@V?$basic_string@DU?$char_traits@D@std@@V?$allocator@D@2@@std@@@std@@@std@@@std@@@1@_NPEAU?$_Tree_node@U?$pair@$$CBW4VipsInterpretation@@V?$basic_string@DU?$char_traits@D@std@@V?$allocator@D@2@@std@@@std@@PEAX@1@AEAU?$pair@$$CBW4VipsInterpretation@@V?$basic_string@DU?$char_traits@D@std@@V?$allocator@D@2@@std@@@1@1@Z 00000001800133c0 f i pipeline.obj
 0001:00012670       ??$_Insert_hint@AEAU?$pair@$$CBW4VipsInterpretation@@V?$basic_string@DU?$char_traits@D@std@@V?$allocator@D@2@@std@@@std@@PEAU?$_Tree_node@U?$pair@$$CBW4VipsInterpretation@@V?$basic_string@DU?$char_traits@D@std@@V?$allocator@D@2@@std@@@std@@PEAX@2@@?$_Tree@V?$_Tmap_traits@W4VipsInterpretation@@V?$basic_string@DU?$char_traits@D@std@@V?$allocator@D@2@@std@@U?$less@W4VipsInterpretation@@@3@V?$allocator@U?$pair@$$CBW4VipsInterpretation@@V?$basic_string@DU?$char_traits@D@std@@V?$allocator@D@2@@std@@@std@@@3@$0A@@std@@@std@@IEAA?AV?$_Tree_iterator@V?$_Tree_val@U?$_Tree_simple_types@U?$pair@$$CBW4VipsInterpretation@@V?$basic_string@DU?$char_traits@D@std@@V?$allocator@D@2@@std@@@std@@@std@@@std@@@1@V?$_Tree_const_iterator@V?$_Tree_val@U?$_Tree_simple_types@U?$pair@$$CBW4VipsInterpretation@@V?$basic_string@DU?$char_traits@D@std@@V?$allocator@D@2@@std@@@std@@@std@@@std@@@1@AEAU?$pair@$$CBW4VipsInterpretation@@V?$basic_string@DU?$char_traits@D@std@@V?$allocator@D@2@@std@@@1@PEAU?$_Tree_node@U?$pair@$$CBW4VipsInterpretation@@V?$basic_string@DU?$char_traits@D@std@@V?$allocator@D@2@@std@@@std@@PEAX@1@@Z 0000000180013670 f i pipeline.obj
 0001:00012990       ?init@@YAXV?$Local@VObject@v8@@@v8@@@Z 0000000180013990 f   sharp.obj
 0001:00013240       ??$New@VFunctionTemplate@v8@@@Nan@@YA?AV?$Local@VFunctionTemplate@v8@@@v8@@P6AXAEBV?$FunctionCallbackInfo@VValue@v8@@@0@@ZV?$Local@VValue@v8@@@2@@Z 0000000180014240 f i sharp.obj
 0001:000133f0       ?ThrowError@Nan@@YAXPEBD@Z 00000001800143f0 f i utilities.obj
 0001:00013490       ?cache@@YAXAEBV?$FunctionCallbackInfo@VValue@v8@@@Nan@@@Z 0000000180014490 f   utilities.obj
 0001:00013ff0       ?concurrency@@YAXAEBV?$FunctionCallbackInfo@VValue@v8@@@Nan@@@Z 0000000180014ff0 f   utilities.obj
 0001:00014170       ?counters@@YAXAEBV?$FunctionCallbackInfo@VValue@v8@@@Nan@@@Z 0000000180015170 f   utilities.obj
 0001:00014400       ?simd@@YAXAEBV?$FunctionCallbackInfo@VValue@v8@@@Nan@@@Z 0000000180015400 f   utilities.obj
 0001:00014520       ?libvipsVersion@@YAXAEBV?$FunctionCallbackInfo@VValue@v8@@@Nan@@@Z 0000000180015520 f   utilities.obj
 0001:00014610       ?format@@YAXAEBV?$FunctionCallbackInfo@VValue@v8@@@Nan@@@Z 0000000180015610 f   utilities.obj
 0001:00015470       ?_maxColourDistance@@YAXAEBV?$FunctionCallbackInfo@VValue@v8@@@Nan@@@Z 0000000180016470 f   utilities.obj
 0001:0001597c       __imp_load_?GetCurrentContext@Isolate@v8@@QEAA?AV?$Local@VContext@v8@@@2@XZ 000000018001697c f   node:node.exe
 0001:00015988       __tailMerge_node_exe       0000000180016988     node:node.exe
 0001:00015a01       __imp_load_?GetCurrent@Isolate@v8@@SAPEAV12@XZ 0000000180016a01 f   node:node.exe
 0001:00015a0d       __imp_load_??1HandleScope@v8@@QEAA@XZ 0000000180016a0d f   node:node.exe
 0001:00015a19       __imp_load_??0HandleScope@v8@@QEAA@PEAVIsolate@1@@Z 0000000180016a19 f   node:node.exe
 0001:00015a25       __imp_load_?ToLocalEmpty@V8@v8@@CAXXZ 0000000180016a25 f   node:node.exe
 0001:00015a31       __imp_load_?Uint32Value@Value@v8@@QEBA?AV?$Maybe@I@2@V?$Local@VContext@v8@@@2@@Z 0000000180016a31 f   node:node.exe
 0001:00015a3d       __imp_load_?ToString@Value@v8@@QEBA?AV?$MaybeLocal@VString@v8@@@2@V?$Local@VContext@v8@@@2@@Z 0000000180016a3d f   node:node.exe
 0001:00015a49       __imp_load_?Escape@EscapableHandleScope@v8@@AEAAPEAPEAVObject@internal@2@PEAPEAV342@@Z 0000000180016a49 f   node:node.exe
 0001:00015a55       __imp_load_??0EscapableHandleScope@v8@@QEAA@PEAVIsolate@1@@Z 0000000180016a55 f   node:node.exe
 0001:00015a61       __imp_load_?NewFromUtf8@String@v8@@SA?AV?$MaybeLocal@VString@v8@@@2@PEAVIsolate@2@PEBDW4NewStringType@2@H@Z 0000000180016a61 f   node:node.exe
 0001:00015a6d       __imp_load_?WriteUtf8@String@v8@@QEBAHPEADHPEAHH@Z 0000000180016a6d f   node:node.exe
 0001:00015a79       __imp_load_?Length@String@v8@@QEBAHXZ 0000000180016a79 f   node:node.exe
 0001:00015a85       __imp_load_?Has@Object@v8@@QEAA?AV?$Maybe@_N@2@V?$Local@VContext@v8@@@2@V?$Local@VValue@v8@@@2@@Z 0000000180016a85 f   node:node.exe
 0001:00015a91       __imp_load_?Get@Object@v8@@QEAA?AV?$MaybeLocal@VValue@v8@@@2@V?$Local@VContext@v8@@@2@V?$Local@VValue@v8@@@2@@Z 0000000180016a91 f   node:node.exe
 0001:00015a9d       __imp_load_?Data@Buffer@node@@YAPEADV?$Local@VObject@v8@@@v8@@@Z 0000000180016a9d f   node:node.exe
 0001:00015aa9       __imp_load_?Length@Buffer@node@@YA_KV?$Local@VObject@v8@@@v8@@@Z 0000000180016aa9 f   node:node.exe
 0001:00015ab5       __imp_load_??1EscapableHandleScope@v8@@QEAA@XZ 0000000180016ab5 f   node:node.exe
 0001:00015ac1       __imp_load_uv_queue_work   0000000180016ac1 f   node:node.exe
 0001:00015acd       __imp_load_?Global@Context@v8@@QEAA?AV?$Local@VObject@v8@@@2@XZ 0000000180016acd f   node:node.exe
 0001:00015ad9       __imp_load_?NewFromUnsigned@Integer@v8@@SA?AV?$Local@VInteger@v8@@@2@PEAVIsolate@2@I@Z 0000000180016ad9 f   node:node.exe
 0001:00015ae5       __imp_load_?CreateHandle@HandleScope@v8@@KAPEAPEAVObject@internal@2@PEAVIsolate@42@PEAV342@@Z 0000000180016ae5 f   node:node.exe
 0001:00015af1       __imp_load_?Error@Exception@v8@@SA?AV?$Local@VValue@v8@@@2@V?$Local@VString@v8@@@2@@Z 0000000180016af1 f   node:node.exe
 0001:00015afd       __imp_load_?DisposeGlobal@V8@v8@@CAXPEAPEAVObject@internal@2@@Z 0000000180016afd f   node:node.exe
 0001:00015b09       __imp_load_?GlobalizeReference@V8@v8@@CAPEAPEAVObject@internal@2@PEAVIsolate@42@PEAPEAV342@@Z 0000000180016b09 f   node:node.exe
 0001:00015b15       __imp_load_?ToUint32@Value@v8@@QEBA?AV?$MaybeLocal@VUint32@v8@@@2@V?$Local@VContext@v8@@@2@@Z 0000000180016b15 f   node:node.exe
 0001:00015b21       __imp_load_?New@Object@v8@@SA?AV?$Local@VObject@v8@@@2@PEAVIsolate@2@@Z 0000000180016b21 f   node:node.exe
 0001:00015b2d       __imp_load_?Get@Object@v8@@QEAA?AV?$MaybeLocal@VValue@v8@@@2@V?$Local@VContext@v8@@@2@I@Z 0000000180016b2d f   node:node.exe
 0001:00015b39       __imp_load_?Set@Object@v8@@QEAA?AV?$Maybe@_N@2@V?$Local@VContext@v8@@@2@V?$Local@VValue@v8@@@2@1@Z 0000000180016b39 f   node:node.exe
 0001:00015b45       __imp_load_?Set@Object@v8@@QEAA?AV?$Maybe@_N@2@V?$Local@VContext@v8@@@2@IV?$Local@VValue@v8@@@2@@Z 0000000180016b45 f   node:node.exe
 0001:00015b51       __imp_load_?EmitAsyncDestroy@node@@YAXPEAVIsolate@v8@@Uasync_context@1@@Z 0000000180016b51 f   node:node.exe
 0001:00015b5d       __imp_load_?New@Buffer@node@@YA?AV?$MaybeLocal@VObject@v8@@@v8@@PEAVIsolate@4@PEAD_KP6AX1PEAX@Z3@Z 0000000180016b5d f   node:node.exe
 0001:00015b69       __imp_load_?MakeCallback@node@@YA?AV?$MaybeLocal@VValue@v8@@@v8@@PEAVIsolate@3@V?$Local@VObject@v8@@@3@V?$Local@VFunction@v8@@@3@HPEAV?$Local@VValue@v8@@@3@Uasync_context@1@@Z 0000000180016b69 f   node:node.exe
 0001:00015b75       __imp_load_?EmitAsyncInit@node@@YA?AUasync_context@1@PEAVIsolate@v8@@V?$Local@VObject@v8@@@4@V?$Local@VString@v8@@@4@N@Z 0000000180016b75 f   node:node.exe
 0001:00015b81       __imp_load_?GetCurrentEventLoop@node@@YAPEAUuv_loop_s@@PEAVIsolate@v8@@@Z 0000000180016b81 f   node:node.exe
 0001:00015b8d       __imp_load_?Int32Value@Value@v8@@QEBA?AV?$Maybe@H@2@V?$Local@VContext@v8@@@2@@Z 0000000180016b8d f   node:node.exe
 0001:00015b99       __imp_load_?NumberValue@Value@v8@@QEBA?AV?$Maybe@N@2@V?$Local@VContext@v8@@@2@@Z 0000000180016b99 f   node:node.exe
 0001:00015ba5       __imp_load_?BooleanValue@Value@v8@@QEBA?AV?$Maybe@_N@2@V?$Local@VContext@v8@@@2@@Z 0000000180016ba5 f   node:node.exe
 0001:00015bb1       __imp_load_?Value@External@v8@@QEBAPEAXXZ 0000000180016bb1 f   node:node.exe
 0001:00015bbd       __imp_load_?New@External@v8@@SA?AV?$Local@VExternal@v8@@@2@PEAVIsolate@2@PEAX@Z 0000000180016bbd f   node:node.exe
 0001:00015bc9       __imp_load_?CreateHandle@HandleScope@v8@@CAPEAPEAVObject@internal@2@PEAVHeapObject@42@PEAV342@@Z 0000000180016bc9 f   node:node.exe
 0001:00015bd5       __imp_load_?GetFunction@FunctionTemplate@v8@@QEAA?AV?$MaybeLocal@VFunction@v8@@@2@V?$Local@VContext@v8@@@2@@Z 0000000180016bd5 f   node:node.exe
 0001:00015be1       __imp_load_?New@FunctionTemplate@v8@@SA?AV?$Local@VFunctionTemplate@v8@@@2@PEAVIsolate@2@P6AXAEBV?$FunctionCallbackInfo@VValue@v8@@@2@@ZV?$Local@VValue@v8@@@2@V?$Local@VSignature@v8@@@2@HW4ConstructorBehavior@2@W4SideEffectType@2@@Z 0000000180016be1 f   node:node.exe
 0001:00015bed       __imp_load_?SlowGetInternalField@Object@v8@@AEAA?AV?$Local@VValue@v8@@@2@H@Z 0000000180016bed f   node:node.exe
 0001:00015bf9       __imp_load_?SetInternalField@Object@v8@@QEAAXHV?$Local@VValue@v8@@@2@@Z 0000000180016bf9 f   node:node.exe
 0001:00015c05       __imp_load_?SetInternalFieldCount@ObjectTemplate@v8@@QEAAXH@Z 0000000180016c05 f   node:node.exe
 0001:00015c11       __imp_load_?NewInstance@ObjectTemplate@v8@@QEAA?AV?$MaybeLocal@VObject@v8@@@2@V?$Local@VContext@v8@@@2@@Z 0000000180016c11 f   node:node.exe
 0001:00015c1d       __imp_load_?New@ObjectTemplate@v8@@SA?AV?$Local@VObjectTemplate@v8@@@2@PEAVIsolate@2@V?$Local@VFunctionTemplate@v8@@@2@@Z 0000000180016c1d f   node:node.exe
 0001:00015c29       __imp_load_node_module_register 0000000180016c29 f   node:node.exe
 0001:00015c35       __imp_load_?New@Integer@v8@@SA?AV?$Local@VInteger@v8@@@2@PEAVIsolate@2@H@Z 0000000180016c35 f   node:node.exe
 0001:00015c41       __imp_load_?ThrowException@Isolate@v8@@QEAA?AV?$Local@VValue@v8@@@2@V32@@Z 0000000180016c41 f   node:node.exe
 0001:00015c4d       __imp_load_?ToInteger@Value@v8@@QEBA?AV?$MaybeLocal@VInteger@v8@@@2@V?$Local@VContext@v8@@@2@@Z 0000000180016c4d f   node:node.exe
 0001:00015c59       __imp_load_?IsInt32@Value@v8@@QEBA_NXZ 0000000180016c59 f   node:node.exe
 0001:00015c65       __imp_load_?IsBoolean@Value@v8@@QEBA_NXZ 0000000180016c65 f   node:node.exe
 0001:00015c71       __imp_load_?New@Number@v8@@SA?AV?$Local@VNumber@v8@@@2@PEAVIsolate@2@N@Z 0000000180016c71 f   node:node.exe
 0001:00015c7d       ??0VError@vips@@QEAA@AEBV01@@Z 0000000180016c7d f   libvips-cpp:libvips-cpp.dll
 0001:00015c83       ??1VError@vips@@UEAA@XZ    0000000180016c83 f   libvips-cpp:libvips-cpp.dll
 0001:00015c8c       ??0bad_alloc@std@@QEAA@AEBV01@@Z 0000000180016c8c f i libcpmt:xthrow.obj
 0001:00015ccc       ??0bad_alloc@std@@QEAA@XZ  0000000180016ccc f i libcpmt:xthrow.obj
 0001:00015cec       ??0bad_function_call@std@@QEAA@AEBV01@@Z 0000000180016cec f i libcpmt:xthrow.obj
 0001:00015d2c       ??0bad_function_call@std@@QEAA@XZ 0000000180016d2c f i libcpmt:xthrow.obj
 0001:00015d44       ??0exception@std@@QEAA@AEBV01@@Z 0000000180016d44 f i libcpmt:xthrow.obj
 0001:00015d7c       ??0length_error@std@@QEAA@AEBV01@@Z 0000000180016d7c f i libcpmt:xthrow.obj
 0001:00015dbc       ??0length_error@std@@QEAA@PEBD@Z 0000000180016dbc f i libcpmt:xthrow.obj
 0001:00015e08       ??0logic_error@std@@QEAA@AEBV01@@Z 0000000180016e08 f i libcpmt:xthrow.obj
 0001:00015e48       ??0out_of_range@std@@QEAA@AEBV01@@Z 0000000180016e48 f i libcpmt:xthrow.obj
 0001:00015e88       ??0out_of_range@std@@QEAA@PEBD@Z 0000000180016e88 f i libcpmt:xthrow.obj
 0001:00015ed4       ??1bad_exception@std@@UEAA@XZ 0000000180016ed4 f i libvcruntime:frame.obj
 0001:00015ed4       ??1bad_array_new_length@std@@UEAA@XZ 0000000180016ed4 f i LIBCMT:throw_bad_alloc.obj
 0001:00015ed4       ??1length_error@std@@UEAA@XZ 0000000180016ed4 f i libcpmt:xthrow.obj
 0001:00015ed4       ??1bad_function_call@std@@UEAA@XZ 0000000180016ed4 f i libcpmt:xthrow.obj
 0001:00015ed4       ??1bad_alloc@std@@UEAA@XZ  0000000180016ed4 f i libcpmt:xthrow.obj
 0001:00015ed4       ??1out_of_range@std@@UEAA@XZ 0000000180016ed4 f i libcpmt:xthrow.obj
 0001:00015ee8       ??_Elogic_error@std@@UEAAPEAXI@Z 0000000180016ee8 f i libcpmt:xthrow.obj
 0001:00015ee8       ??_Glogic_error@std@@UEAAPEAXI@Z 0000000180016ee8 f i libcpmt:xthrow.obj
 0001:00015ee8       ??_Gbad_alloc@std@@UEAAPEAXI@Z 0000000180016ee8 f i libcpmt:xthrow.obj
 0001:00015ee8       ??_Eexception@std@@UEAAPEAXI@Z 0000000180016ee8 f i libcpmt:xthrow.obj
 0001:00015ee8       ??_Gexception@std@@UEAAPEAXI@Z 0000000180016ee8 f i libcpmt:xthrow.obj
 0001:00015ee8       ??_Ebad_exception@std@@UEAAPEAXI@Z 0000000180016ee8 f i libvcruntime:frame.obj
 0001:00015ee8       ??_Elength_error@std@@UEAAPEAXI@Z 0000000180016ee8 f i libcpmt:xthrow.obj
 0001:00015ee8       ??_Ebad_alloc@std@@UEAAPEAXI@Z 0000000180016ee8 f i libcpmt:xthrow.obj
 0001:00015ee8       ??_Ebad_function_call@std@@UEAAPEAXI@Z 0000000180016ee8 f i libcpmt:xthrow.obj
 0001:00015ee8       ??_Glength_error@std@@UEAAPEAXI@Z 0000000180016ee8 f i libcpmt:xthrow.obj
 0001:00015ee8       ??_Ebad_array_new_length@std@@UEAAPEAXI@Z 0000000180016ee8 f i LIBCMT:throw_bad_alloc.obj
 0001:00015ee8       ??_Gbad_array_new_length@std@@UEAAPEAXI@Z 0000000180016ee8 f i LIBCMT:throw_bad_alloc.obj
 0001:00015ee8       ??_Gout_of_range@std@@UEAAPEAXI@Z 0000000180016ee8 f i libcpmt:xthrow.obj
 0001:00015ee8       ??_Eout_of_range@std@@UEAAPEAXI@Z 0000000180016ee8 f i libcpmt:xthrow.obj
 0001:00015ee8       ??_Gbad_exception@std@@UEAAPEAXI@Z 0000000180016ee8 f i libvcruntime:frame.obj
 0001:00015ee8       ??_Gbad_function_call@std@@UEAAPEAXI@Z 0000000180016ee8 f i libcpmt:xthrow.obj
 0001:00015f2c       ?_Xbad_function_call@std@@YAXXZ 0000000180016f2c f   libcpmt:xthrow.obj
 0001:00015f4c       ?_Xlength_error@std@@YAXPEBD@Z 0000000180016f4c f   libcpmt:xthrow.obj
 0001:00015f70       ?_Xout_of_range@std@@YAXPEBD@Z 0000000180016f70 f   libcpmt:xthrow.obj
 0001:00015f94       ?what@bad_function_call@std@@UEBAPEBDXZ 0000000180016f94 f i libcpmt:xthrow.obj
 0001:00015f9c       ?what@exception@std@@UEBAPEBDXZ 0000000180016f9c f i libcpmt:xthrow.obj
 0001:00015fc0       __security_check_cookie    0000000180016fc0 f   LIBCMT:_amdsecgs_.obj
 0001:00015fe4       ??2@YAPEAX_K@Z             0000000180016fe4 f   LIBCMT:new_scalar.obj
 0001:00016020       ??_V@YAXPEAX@Z             0000000180017020 f   LIBCMT:delete_array.obj
 0001:00016020       ??3@YAXPEAX_K@Z            0000000180017020 f   LIBCMT:delete_scalar_size.obj
 0001:00016028       ??_Etype_info@@UEAAPEAXI@Z 0000000180017028 f i LIBCMT:std_type_info_static.obj
 0001:00016028       ??_Gtype_info@@UEAAPEAXI@Z 0000000180017028 f i LIBCMT:std_type_info_static.obj
 0001:00016054       ??_U@YAPEAX_K@Z            0000000180017054 f   LIBCMT:new_array.obj
 0001:0001638c       _DllMainCRTStartup         000000018001738c f   LIBCMT:dll_dllmain.obj
 0001:000163cc       __raise_securityfailure    00000001800173cc f   LIBCMT:gs_report.obj
 0001:00016400       __report_gsfailure         0000000180017400 f   LIBCMT:gs_report.obj
 0001:000164d4       __report_rangecheckfailure 00000001800174d4 f   LIBCMT:gs_report.obj
 0001:000164e8       __report_securityfailure   00000001800174e8 f   LIBCMT:gs_report.obj
 0001:00016668       ??0bad_array_new_length@std@@QEAA@AEBV01@@Z 0000000180017668 f i LIBCMT:throw_bad_alloc.obj
 0001:000166a8       ??0bad_array_new_length@std@@QEAA@XZ 00000001800176a8 f i LIBCMT:throw_bad_alloc.obj
 0001:000166c8       ?__scrt_throw_std_bad_alloc@@YAXXZ 00000001800176c8 f   LIBCMT:throw_bad_alloc.obj
 0001:000166e8       ?__scrt_throw_std_bad_array_new_length@@YAXXZ 00000001800176e8 f   LIBCMT:throw_bad_alloc.obj
 0001:00016708       ??3@YAXPEAX@Z              0000000180017708 f   LIBCMT:delete_scalar.obj
 0001:00016710       __security_init_cookie     0000000180017710 f   LIBCMT:gs_support.obj
 0001:000167bc       _get_startup_argv_mode     00000001800177bc f   LIBCMT:argv_mode.obj
 0001:000167bc       DllMain                    00000001800177bc f   LIBCMT:dll_dllmain_stub.obj
 0001:000167c4       ?__scrt_initialize_type_info@@YAXXZ 00000001800177c4 f   LIBCMT:tncleanup.obj
 0001:000167d4       ?__scrt_uninitialize_type_info@@YAXXZ 00000001800177d4 f   LIBCMT:tncleanup.obj
 0001:000167e0       __local_stdio_printf_options 00000001800177e0 f i LIBCMT:default_local_stdio_options.obj
 0001:000167e8       __local_stdio_scanf_options 00000001800177e8 f i LIBCMT:default_local_stdio_options.obj
 0001:000167f0       __scrt_initialize_default_local_stdio_options 00000001800177f0 f   LIBCMT:default_local_stdio_options.obj
 0001:0001680c       __scrt_acquire_startup_lock 000000018001780c f   LIBCMT:utility.obj
 0001:00016848       __scrt_dllmain_after_initialize_c 0000000180017848 f   LIBCMT:utility.obj
 0001:0001687c       __scrt_dllmain_before_initialize_c 000000018001787c f   LIBCMT:utility.obj
 0001:00016894       __scrt_dllmain_crt_thread_attach 0000000180017894 f   LIBCMT:utility.obj
 0001:000168bc       __scrt_dllmain_crt_thread_detach 00000001800178bc f   LIBCMT:utility.obj
 0001:000168d4       __scrt_dllmain_exception_filter 00000001800178d4 f   LIBCMT:utility.obj
 0001:00016934       __scrt_dllmain_uninitialize_c 0000000180017934 f   LIBCMT:utility.obj
 0001:00016964       __scrt_dllmain_uninitialize_critical 0000000180017964 f   LIBCMT:utility.obj
 0001:00016978       __scrt_initialize_crt      0000000180017978 f   LIBCMT:utility.obj
 0001:000169c4       __scrt_initialize_onexit_tables 00000001800179c4 f   LIBCMT:utility.obj
 0001:00016a9c       __scrt_is_nonwritable_in_current_image 0000000180017a9c f   LIBCMT:utility.obj
 0001:00016b38       __scrt_release_startup_lock 0000000180017b38 f   LIBCMT:utility.obj
 0001:00016b5c       __scrt_uninitialize_crt    0000000180017b5c f   LIBCMT:utility.obj
 0001:00016b88       __scrt_get_dyn_tls_init_callback 0000000180017b88 f   LIBCMT:dyn_tls_init.obj
 0001:00016b90       __crt_debugger_hook        0000000180017b90 f   LIBCMT:utility_desktop.obj
 0001:00016b98       __scrt_fastfail            0000000180017b98 f   LIBCMT:utility_desktop.obj
 0001:00016ce4       _RTC_Initialize            0000000180017ce4 f   LIBCMT:_initsect_.obj
 0001:00016d20       _RTC_Terminate             0000000180017d20 f   LIBCMT:_initsect_.obj
 0001:00016d5c       __isa_available_init       0000000180017d5c f   LIBCMT:_cpu_disp_.obj
 0001:00016f18       __scrt_is_ucrt_dll_in_use  0000000180017f18 f   LIBCMT:ucrt_detection.obj
 0001:00016f30       ??$_CallSETranslator@V__FrameHandler3@@@@YAHPEAUEHExceptionRecord@@PEA_KPEAU_CONTEXT@@PEAU_xDISPATCHER_CONTEXT@@PEBU_s_FuncInfo@@K1@Z 0000000180017f30 f i libvcruntime:risctrnsctrl.obj
 0001:00016f84       ?CatchTryBlock@__FrameHandler3@@SAPEBU_s_TryBlockMapEntry@@PEBU_s_FuncInfo@@H@Z 0000000180017f84 f   libvcruntime:risctrnsctrl.obj
 0001:00016fdc       ?ExecutionInCatch@__FrameHandler3@@SA_NPEAU_xDISPATCHER_CONTEXT@@PEBU_s_FuncInfo@@@Z 0000000180017fdc f   libvcruntime:risctrnsctrl.obj
 0001:00017008       ?FrameUnwindToEmptyState@__FrameHandler3@@SAXPEA_KPEAU_xDISPATCHER_CONTEXT@@PEBU_s_FuncInfo@@@Z 0000000180018008 f   libvcruntime:risctrnsctrl.obj
 0001:0001706c       ?GetEstablisherFrame@__FrameHandler3@@SAPEA_KPEA_KPEAU_xDISPATCHER_CONTEXT@@PEBU_s_FuncInfo@@0@Z 000000018001806c f   libvcruntime:risctrnsctrl.obj
 0001:00017138       ?GetRangeOfTrysToCheck@__FrameHandler3@@SA?AU?$pair@Viterator@TryBlockMap@__FrameHandler3@@V123@@std@@AEAVTryBlockMap@1@HH@Z 0000000180018138 f   libvcruntime:risctrnsctrl.obj
 0001:00017294       ?UnwindNestedFrames@__FrameHandler3@@SAXPEA_KPEAUEHExceptionRecord@@PEAU_CONTEXT@@0PEAXPEBU_s_FuncInfo@@HHPEBU_s_HandlerType@@PEAU_xDISPATCHER_CONTEXT@@E@Z 0000000180018294 f   libvcruntime:risctrnsctrl.obj
 0001:000173b8       _CreateFrameInfo           00000001800183b8 f   libvcruntime:risctrnsctrl.obj
 0001:000173f4       _FindAndUnlinkFrame        00000001800183f4 f   libvcruntime:risctrnsctrl.obj
 0001:00017448       _GetImageBase              0000000180018448 f   libvcruntime:risctrnsctrl.obj
 0001:0001745c       _GetThrowImageBase         000000018001845c f   libvcruntime:risctrnsctrl.obj
 0001:00017470       _SetImageBase              0000000180018470 f   libvcruntime:risctrnsctrl.obj
 0001:00017488       _SetThrowImageBase         0000000180018488 f   libvcruntime:risctrnsctrl.obj
 0001:000174a0       __CxxFrameHandler3         00000001800184a0 f   libvcruntime:risctrnsctrl.obj
 0001:00017520       __DestructExceptionObject  0000000180018520 f   libvcruntime:ehhelpers.obj
 0001:00017594       ?_CallMemberFunction0@@YAXQEAX0@Z 0000000180018594 f i libvcruntime:ehhelpers.obj
 0001:00017598       _IsExceptionObjectToBeDestroyed 0000000180018598 f   libvcruntime:ehhelpers.obj
 0001:000175c8       __AdjustPointer            00000001800185c8 f   libvcruntime:ehhelpers.obj
 0001:000175ec       __FrameUnwindFilter        00000001800185ec f   libvcruntime:ehhelpers.obj
 0001:00017638       __std_terminate            0000000180018638 f   libvcruntime:ehhelpers.obj
 0001:00017644       _purecall                  0000000180018644 f   libvcruntime:purevirt.obj
 0001:00017674       __std_exception_copy       0000000180018674 f   libvcruntime:std_exception.obj
 0001:00017704       __std_exception_destroy    0000000180018704 f   libvcruntime:std_exception.obj
 0001:0001772c       _CxxThrowException         000000018001872c f   libvcruntime:throw.obj
 0001:000177ec       __C_specific_handler       00000001800187ec f   libvcruntime:_riscchandler_.obj
 0001:000179f8       __std_type_info_compare    00000001800189f8 f   libvcruntime:std_type_info.obj
 0001:00017a20       __std_type_info_destroy_list 0000000180018a20 f   libvcruntime:std_type_info.obj
 0001:00017a4c       __vcrt_initialize          0000000180018a4c f   libvcruntime:initialization.obj
 0001:00017a80       __vcrt_thread_attach       0000000180018a80 f   libvcruntime:initialization.obj
 0001:00017a94       __vcrt_thread_detach       0000000180018a94 f   libvcruntime:initialization.obj
 0001:00017aa8       __vcrt_uninitialize        0000000180018aa8 f   libvcruntime:initialization.obj
 0001:00017ac8       __vcrt_uninitialize_critical 0000000180018ac8 f   libvcruntime:initialization.obj
 0001:00017af0       memset_repmovs             0000000180018af0 f   libvcruntime:memset.obj
 0001:00017b10       memset                     0000000180018b10 f   libvcruntime:memset.obj
 0001:00017ca0       __vcrt_freefls             0000000180018ca0 f   libvcruntime:per_thread_data.obj
 0001:00017cc0       __vcrt_freeptd             0000000180018cc0 f   libvcruntime:per_thread_data.obj
 0001:00017d10       __vcrt_getptd              0000000180018d10 f   libvcruntime:per_thread_data.obj
 0001:00017d2c       __vcrt_getptd_noexit       0000000180018d2c f   libvcruntime:per_thread_data.obj
 0001:00017df8       __vcrt_initialize_ptd      0000000180018df8 f   libvcruntime:per_thread_data.obj
 0001:00017e4c       __vcrt_uninitialize_ptd    0000000180018e4c f   libvcruntime:per_thread_data.obj
 0001:00017e70       ?GetCurrentState@__FrameHandler3@@SAHPEA_KPEAU_xDISPATCHER_CONTEXT@@PEBU_s_FuncInfo@@@Z 0000000180018e70 f   libvcruntime:ehstate.obj
 0001:00017e98       ?GetUnwindTryBlock@__FrameHandler3@@SAHPEA_KPEAU_xDISPATCHER_CONTEXT@@PEBU_s_FuncInfo@@@Z 0000000180018e98 f   libvcruntime:ehstate.obj
 0001:00017ec4       ?SetState@__FrameHandler3@@SAXPEA_KPEBU_s_FuncInfo@@H@Z 0000000180018ec4 f   libvcruntime:ehstate.obj
 0001:00017ed0       ?SetUnwindTryBlock@__FrameHandler3@@SAXPEA_KPEAU_xDISPATCHER_CONTEXT@@PEBU_s_FuncInfo@@H@Z 0000000180018ed0 f   libvcruntime:ehstate.obj
 0001:00017f0c       ?StateFromControlPc@__FrameHandler3@@SAHPEBU_s_FuncInfo@@PEAU_xDISPATCHER_CONTEXT@@@Z 0000000180018f0c f   libvcruntime:ehstate.obj
 0001:00017f14       ?StateFromIp@__FrameHandler3@@SAHPEBU_s_FuncInfo@@PEAU_xDISPATCHER_CONTEXT@@_K@Z 0000000180018f14 f   libvcruntime:ehstate.obj
 0001:000189a0       ??$TypeMatchHelper@$$CBU_s_HandlerType@@@@YAHPEBU_s_HandlerType@@PEBU_s_CatchableType@@PEBU_s_ThrowInfo@@@Z 00000001800199a0 f i libvcruntime:frame.obj
 0001:00018ae4       ??$__InternalCxxFrameHandler@V__FrameHandler3@@@@YA?AW4_EXCEPTION_DISPOSITION@@PEAUEHExceptionRecord@@PEA_KPEAU_CONTEXT@@PEAU_xDISPATCHER_CONTEXT@@PEBU_s_FuncInfo@@H1E@Z 0000000180019ae4 f i libvcruntime:frame.obj
 0001:00018d2c       ??0bad_exception@std@@QEAA@AEBV01@@Z 0000000180019d2c f i libvcruntime:frame.obj
 0001:00018d6c       ??0bad_exception@std@@QEAA@XZ 0000000180019d6c f i libvcruntime:frame.obj
 0001:00018d8c       ?CxxCallCatchBlock@__FrameHandler3@@SAPEAXPEAU_EXCEPTION_RECORD@@@Z 0000000180019d8c f   libvcruntime:frame.obj
 0001:00019000       ?FrameUnwindToState@__FrameHandler3@@SAXPEA_KPEAU_xDISPATCHER_CONTEXT@@PEBU_s_FuncInfo@@H@Z 000000018001a000 f   libvcruntime:frame.obj
 0001:00019194       ?GetHandlerSearchState@__FrameHandler3@@SAHPEA_KPEAU_xDISPATCHER_CONTEXT@@PEBU_s_FuncInfo@@@Z 000000018001a194 f i libvcruntime:frame.obj
 0001:00019398       ?_CallMemberFunction1@@YAXQEAX00@Z 000000018001a398 f i libvcruntime:frame.obj
 0001:000193a4       ?_CallMemberFunction2@@YAXQEAX00H@Z 000000018001a3a4 f i libvcruntime:frame.obj
 0001:000193b4       __vcrt_initialize_pure_virtual_call_handler 000000018001a3b4 f   libvcruntime:purevirt_data.obj
 0001:000193e0       _NLG_Notify                000000018001a3e0 f   libvcruntime:_notify_.obj
 0001:00019400       __NLG_Dispatch2            000000018001a400 f   libvcruntime:_notify_.obj
 0001:00019410       __NLG_Return2              000000018001a410 f   libvcruntime:_notify_.obj
 0001:00019414       __except_validate_context_record 000000018001a414 f   libvcruntime:jbcxrval.obj
 0001:0001944c       __vcrt_initialize_locks    000000018001a44c f   libvcruntime:locks.obj
 0001:00019494       __vcrt_uninitialize_locks  000000018001a494 f   libvcruntime:locks.obj
 0001:000196a4       __vcrt_FlsAlloc            000000018001a6a4 f   libvcruntime:winapi_downlevel.obj
 0001:000196ec       __vcrt_FlsFree             000000018001a6ec f   libvcruntime:winapi_downlevel.obj
 0001:00019734       __vcrt_FlsGetValue         000000018001a734 f   libvcruntime:winapi_downlevel.obj
 0001:0001977c       __vcrt_FlsSetValue         000000018001a77c f   libvcruntime:winapi_downlevel.obj
 0001:000197d0       __vcrt_InitializeCriticalSectionEx 000000018001a7d0 f   libvcruntime:winapi_downlevel.obj
 0001:00019834       __vcrt_initialize_winapi_thunks 000000018001a834 f   libvcruntime:winapi_downlevel.obj
 0001:00019864       __vcrt_uninitialize_winapi_thunks 000000018001a864 f   libvcruntime:winapi_downlevel.obj
 0001:000198c0       _CallSettingFrame          000000018001a8c0 f   libvcruntime:handlers.obj
 0001:00019910       _CallSettingFrameEncoded   000000018001a910 f   libvcruntime:handlers.obj
 0001:00019970       memcpy_repmovs             000000018001a970 f   libvcruntime:memcpy.obj
 0001:00019990       memcpy                     000000018001a990 f   libvcruntime:memcpy.obj
 0001:00019990       memmove                    000000018001a990 f   libvcruntime:memcpy.obj
 0001:00019dc8       free                       000000018001adc8 f   libucrt:free.obj
 0001:00019ddc       ??$parse_integer@KV?$c_string_character_source@D@__crt_strtox@@@__crt_strtox@@YAKQEAU__crt_locale_pointers@@V?$c_string_character_source@D@0@H_N@Z 000000018001addc f i libucrt:atox.obj
 0001:0001a118       ??$parse_integer@KV?$c_string_character_source@_W@__crt_strtox@@@__crt_strtox@@YAKQEAU__crt_locale_pointers@@V?$c_string_character_source@_W@0@H_N@Z 000000018001b118 f i libucrt:atox.obj
 0001:0001a7cc       ??0_LocaleUpdate@@QEAA@QEAU__crt_locale_pointers@@@Z 000000018001b7cc f i libucrt:atox.obj
 0001:0001a868       ??1_LocaleUpdate@@QEAA@XZ  000000018001b868 f i libucrt:atox.obj
 0001:0001a87c       atoi                       000000018001b87c f   libucrt:atox.obj
 0001:0001a8a8       round                      000000018001b8a8 f   libucrt:round.obj
 0001:0001b2e8       ??$ftprintf@PEAU_iobuf@@PEB_WAEBQEB_WAEBQEB_WAEBI@?$__crt_char_traits@_W@@SAH$$QEAPEAU_iobuf@@$$QEAPEB_WAEBQEB_W2AEBI@Z 000000018001c2e8 f i libucrt:assert.obj
 0001:0001b310       _wassert                   000000018001c310 f   libucrt:assert.obj
 0001:0001b394       fwprintf                   000000018001c394 f i libucrt:assert.obj
 0001:0001b3d8       swprintf                   000000018001c3d8 f i libucrt:assert.obj
 0001:0001b42c       __acrt_call_reportfault    000000018001c42c f   libucrt:invalid_parameter.obj
 0001:0001b588       __acrt_initialize_invalid_parameter_handler 000000018001c588 f   libucrt:invalid_parameter.obj
 0001:0001b590       _invalid_parameter         000000018001c590 f   libucrt:invalid_parameter.obj
 0001:0001b640       _invalid_parameter_noinfo  000000018001c640 f   libucrt:invalid_parameter.obj
 0001:0001b660       _invalid_parameter_noinfo_noreturn 000000018001c660 f   libucrt:invalid_parameter.obj
 0001:0001b690       _invoke_watson             000000018001c690 f   libucrt:invalid_parameter.obj
 0001:0001b6d8       malloc                     000000018001c6d8 f   libucrt:malloc.obj
 0001:0001b6e0       __ascii_stricmp            000000018001c6e0 f   libucrt:stricmp.obj
 0001:0001b720       _stricmp                   000000018001c720 f   libucrt:stricmp.obj
 0001:0001b768       _stricmp_l                 000000018001c768 f   libucrt:stricmp.obj
 0001:0001b81c       __acrt_initialize_new_handler 000000018001c81c f   libucrt:new_handler.obj
 0001:0001b824       _callnewh                  000000018001c824 f   libucrt:new_handler.obj
 0001:0001b854       _query_new_handler         000000018001c854 f   libucrt:new_handler.obj
 0001:0001b888       _initterm                  000000018001c888 f   libucrt:initterm.obj
 0001:0001b8ec       _initterm_e                000000018001c8ec f   libucrt:initterm.obj
 0001:0001b92c       _seh_filter_dll            000000018001c92c f   libucrt:exception_filter.obj
 0001:0001b940       _seh_filter_exe            000000018001c940 f   libucrt:exception_filter.obj
 0001:0001bd38       __acrt_initialize_thread_local_exit_callback 000000018001cd38 f   libucrt:exit.obj
 0001:0001bd40       _cexit                     000000018001cd40 f   libucrt:exit.obj
 0001:0001bd50       _exit                      000000018001cd50 f   libucrt:exit.obj
 0001:0001bd5c       _is_c_termination_complete 000000018001cd5c f   libucrt:exit.obj
 0001:0001bf28       __acrt_allocate_buffer_for_argv 000000018001cf28 f   libucrt:argv_parsing.obj
 0001:0001bf88       _configure_narrow_argv     000000018001cf88 f   libucrt:argv_parsing.obj
 0001:0001c300       __dcrt_uninitialize_environments_nolock 000000018001d300 f   libucrt:environment_initialization.obj
 0001:0001c338       _initialize_narrow_environment 000000018001d338 f   libucrt:environment_initialization.obj
 0001:0001c4c8       _execute_onexit_table      000000018001d4c8 f   libucrt:onexit.obj
 0001:0001c504       _initialize_onexit_table   000000018001d504 f   libucrt:onexit.obj
 0001:0001c57c       __acrt_uninitialize_command_line 000000018001d57c f   libucrt:argv_data.obj
 0001:0001c688       __acrt_initialize          000000018001d688 f   libucrt:initialization.obj
 0001:0001c69c       __acrt_thread_attach       000000018001d69c f   libucrt:initialization.obj
 0001:0001c6b0       __acrt_thread_detach       000000018001d6b0 f   libucrt:initialization.obj
 0001:0001c6c0       __acrt_uninitialize        000000018001d6c0 f   libucrt:initialization.obj
 0001:0001c6f8       __acrt_uninitialize_critical 000000018001d6f8 f   libucrt:initialization.obj
 0001:0001c708       terminate                  000000018001d708 f   libucrt:terminate.obj
 0001:0001c728       abort                      000000018001d728 f   libucrt:abort.obj
 0001:0001c780       strcpy_s                   000000018001d780 f   libucrt:strcpy_s.obj
 0001:0001c7f0       calloc                     000000018001d7f0 f   libucrt:calloc.obj
 0001:0001ca0c       ??$ensure_buffer_is_big_enough@D@formatting_buffer@__crt_stdio_output@@QEAA_N_K@Z 000000018001da0c f i libucrt:output.obj
 0001:0001cab4       ??$ensure_buffer_is_big_enough@_W@formatting_buffer@__crt_stdio_output@@QEAA_N_K@Z 000000018001dab4 f i libucrt:output.obj
 0001:0001cb60       ??$is_wide_character_specifier@_W@__crt_stdio_output@@YA_N_K_WW4length_modifier@0@@Z 000000018001db60 f i libucrt:output.obj
 0001:0001cba0       ??$type_case_integer_parse_into_buffer@I@?$output_processor@_WV?$string_output_adapter@_W@__crt_stdio_output@@V?$standard_base@_WV?$string_output_adapter@_W@__crt_stdio_output@@@2@@__crt_stdio_output@@AEAAXII_N@Z 000000018001dba0 f i libucrt:output.obj
 0001:0001cba0       ??$type_case_integer_parse_into_buffer@I@?$output_processor@_WV?$stream_output_adapter@_W@__crt_stdio_output@@V?$standard_base@_WV?$stream_output_adapter@_W@__crt_stdio_output@@@2@@__crt_stdio_output@@AEAAXII_N@Z 000000018001dba0 f i libucrt:output.obj
 0001:0001cc40       ??$type_case_integer_parse_into_buffer@_K@?$output_processor@_WV?$stream_output_adapter@_W@__crt_stdio_output@@V?$standard_base@_WV?$stream_output_adapter@_W@__crt_stdio_output@@@2@@__crt_stdio_output@@AEAAX_KI_N@Z 000000018001dc40 f i libucrt:output.obj
 0001:0001cc40       ??$type_case_integer_parse_into_buffer@_K@?$output_processor@_WV?$string_output_adapter@_W@__crt_stdio_output@@V?$standard_base@_WV?$string_output_adapter@_W@__crt_stdio_output@@@2@@__crt_stdio_output@@AEAAX_KI_N@Z 000000018001dc40 f i libucrt:output.obj
 0001:0001cce4       ??$write_multiple_characters@V?$stream_output_adapter@_W@__crt_stdio_output@@D@__crt_stdio_output@@YAXAEBV?$stream_output_adapter@_W@0@DHQEAH@Z 000000018001dce4 f i libucrt:output.obj
 0001:0001cd78       ??$write_multiple_characters@V?$string_output_adapter@_W@__crt_stdio_output@@D@__crt_stdio_output@@YAXAEBV?$string_output_adapter@_W@0@DHQEAH@Z 000000018001dd78 f i libucrt:output.obj
 0001:0001cf28       ?crop_zeroes@__crt_stdio_output@@YAXPEADQEAU__crt_locale_pointers@@@Z 000000018001df28 f i libucrt:output.obj
 0001:0001cf94       ?force_decimal_point@__crt_stdio_output@@YAXPEADQEAU__crt_locale_pointers@@@Z 000000018001df94 f i libucrt:output.obj
 0001:0001d004       ?parse_int_from_format_string@?$output_processor@_WV?$string_output_adapter@_W@__crt_stdio_output@@V?$standard_base@_WV?$string_output_adapter@_W@__crt_stdio_output@@@2@@__crt_stdio_output@@AEAA_NQEAH@Z 000000018001e004 f i libucrt:output.obj
 0001:0001d004       ?parse_int_from_format_string@?$output_processor@_WV?$stream_output_adapter@_W@__crt_stdio_output@@V?$standard_base@_WV?$stream_output_adapter@_W@__crt_stdio_output@@@2@@__crt_stdio_output@@AEAA_NQEAH@Z 000000018001e004 f i libucrt:output.obj
 0001:0001d0a8       ?process@?$output_processor@_WV?$stream_output_adapter@_W@__crt_stdio_output@@V?$standard_base@_WV?$stream_output_adapter@_W@__crt_stdio_output@@@2@@__crt_stdio_output@@QEAAHXZ 000000018001e0a8 f i libucrt:output.obj
 0001:0001d300       ?process@?$output_processor@_WV?$string_output_adapter@_W@__crt_stdio_output@@V?$standard_base@_WV?$string_output_adapter@_W@__crt_stdio_output@@@2@@__crt_stdio_output@@QEAAHXZ 000000018001e300 f i libucrt:output.obj
 0001:0001d55c       ?state_case_size@?$output_processor@_WV?$stream_output_adapter@_W@__crt_stdio_output@@V?$standard_base@_WV?$stream_output_adapter@_W@__crt_stdio_output@@@2@@__crt_stdio_output@@AEAA_NXZ 000000018001e55c f i libucrt:output.obj
 0001:0001d6f4       ?state_case_size@?$output_processor@_WV?$string_output_adapter@_W@__crt_stdio_output@@V?$standard_base@_WV?$string_output_adapter@_W@__crt_stdio_output@@@2@@__crt_stdio_output@@AEAA_NXZ 000000018001e6f4 f i libucrt:output.obj
 0001:0001d88c       ?state_case_type@?$output_processor@_WV?$stream_output_adapter@_W@__crt_stdio_output@@V?$standard_base@_WV?$stream_output_adapter@_W@__crt_stdio_output@@@2@@__crt_stdio_output@@AEAA_NXZ 000000018001e88c f i libucrt:output.obj
 0001:0001db78       ?state_case_type@?$output_processor@_WV?$string_output_adapter@_W@__crt_stdio_output@@V?$standard_base@_WV?$string_output_adapter@_W@__crt_stdio_output@@@2@@__crt_stdio_output@@AEAA_NXZ 000000018001eb78 f i libucrt:output.obj
 0001:0001de4c       ?type_case_Z@?$output_processor@_WV?$stream_output_adapter@_W@__crt_stdio_output@@V?$standard_base@_WV?$stream_output_adapter@_W@__crt_stdio_output@@@2@@__crt_stdio_output@@AEAA_NXZ 000000018001ee4c f i libucrt:output.obj
 0001:0001de4c       ?type_case_Z@?$output_processor@_WV?$string_output_adapter@_W@__crt_stdio_output@@V?$standard_base@_WV?$string_output_adapter@_W@__crt_stdio_output@@@2@@__crt_stdio_output@@AEAA_NXZ 000000018001ee4c f i libucrt:output.obj
 0001:0001dec8       ?type_case_a@?$output_processor@_WV?$string_output_adapter@_W@__crt_stdio_output@@V?$standard_base@_WV?$string_output_adapter@_W@__crt_stdio_output@@@2@@__crt_stdio_output@@AEAA_NXZ 000000018001eec8 f i libucrt:output.obj
 0001:0001dec8       ?type_case_a@?$output_processor@_WV?$stream_output_adapter@_W@__crt_stdio_output@@V?$standard_base@_WV?$stream_output_adapter@_W@__crt_stdio_output@@@2@@__crt_stdio_output@@AEAA_NXZ 000000018001eec8 f i libucrt:output.obj
 0001:0001e0a8       ?type_case_c_tchar@?$output_processor@_WV?$string_output_adapter@_W@__crt_stdio_output@@V?$standard_base@_WV?$string_output_adapter@_W@__crt_stdio_output@@@2@@__crt_stdio_output@@AEAA_N_W@Z 000000018001f0a8 f i libucrt:output.obj
 0001:0001e0a8       ?type_case_c_tchar@?$output_processor@_WV?$stream_output_adapter@_W@__crt_stdio_output@@V?$standard_base@_WV?$stream_output_adapter@_W@__crt_stdio_output@@@2@@__crt_stdio_output@@AEAA_N_W@Z 000000018001f0a8 f i libucrt:output.obj
 0001:0001e150       ?type_case_integer@?$output_processor@_WV?$stream_output_adapter@_W@__crt_stdio_output@@V?$standard_base@_WV?$stream_output_adapter@_W@__crt_stdio_output@@@2@@__crt_stdio_output@@AEAA_NI_N@Z 000000018001f150 f i libucrt:output.obj
 0001:0001e150       ?type_case_integer@?$output_processor@_WV?$string_output_adapter@_W@__crt_stdio_output@@V?$standard_base@_WV?$string_output_adapter@_W@__crt_stdio_output@@@2@@__crt_stdio_output@@AEAA_NI_N@Z 000000018001f150 f i libucrt:output.obj
 0001:0001e31c       ?type_case_n@?$output_processor@_WV?$stream_output_adapter@_W@__crt_stdio_output@@V?$standard_base@_WV?$stream_output_adapter@_W@__crt_stdio_output@@@2@@__crt_stdio_output@@AEAA_NXZ 000000018001f31c f i libucrt:output.obj
 0001:0001e31c       ?type_case_n@?$output_processor@_WV?$string_output_adapter@_W@__crt_stdio_output@@V?$standard_base@_WV?$string_output_adapter@_W@__crt_stdio_output@@@2@@__crt_stdio_output@@AEAA_NXZ 000000018001f31c f i libucrt:output.obj
 0001:0001e3f8       ?type_case_s@?$output_processor@_WV?$stream_output_adapter@_W@__crt_stdio_output@@V?$standard_base@_WV?$stream_output_adapter@_W@__crt_stdio_output@@@2@@__crt_stdio_output@@AEAA_NXZ 000000018001f3f8 f i libucrt:output.obj
 0001:0001e3f8       ?type_case_s@?$output_processor@_WV?$string_output_adapter@_W@__crt_stdio_output@@V?$standard_base@_WV?$string_output_adapter@_W@__crt_stdio_output@@@2@@__crt_stdio_output@@AEAA_NXZ 000000018001f3f8 f i libucrt:output.obj
 0001:0001e4bc       ?write_stored_string_tchar@?$output_processor@_WV?$stream_output_adapter@_W@__crt_stdio_output@@V?$standard_base@_WV?$stream_output_adapter@_W@__crt_stdio_output@@@2@@__crt_stdio_output@@AEAA_N_W@Z 000000018001f4bc f i libucrt:output.obj
 0001:0001e5c4       ?write_stored_string_tchar@?$output_processor@_WV?$string_output_adapter@_W@__crt_stdio_output@@V?$standard_base@_WV?$string_output_adapter@_W@__crt_stdio_output@@@2@@__crt_stdio_output@@AEAA_N_W@Z 000000018001f5c4 f i libucrt:output.obj
 0001:0001e6b0       ?write_string@?$string_output_adapter@_W@__crt_stdio_output@@QEBAXQEB_WHQEAHAEAV__crt_deferred_errno_cache@@@Z 000000018001f6b0 f i libucrt:output.obj
 0001:0001e758       ?write_string_impl@?$output_adapter_common@_WV?$stream_output_adapter@_W@__crt_stdio_output@@@__crt_stdio_output@@IEBAXQEB_WHQEAHAEAV__crt_deferred_errno_cache@@@Z 000000018001f758 f i libucrt:output.obj
 0001:0001e85c       __stdio_common_vfwprintf   000000018001f85c f   libucrt:output.obj
 0001:0001e8e8       __stdio_common_vswprintf   000000018001f8e8 f   libucrt:output.obj
 0001:0001e900       strncmp                    000000018001f900 f   libucrt:strncmp.obj
 0001:0001e980       wcsncmp                    000000018001f980 f   libucrt:wcsncmp.obj
 0001:0001e9ac       _free_base                 000000018001f9ac f   libucrt:free_base.obj
 0001:0001e9ec       __acrt_errno_from_os_error 000000018001f9ec f   libucrt:errno.obj
 0001:0001ea34       __acrt_errno_map_os_error  000000018001fa34 f   libucrt:errno.obj
 0001:0001ea84       __doserrno                 000000018001fa84 f   libucrt:errno.obj
 0001:0001eaa4       _errno                     000000018001faa4 f   libucrt:errno.obj
 0001:0001eac4       __pctype_func              000000018001fac4 f   libucrt:ctype.obj
 0001:0001eaf4       iswctype                   000000018001faf4 f   libucrt:iswctype.obj
 0001:0001eb64       _isctype_l                 000000018001fb64 f   libucrt:isctype.obj
 0001:0001eff0       __acrt_freeptd             000000018001fff0 f   libucrt:per_thread_data.obj
 0001:0001f034       __acrt_getptd              0000000180020034 f   libucrt:per_thread_data.obj
 0001:0001f0f8       __acrt_getptd_head         00000001800200f8 f   libucrt:per_thread_data.obj
 0001:0001f1a0       __acrt_getptd_noexit       00000001800201a0 f   libucrt:per_thread_data.obj
 0001:0001f258       __acrt_initialize_ptd      0000000180020258 f   libucrt:per_thread_data.obj
 0001:0001f294       __acrt_uninitialize_ptd    0000000180020294 f   libucrt:per_thread_data.obj
 0001:0001f2b8       __acrt_update_locale_info  00000001800202b8 f   libucrt:locale_update.obj
 0001:0001f2ec       __acrt_update_multibyte_info 00000001800202ec f   libucrt:locale_update.obj
 0001:0001f390       __acrt_set_locale_changed  0000000180020390 f   libucrt:wsetlocale.obj
 0001:0001f39c       __acrt_uninitialize_locale 000000018002039c f   libucrt:wsetlocale.obj
 0001:0001f3cc       _d_int                     00000001800203cc f   libucrt:_test.obj
 0001:0001f4e4       _query_app_type            00000001800204e4 f   libucrt:report_runtime_error.obj
 0001:0001f61c       _itow_s                    000000018002061c f   libucrt:xtoa.obj
 0001:0001f63c       _set_error_mode            000000018002063c f   libucrt:set_error_mode.obj
 0001:0001f67c       wcscat_s                   000000018002067c f   libucrt:wcscat_s.obj
 0001:0001f708       wcscpy_s                   0000000180020708 f   libucrt:wcscpy_s.obj
 0001:0001f780       wcsncat_s                  0000000180020780 f   libucrt:wcsncat_s.obj
 0001:0001f894       __acrt_GetModuleFileNameA  0000000180020894 f   libucrt:getmodulefilenamea.obj
 0001:0001f910       __acrt_show_wide_message_box 0000000180020910 f   libucrt:crtmbox.obj
 0001:0001f9b4       __acrt_initialize_stdio    00000001800209b4 f   libucrt:_file.obj
 0001:0001fad4       __acrt_iob_func            0000000180020ad4 f   libucrt:_file.obj
 0001:0001fae8       __acrt_uninitialize_stdio  0000000180020ae8 f   libucrt:_file.obj
 0001:0001fb44       _lock_file                 0000000180020b44 f   libucrt:_file.obj
 0001:0001fb50       _unlock_file               0000000180020b50 f   libucrt:_file.obj
 0001:0001fd78       __acrt_stdio_flush_nolock  0000000180020d78 f   libucrt:fflush.obj
 0001:0001fdf4       _fflush_nolock             0000000180020df4 f   libucrt:fflush.obj
 0001:0001fe40       _flushall                  0000000180020e40 f   libucrt:fflush.obj
 0001:0001fe48       fflush                     0000000180020e48 f   libucrt:fflush.obj
 0001:0001ffe0       setvbuf                    0000000180020fe0 f   libucrt:setvbuf.obj
 0001:000200c4       __acrt_get_sigabrt_handler 00000001800210c4 f   libucrt:signal.obj
 0001:000200f4       __acrt_initialize_signal_handlers 00000001800210f4 f   libucrt:signal.obj
 0001:00020114       raise                      0000000180021114 f   libucrt:signal.obj
 0001:00020394       _malloc_base               0000000180021394 f   libucrt:malloc_base.obj
 0001:00020444       _tolower_l                 0000000180021444 f   libucrt:tolower_toupper.obj
 0001:00020584       tolower                    0000000180021584 f   libucrt:tolower_toupper.obj
 0001:000205b0       __acrt_initialize_locks    00000001800215b0 f   libucrt:locks.obj
 0001:000205f8       __acrt_lock                00000001800215f8 f   libucrt:locks.obj
 0001:00020614       __acrt_uninitialize_locks  0000000180021614 f   libucrt:locks.obj
 0001:0002064c       __acrt_unlock              000000018002164c f   libucrt:locks.obj
 0001:00020668       __acrt_get_developer_information_policy 0000000180021668 f   libucrt:win_policies.obj
 0001:000206bc       __acrt_get_process_end_policy 00000001800216bc f   libucrt:win_policies.obj
 0001:000206f8       __acrt_get_windowing_model_policy 00000001800216f8 f   libucrt:win_policies.obj
 0001:00020764       _calloc_base               0000000180021764 f   libucrt:calloc_base.obj
 0001:00020d44       __acrt_expand_narrow_argv_wildcards 0000000180021d44 f   libucrt:argv_wildcards.obj
 0001:00021478       __acrt_initialize_multibyte 0000000180022478 f   libucrt:mbctype.obj
 0001:000214d8       __acrt_update_thread_multibyte_data 00000001800224d8 f   libucrt:mbctype.obj
 0001:000214f4       _setmbcp_nolock            00000001800224f4 f   libucrt:mbctype.obj
 0001:00021824       _ismbblead                 0000000180022824 f   libucrt:ismbbyte.obj
 0001:00021838       __acrt_initialize_command_line 0000000180022838 f   libucrt:argv_data.obj
 0001:00021860       __acrt_MultiByteToWideChar 0000000180022860 f   libucrt:multibytetowidechar.obj
 0001:000218bc       __acrt_WideCharToMultiByte 00000001800228bc f   libucrt:widechartomultibyte.obj
 0001:00021954       __dcrt_get_narrow_environment_from_os 0000000180022954 f   libucrt:get_environment_from_os.obj
 0001:00021a58       _recalloc                  0000000180022a58 f   libucrt:recalloc.obj
 0001:00021a60       _recalloc_base             0000000180022a60 f   libucrt:recalloc.obj
 0001:00021cd0       __acrt_AppPolicyGetProcessTerminationMethodInternal 0000000180022cd0 f   libucrt:winapi_thunks.obj
 0001:00021d20       __acrt_AppPolicyGetShowDeveloperDiagnosticInternal 0000000180022d20 f   libucrt:winapi_thunks.obj
 0001:00021d70       __acrt_AppPolicyGetWindowingModelInternal 0000000180022d70 f   libucrt:winapi_thunks.obj
 0001:00021dc0       __acrt_FlsAlloc            0000000180022dc0 f   libucrt:winapi_thunks.obj
 0001:00021e08       __acrt_FlsFree             0000000180022e08 f   libucrt:winapi_thunks.obj
 0001:00021e50       __acrt_FlsGetValue         0000000180022e50 f   libucrt:winapi_thunks.obj
 0001:00021e98       __acrt_FlsSetValue         0000000180022e98 f   libucrt:winapi_thunks.obj
 0001:00021eec       __acrt_InitializeCriticalSectionEx 0000000180022eec f   libucrt:winapi_thunks.obj
 0001:00021f50       __acrt_LCMapStringEx       0000000180022f50 f   libucrt:winapi_thunks.obj
 0001:0002202c       __acrt_LocaleNameToLCID    000000018002302c f   libucrt:winapi_thunks.obj
 0001:0002207c       __acrt_MessageBoxW         000000018002307c f   libucrt:winapi_thunks.obj
 0001:000220f0       __acrt_can_show_message_box 00000001800230f0 f   libucrt:winapi_thunks.obj
 0001:00022160       __acrt_get_parent_window   0000000180023160 f   libucrt:winapi_thunks.obj
 0001:000221dc       __acrt_initialize_winapi_thunks 00000001800231dc f   libucrt:winapi_thunks.obj
 0001:00022224       __acrt_is_interactive      0000000180023224 f   libucrt:winapi_thunks.obj
 0001:000222ec       __acrt_uninitialize_winapi_thunks 00000001800232ec f   libucrt:winapi_thunks.obj
 0001:00022330       __acrt_initialize_heap     0000000180023330 f   libucrt:heap_handle.obj
 0001:0002234c       __acrt_uninitialize_heap   000000018002334c f   libucrt:heap_handle.obj
 0001:00022540       __acrt_initialize_lowio    0000000180023540 f   libucrt:ioinit.obj
 0001:0002257c       __acrt_uninitialize_lowio  000000018002357c f   libucrt:ioinit.obj
 0001:000225bc       __acrt_execute_initializers 00000001800235bc f   libucrt:shared_initialization.obj
 0001:0002263c       __acrt_execute_uninitializers 000000018002363c f   libucrt:shared_initialization.obj
 0001:00022678       __acrt_has_user_matherr    0000000180023678 f   libucrt:matherr.obj
 0001:00022698       __acrt_initialize_user_matherr 0000000180023698 f   libucrt:matherr.obj
 0001:000226a0       __acrt_invoke_user_matherr 00000001800236a0 f   libucrt:matherr.obj
 0001:000226d0       __acrt_stdio_begin_temporary_buffering_nolock 00000001800236d0 f   libucrt:_sftbuf.obj
 0001:000227a0       __acrt_stdio_end_temporary_buffering_nolock 00000001800237a0 f   libucrt:_sftbuf.obj
 0001:000227dc       isdigit                    00000001800237dc f i libucrt:_ctype.obj
 0001:00022854       wcstol                     0000000180023854 f   libucrt:strtox.obj
 0001:00022880       _mbtowc_l                  0000000180023880 f   libucrt:mbtowc.obj
 0001:000229fc       mbtowc                     00000001800239fc f   libucrt:mbtowc.obj
 0001:00022a04       _wctomb_s_l                0000000180023a04 f   libucrt:wctomb.obj
 0001:00022b88       wctomb_s                   0000000180023b88 f   libucrt:wctomb.obj
 0001:00022b9c       wcsnlen                    0000000180023b9c f   libucrt:strnlen.obj
 0001:00023744       __acrt_fp_format           0000000180024744 f   libucrt:cvt.obj
 0001:000239cc       _fputwc_nolock             00000001800249cc f   libucrt:fputwc.obj
 0001:00023b44       _fileno                    0000000180024b44 f   libucrt:fileno.obj
 0001:00023b6c       _fputc_nolock              0000000180024b6c f   libucrt:fputc.obj
 0001:00023b84       _get_printf_count_output   0000000180024b84 f   libucrt:printf_count_output.obj
 0001:00023b9c       __acrt_GetStringTypeW      0000000180024b9c f   libucrt:getstringtypew.obj
 0001:00023ba4       _isleadbyte_l              0000000180024ba4 f i libucrt:_wctype.obj
 0001:00023be4       __acrt_GetStringTypeA      0000000180024be4 f   libucrt:getstringtypea.obj
 0001:00023d74       __acrt_add_locale_ref      0000000180024d74 f   libucrt:locale_refcounting.obj
 0001:00023e00       __acrt_free_locale         0000000180024e00 f   libucrt:locale_refcounting.obj
 0001:00023f78       __acrt_locale_add_lc_time_reference 0000000180024f78 f   libucrt:locale_refcounting.obj
 0001:00023fa0       __acrt_locale_free_lc_time_if_unreferenced 0000000180024fa0 f   libucrt:locale_refcounting.obj
 0001:00023fd8       __acrt_locale_release_lc_time_reference 0000000180024fd8 f   libucrt:locale_refcounting.obj
 0001:00024000       __acrt_release_locale_ref  0000000180025000 f   libucrt:locale_refcounting.obj
 0001:000240a8       __acrt_update_thread_locale_data 00000001800250a8 f   libucrt:locale_refcounting.obj
 0001:00024118       _updatetlocinfoEx_nolock   0000000180025118 f   libucrt:locale_refcounting.obj
 0001:00024180       __acrt_locale_free_monetary 0000000180025180 f   libucrt:initmon.obj
 0001:0002428c       __acrt_locale_free_numeric 000000018002528c f   libucrt:initnum.obj
 0001:0002434c       __acrt_locale_free_time    000000018002534c f   libucrt:inittime.obj
 0001:00024454       __acrt_fenv_get_control    0000000180025454 f   libucrt:_fenvutils.obj
 0001:00024554       __acrt_fenv_get_status     0000000180025554 f   libucrt:_fenvutils.obj
 0001:000245ac       __acrt_fenv_set_control    00000001800255ac f   libucrt:_fenvutils.obj
 0001:000246f4       __acrt_fenv_set_status     00000001800256f4 f   libucrt:_fenvutils.obj
 0001:0002497c       _mbstowcs_l                000000018002597c f   libucrt:mbstowcs.obj
 0001:00024984       mbstowcs                   0000000180025984 f   libucrt:mbstowcs.obj
 0001:000249a0       _fcloseall                 00000001800259a0 f   libucrt:closeall.obj
 0001:00024a54       __acrt_stdio_free_buffer_nolock 0000000180025a54 f   libucrt:_freebuf.obj
 0001:00024b20       _commit                    0000000180025b20 f   libucrt:commit.obj
 0001:0002515c       _write                     000000018002615c f   libucrt:write.obj
 0001:00025248       _write_nolock              0000000180026248 f   libucrt:write.obj
 0001:00025528       _query_new_mode            0000000180026528 f   libucrt:new_mode.obj
 0001:00025848       __acrt_LCMapStringA        0000000180026848 f   libucrt:lcmapstringa.obj
 0001:000258e0       qsort                      00000001800268e0 f   libucrt:qsort.obj
 0001:00025c90       strncpy_s                  0000000180026c90 f   libucrt:strncpy_s.obj
 0001:00025e20       strpbrk                    0000000180026e20 f   libucrt:strpbrk.obj
 0001:00026200       ??$__acrt_convert_wcs_mbs@D_W$$A6A_KPEA_WPEBD_KPEAU__crt_locale_pointers@@@ZU__crt_win32_buffer_internal_dynamic_resizing@@@@YAHQEBDAEAV?$__crt_win32_buffer@_WU__crt_win32_buffer_internal_dynamic_resizing@@@@A6A_KPEA_WPEBD_KPEAU__crt_locale_pointers@@@Z5@Z 0000000180027200 f i libucrt:findfirstfileexa.obj
 0001:00026308       __acrt_FindFirstFileExA    0000000180027308 f   libucrt:findfirstfileexa.obj
 0001:000263ac       ??$__acrt_convert_wcs_mbs@_WD$$A6A_KPEADPEB_W_KPEAU__crt_locale_pointers@@@ZU__crt_win32_buffer_no_resizing@@@@YAHQEB_WAEAV?$__crt_win32_buffer@DU__crt_win32_buffer_no_resizing@@@@A6A_KPEADPEB_W_KPEAU__crt_locale_pointers@@@Z5@Z 00000001800273ac f i libucrt:findnextfilea.obj
 0001:00026478       __acrt_FindNextFileA       0000000180027478 f   libucrt:findnextfilea.obj
 0001:000265ac       _mbsdec                    00000001800275ac f   libucrt:mbsdec.obj
 0001:000265b4       _mbsdec_l                  00000001800275b4 f   libucrt:mbsdec.obj
 0001:00026660       _msize                     0000000180027660 f   libucrt:msize.obj
 0001:00026668       _msize_base                0000000180027668 f   libucrt:msize.obj
 0001:000266a4       _realloc_base              00000001800276a4 f   libucrt:realloc_base.obj
 0001:00026808       __acrt_DownlevelLocaleNameToLCID 0000000180027808 f   libucrt:lcidtoname_downlevel.obj
 0001:0002683c       __acrt_lowio_create_handle_array 000000018002783c f   libucrt:osfinfo.obj
 0001:000268d4       __acrt_lowio_destroy_handle_array 00000001800278d4 f   libucrt:osfinfo.obj
 0001:00026924       __acrt_lowio_ensure_fh_exists 0000000180027924 f   libucrt:osfinfo.obj
 0001:000269cc       __acrt_lowio_lock_fh       00000001800279cc f   libucrt:osfinfo.obj
 0001:000269f0       __acrt_lowio_unlock_fh     00000001800279f0 f   libucrt:osfinfo.obj
 0001:00026a14       _free_osfhnd               0000000180027a14 f   libucrt:osfinfo.obj
 0001:00026ad0       _get_osfhandle             0000000180027ad0 f   libucrt:osfinfo.obj
 0001:00026b48       _isatty                    0000000180027b48 f   libucrt:isatty.obj
 0001:00026ba8       ?__mbrtowc_utf8@__crt_mbstring@@YA_KPEA_WPEBD_KPEAU_Mbstatet@@@Z 0000000180027ba8 f   libucrt:mbrtowc.obj
 0001:00026be4       ?__mbsrtowcs_utf8@__crt_mbstring@@YA_KPEA_WPEAPEBD_KPEAU_Mbstatet@@@Z 0000000180027be4 f   libucrt:mbrtowc.obj
 0001:00026d5c       __acrt_fp_strflt_to_string 0000000180027d5c f   libucrt:_fptostr.obj
 0001:00026e40       ?divide@__crt_strtox@@YA_KAEAUbig_integer@1@AEBU21@@Z 0000000180027e40 f i libucrt:cfout.obj
 0001:000272d0       __acrt_fltout              00000001800282d0 f   libucrt:cfout.obj
 0001:000287f4       __acrt_stdio_flush_and_write_narrow_nolock 00000001800297f4 f   libucrt:_flsbuf.obj
 0001:000288dc       __acrt_stdio_flush_and_write_wide_nolock 00000001800298dc f   libucrt:_flsbuf.obj
 0001:000289c8       _fclose_nolock             00000001800299c8 f   libucrt:fclose.obj
 0001:00028a4c       fclose                     0000000180029a4c f   libucrt:fclose.obj
 0001:00028c3c       _lseeki64                  0000000180029c3c f   libucrt:lseek.obj
 0001:00028c44       _lseeki64_nolock           0000000180029c44 f   libucrt:lseek.obj
 0001:00028c4c       _putwch_nolock             0000000180029c4c f   libucrt:putwch.obj
 0001:00028c88       __strncnt                  0000000180029c88 f   libucrt:strncnt.obj
 0001:00029008       _wcstombs_l                000000018002a008 f   libucrt:wcstombs.obj
 0001:00029010       ?__mbrtoc32_utf8@__crt_mbstring@@YA_KPEA_UPEBD_KPEAU_Mbstatet@@@Z 000000018002a010 f   libucrt:mbrtoc32.obj
 0001:000291ec       fegetenv                   000000018002a1ec f   libucrt:fegetenv.obj
 0001:0002920c       fesetenv                   000000018002a20c f   libucrt:fesetenv.obj
 0001:0002925c       feholdexcept               000000018002a25c f   libucrt:feholdexcept.obj
 0001:000292ac       ceil                       000000018002a2ac f   libucrt:ceil.obj
 0001:00029370       log10                      000000018002a370 f   libucrt:log10.obj
 0001:0002991c       __acrt_stdio_allocate_buffer_nolock 000000018002a91c f   libucrt:_getbuf.obj
 0001:000299f8       _close                     000000018002a9f8 f   libucrt:close.obj
 0001:00029a9c       _close_nolock              000000018002aa9c f   libucrt:close.obj
 0001:00029b58       ?__acrt_stdio_free_stream@@YAXV__crt_stdio_stream@@@Z 000000018002ab58 f   libucrt:stream.obj
 0001:00029b74       __dcrt_lowio_ensure_console_output_initialized 000000018002ab74 f   libucrt:initcon.obj
 0001:00029bc8       __dcrt_terminate_console_output 000000018002abc8 f   libucrt:initcon.obj
 0001:00029be4       __dcrt_write_console       000000018002abe4 f   libucrt:initcon.obj
 0001:00029ca4       ?__wcsrtombs_utf8@__crt_mbstring@@YA_KPEADPEAPEB_W_KPEAU_Mbstatet@@@Z 000000018002aca4 f   libucrt:wcrtomb.obj
 0001:00029dc0       _clearfp                   000000018002adc0 f   libucrt:ieee.obj
 0001:00029f54       _handle_error              000000018002af54 f   libucrt:libm_error.obj
 0001:0002a07c       _handle_nan                000000018002b07c f   libucrt:libm_error.obj
 0001:0002a0a0       __acrt_initialize_fma3     000000018002b0a0 f   libucrt:fma3_available.obj
 0001:0002a110       _log10_special             000000018002b110 f   libucrt:log_special.obj
 0001:0002a1c8       ?__c16rtomb_utf8@__crt_mbstring@@YA_KPEAD_SPEAU_Mbstatet@@@Z 000000018002b1c8 f   libucrt:c16rtomb.obj
 0001:0002a280       _get_fpsr                  000000018002b280 f   libucrt:fpsr.obj
 0001:0002a290       _set_fpsr                  000000018002b290 f   libucrt:fpsr.obj
 0001:0002a29a       _fclrf                     000000018002b29a f   libucrt:fpsr.obj
 0001:0002a2ae       _frnd                      000000018002b2ae f   libucrt:fpsr.obj
 0001:0002a2d0       _raise_exc                 000000018002b2d0 f   libucrt:fpexcept.obj
 0001:0002a2f8       _raise_exc_ex              000000018002b2f8 f   libucrt:fpexcept.obj
 0001:0002a608       _set_errno_from_matherr    000000018002b608 f   libucrt:fpexcept.obj
 0001:0002a638       _clrfp                     000000018002b638 f   libucrt:fpctrl.obj
 0001:0002a658       _ctrlfp                    000000018002b658 f   libucrt:fpctrl.obj
 0001:0002a6d4       _set_statfp                000000018002b6d4 f   libucrt:fpctrl.obj
 0001:0002a6f4       _statfp                    000000018002b6f4 f   libucrt:fpctrl.obj
 0001:0002a708       ?__c32rtomb_utf8@__crt_mbstring@@YA_KPEAD_UPEAU_Mbstatet@@@Z 000000018002b708 f   libucrt:c32rtomb.obj
 0001:0002a7c0       c32rtomb                   000000018002b7c0 f   libucrt:c32rtomb.obj
 0001:0002a7c5       IsProcessorFeaturePresent  000000018002b7c5 f   kernel32:KERNEL32.dll
 0001:0002a7cc       ?DloadAcquireSectionWriteAccess@@YAXXZ 000000018002b7cc f i DelayImp:delayhlp.obj
 0001:0002a878       ?DloadGetSRWLockFunctionPointers@@YAEXZ 000000018002b878 f i DelayImp:delayhlp.obj
 0001:0002a914       ?DloadMakePermanentImageCommit@@YAXPEAX_K@Z 000000018002b914 f i DelayImp:delayhlp.obj
 0001:0002a9ac       ?DloadObtainSection@@YAPEAXPEAK0@Z 000000018002b9ac f i DelayImp:delayhlp.obj
 0001:0002aa48       ?DloadProtectSection@@YAXKPEAK@Z 000000018002ba48 f i DelayImp:delayhlp.obj
 0001:0002aad8       ?DloadReleaseSectionWriteAccess@@YAXXZ 000000018002bad8 f i DelayImp:delayhlp.obj
 0001:0002ab6c       __delayLoadHelper2         000000018002bb6c f   DelayImp:delayhlp.obj
 0001:0002ae2c       __GSHandlerCheck           000000018002be2c f   LIBCMT:_gshandler_.obj
 0001:0002ae4c       __GSHandlerCheckCommon     000000018002be4c f   LIBCMT:_gshandler_.obj
 0001:0002aeb0       _FindPESection             000000018002beb0 f   LIBCMT:pesect.obj
 0001:0002af00       _IsNonwritableInCurrentImage 000000018002bf00 f   LIBCMT:pesect.obj
 0001:0002af50       _ValidateImageBase         000000018002bf50 f   LIBCMT:pesect.obj
 0001:0002af90       _alloca_probe              000000018002bf90 f   LIBCMT:_chkstk_.obj
 0001:0002af90       __chkstk                   000000018002bf90 f   LIBCMT:_chkstk_.obj
 0001:0002afe4       __GSHandlerCheck_EH        000000018002bfe4 f   LIBCMT:gshandlereh.obj
 0001:0002b080       memcmp                     000000018002c080 f   libvcruntime:memcmp.obj
 0001:0002b148       strrchr                    000000018002c148 f   libvcruntime:strrchr.obj
 0001:0002b294       floor                      000000018002c294 f   libucrt:floor.obj
 0001:0002b360       _guard_dispatch_icall_nop  000000018002c360 f   LIBCMT:_guard_dispatch_.obj
 0002:00000000       __imp_GetModuleHandleA     000000018002f000     kernel32:KERNEL32.dll
 0002:00000008       __imp_LoadLibraryExA       000000018002f008     kernel32:KERNEL32.dll
 0002:00000010       __imp_VirtualQuery         000000018002f010     kernel32:KERNEL32.dll
 0002:00000018       __imp_VirtualProtect       000000018002f018     kernel32:KERNEL32.dll
 0002:00000020       __imp_GetSystemInfo        000000018002f020     kernel32:KERNEL32.dll
 0002:00000028       __imp_CreateFileW          000000018002f028     kernel32:KERNEL32.dll
 0002:00000030       __imp_CloseHandle          000000018002f030     kernel32:KERNEL32.dll
 0002:00000038       __imp_SetFilePointerEx     000000018002f038     kernel32:KERNEL32.dll
 0002:00000040       __imp_SetStdHandle         000000018002f040     kernel32:KERNEL32.dll
 0002:00000048       __imp_HeapReAlloc          000000018002f048     kernel32:KERNEL32.dll
 0002:00000050       __imp_HeapSize             000000018002f050     kernel32:KERNEL32.dll
 0002:00000058       __imp_GetConsoleMode       000000018002f058     kernel32:KERNEL32.dll
 0002:00000060       __imp_GetConsoleCP         000000018002f060     kernel32:KERNEL32.dll
 0002:00000068       __imp_FlushFileBuffers     000000018002f068     kernel32:KERNEL32.dll
 0002:00000070       __imp_GetStringTypeW       000000018002f070     kernel32:KERNEL32.dll
 0002:00000078       __imp_GetProcessHeap       000000018002f078     kernel32:KERNEL32.dll
 0002:00000080       __imp_LCMapStringW         000000018002f080     kernel32:KERNEL32.dll
 0002:00000088       __imp_FreeEnvironmentStringsW 000000018002f088     kernel32:KERNEL32.dll
 0002:00000090       __imp_GetEnvironmentStringsW 000000018002f090     kernel32:KERNEL32.dll
 0002:00000098       __imp_WideCharToMultiByte  000000018002f098     kernel32:KERNEL32.dll
 0002:000000a0       __imp_MultiByteToWideChar  000000018002f0a0     kernel32:KERNEL32.dll
 0002:000000a8       __imp_GetCommandLineW      000000018002f0a8     kernel32:KERNEL32.dll
 0002:000000b0       __imp_GetCommandLineA      000000018002f0b0     kernel32:KERNEL32.dll
 0002:000000b8       __imp_GetCPInfo            000000018002f0b8     kernel32:KERNEL32.dll
 0002:000000c0       __imp_GetOEMCP             000000018002f0c0     kernel32:KERNEL32.dll
 0002:000000c8       __imp_GetACP               000000018002f0c8     kernel32:KERNEL32.dll
 0002:000000d0       __imp_IsValidCodePage      000000018002f0d0     kernel32:KERNEL32.dll
 0002:000000d8       __imp_FindNextFileW        000000018002f0d8     kernel32:KERNEL32.dll
 0002:000000e0       __imp_FindFirstFileExW     000000018002f0e0     kernel32:KERNEL32.dll
 0002:000000e8       __imp_FindClose            000000018002f0e8     kernel32:KERNEL32.dll
 0002:000000f0       __imp_HeapAlloc            000000018002f0f0     kernel32:KERNEL32.dll
 0002:000000f8       __imp_OutputDebugStringW   000000018002f0f8     kernel32:KERNEL32.dll
 0002:00000100       __imp_WriteFile            000000018002f100     kernel32:KERNEL32.dll
 0002:00000108       __imp_HeapFree             000000018002f108     kernel32:KERNEL32.dll
 0002:00000110       __imp_ExitProcess          000000018002f110     kernel32:KERNEL32.dll
 0002:00000118       __imp_WriteConsoleW        000000018002f118     kernel32:KERNEL32.dll
 0002:00000120       __imp_GetModuleHandleExW   000000018002f120     kernel32:KERNEL32.dll
 0002:00000128       __imp_GetModuleFileNameW   000000018002f128     kernel32:KERNEL32.dll
 0002:00000130       __imp_GetFileType          000000018002f130     kernel32:KERNEL32.dll
 0002:00000138       __imp_GetStdHandle         000000018002f138     kernel32:KERNEL32.dll
 0002:00000140       __imp_LoadLibraryExW       000000018002f140     kernel32:KERNEL32.dll
 0002:00000148       __imp_GetProcAddress       000000018002f148     kernel32:KERNEL32.dll
 0002:00000150       __imp_FreeLibrary          000000018002f150     kernel32:KERNEL32.dll
 0002:00000158       __imp_TlsFree              000000018002f158     kernel32:KERNEL32.dll
 0002:00000160       __imp_TlsSetValue          000000018002f160     kernel32:KERNEL32.dll
 0002:00000168       __imp_TlsGetValue          000000018002f168     kernel32:KERNEL32.dll
 0002:00000170       __imp_TlsAlloc             000000018002f170     kernel32:KERNEL32.dll
 0002:00000178       __imp_InitializeCriticalSectionAndSpinCount 000000018002f178     kernel32:KERNEL32.dll
 0002:00000180       __imp_DeleteCriticalSection 000000018002f180     kernel32:KERNEL32.dll
 0002:00000188       __imp_LeaveCriticalSection 000000018002f188     kernel32:KERNEL32.dll
 0002:00000190       __imp_EnterCriticalSection 000000018002f190     kernel32:KERNEL32.dll
 0002:00000198       __imp_EncodePointer        000000018002f198     kernel32:KERNEL32.dll
 0002:000001a0       __imp_SetLastError         000000018002f1a0     kernel32:KERNEL32.dll
 0002:000001a8       __imp_GetLastError         000000018002f1a8     kernel32:KERNEL32.dll
 0002:000001b0       __imp_InterlockedFlushSList 000000018002f1b0     kernel32:KERNEL32.dll
 0002:000001b8       __imp_RaiseException       000000018002f1b8     kernel32:KERNEL32.dll
 0002:000001c0       __imp_RtlPcToFileHeader    000000018002f1c0     kernel32:KERNEL32.dll
 0002:000001c8       __imp_RtlUnwindEx          000000018002f1c8     kernel32:KERNEL32.dll
 0002:000001d0       __imp_GetModuleHandleW     000000018002f1d0     kernel32:KERNEL32.dll
 0002:000001d8       __imp_GetStartupInfoW      000000018002f1d8     kernel32:KERNEL32.dll
 0002:000001e0       __imp_IsDebuggerPresent    000000018002f1e0     kernel32:KERNEL32.dll
 0002:000001e8       __imp_InitializeSListHead  000000018002f1e8     kernel32:KERNEL32.dll
 0002:000001f0       __imp_GetSystemTimeAsFileTime 000000018002f1f0     kernel32:KERNEL32.dll
 0002:000001f8       __imp_GetCurrentThreadId   000000018002f1f8     kernel32:KERNEL32.dll
 0002:00000200       __imp_GetCurrentProcessId  000000018002f200     kernel32:KERNEL32.dll
 0002:00000208       __imp_QueryPerformanceCounter 000000018002f208     kernel32:KERNEL32.dll
 0002:00000210       __imp_IsProcessorFeaturePresent 000000018002f210     kernel32:KERNEL32.dll
 0002:00000218       __imp_TerminateProcess     000000018002f218     kernel32:KERNEL32.dll
 0002:00000220       __imp_GetCurrentProcess    000000018002f220     kernel32:KERNEL32.dll
 0002:00000228       __imp_SetUnhandledExceptionFilter 000000018002f228     kernel32:KERNEL32.dll
 0002:00000230       __imp_UnhandledExceptionFilter 000000018002f230     kernel32:KERNEL32.dll
 0002:00000238       __imp_RtlVirtualUnwind     000000018002f238     kernel32:KERNEL32.dll
 0002:00000240       __imp_RtlLookupFunctionEntry 000000018002f240     kernel32:KERNEL32.dll
 0002:00000248       __imp_RtlCaptureContext    000000018002f248     kernel32:KERNEL32.dll
 0002:00000250       \177KERNEL32_NULL_THUNK_DATA 000000018002f250     kernel32:KERNEL32.dll
 0002:00000258       __imp_g_atomic_int_dec_and_test 000000018002f258     libglib-2.0:dhtls00074.o
 0002:00000260       __imp_g_atomic_int_inc     000000018002f260     libglib-2.0:dhtls00077.o
 0002:00000268       __imp_g_free               000000018002f268     libglib-2.0:dhtls00380.o
 0002:00000270       __imp_g_malloc             000000018002f270     libglib-2.0:dhtls00673.o
 0002:00000278       __imp_g_snprintf           000000018002f278     libglib-2.0:dhtls01081.o
 0002:00000280       __imp_g_stat               000000018002f280     libglib-2.0:dhtls01122.o
 0002:00000290       __imp_vips_area_unref      000000018002f290     libvips:dowls00861.o
 0002:00000298       __imp_vips_blob_get_type   000000018002f298     libvips:dowls00930.o
 0002:000002a0       __imp_vips_blob_new        000000018002f2a0     libvips:dowls00931.o
 0002:000002a8       __imp_vips_cache_get_max   000000018002f2a8     libvips:dowls00976.o
 0002:000002b0       __imp_vips_cache_get_max_files 000000018002f2b0     libvips:dowls00977.o
 0002:000002b8       __imp_vips_cache_get_max_mem 000000018002f2b8     libvips:dowls00978.o
 0002:000002c0       __imp_vips_cache_get_size  000000018002f2c0     libvips:dowls00979.o
 0002:000002c8       __imp_vips_cache_set_max   000000018002f2c8     libvips:dowls00987.o
 0002:000002d0       __imp_vips_cache_set_max_files 000000018002f2d0     libvips:dowls00988.o
 0002:000002d8       __imp_vips_cache_set_max_mem 000000018002f2d8     libvips:dowls00989.o
 0002:000002e0       __imp_vips_concurrency_get 000000018002f2e0     libvips:dowls01093.o
 0002:000002e8       __imp_vips_concurrency_set 000000018002f2e8     libvips:dowls01094.o
 0002:000002f0       __imp_vips_enum_from_nick  000000018002f2f0     libvips:dowls01158.o
 0002:000002f8       __imp_vips_enum_nick       000000018002f2f8     libvips:dowls01159.o
 0002:00000300       __imp_vips_error_clear     000000018002f300     libvips:dowls01169.o
 0002:00000308       __imp_vips_foreign_find_load 000000018002f308     libvips:dowls01212.o
 0002:00000310       __imp_vips_foreign_find_load_buffer 000000018002f310     libvips:dowls01213.o
 0002:00000318       __imp_vips_get_tile_size   000000018002f318     libvips:dowls01320.o
 0002:00000320       __imp_vips_image_remove    000000018002f320     libvips:dowls01447.o
 0002:00000328       __imp_vips_init            000000018002f328     libvips:dowls01468.o
 0002:00000330       __imp_vips_interpretation_get_type 000000018002f330     libvips:dowls01488.o
 0002:00000338       __imp_vips_kernel_get_type 000000018002f338     libvips:dowls01505.o
 0002:00000340       __imp_vips_operation_boolean_get_type 000000018002f340     libvips:dowls01643.o
 0002:00000348       __imp_vips_thread_shutdown 000000018002f348     libvips:dowls01862.o
 0002:00000350       __imp_vips_tracked_get_files 000000018002f350     libvips:dowls01878.o
 0002:00000358       __imp_vips_tracked_get_mem 000000018002f358     libvips:dowls01879.o
 0002:00000360       __imp_vips_tracked_get_mem_highwater 000000018002f360     libvips:dowls01880.o
 0002:00000368       __imp_vips_type_find       000000018002f368     libvips:dowls01884.o
 0002:00000370       __imp_vips_vector_isenabled 000000018002f370     libvips:dowls01921.o
 0002:00000378       __imp_vips_vector_set_enabled 000000018002f378     libvips:dowls01925.o
 0002:00000380       __imp_vips_version         000000018002f380     libvips:dowls01931.o
 0002:00000390       __imp_?vipssave@VImage@vips@@QEAAXPEADPEAVVOption@2@@Z 000000018002f390     libvips-cpp:libvips-cpp.dll
 0002:00000398       __imp_?webpload_buffer@VImage@vips@@SA?AV12@PEAU_VipsBlob@@PEAVVOption@2@@Z 000000018002f398     libvips-cpp:libvips-cpp.dll
 0002:000003a0       __imp_?webpload@VImage@vips@@SA?AV12@PEADPEAVVOption@2@@Z 000000018002f3a0     libvips-cpp:libvips-cpp.dll
 0002:000003a8       __imp_?jpegload_buffer@VImage@vips@@SA?AV12@PEAU_VipsBlob@@PEAVVOption@2@@Z 000000018002f3a8     libvips-cpp:libvips-cpp.dll
 0002:000003b0       __imp_?jpegload@VImage@vips@@SA?AV12@PEADPEAVVOption@2@@Z 000000018002f3b0     libvips-cpp:libvips-cpp.dll
 0002:000003b8       __imp_?unpremultiply@VImage@vips@@QEAA?AV12@PEAVVOption@2@@Z 000000018002f3b8     libvips-cpp:libvips-cpp.dll
 0002:000003c0       __imp_?premultiply@VImage@vips@@QEAA?AV12@PEAVVOption@2@@Z 000000018002f3c0     libvips-cpp:libvips-cpp.dll
 0002:000003c8       __imp_?flatten@VImage@vips@@QEAA?AV12@PEAVVOption@2@@Z 000000018002f3c8     libvips-cpp:libvips-cpp.dll
 0002:000003d0       __imp_?rot@VImage@vips@@QEAA?AV12@W4VipsAngle@@PEAVVOption@2@@Z 000000018002f3d0     libvips-cpp:libvips-cpp.dll
 0002:000003d8       __imp_?replicate@VImage@vips@@QEAA?AV12@HHPEAVVOption@2@@Z 000000018002f3d8     libvips-cpp:libvips-cpp.dll
 0002:000003e0       __imp_?flip@VImage@vips@@QEAA?AV12@W4VipsDirection@@PEAVVOption@2@@Z 000000018002f3e0     libvips-cpp:libvips-cpp.dll
 0002:000003e8       __imp_?invert@VImage@vips@@QEAA?AV12@PEAVVOption@2@@Z 000000018002f3e8     libvips-cpp:libvips-cpp.dll
 0002:000003f0       __imp_?new_from_image@VImage@vips@@QEAA?AV12@N@Z 000000018002f3f0     libvips-cpp:libvips-cpp.dll
 0002:000003f8       __imp_?new_matrix@VImage@vips@@SA?AV12@HH@Z 000000018002f3f8     libvips-cpp:libvips-cpp.dll
 0002:00000400       __imp_??0VInterpolate@vips@@QEAA@AEBV01@@Z 000000018002f400     libvips-cpp:libvips-cpp.dll
 0002:00000408       __imp_??1VInterpolate@vips@@QEAA@XZ 000000018002f408     libvips-cpp:libvips-cpp.dll
 0002:00000410       __imp_?write_to_memory@VImage@vips@@QEAAPEAXPEA_K@Z 000000018002f410     libvips-cpp:libvips-cpp.dll
 0002:00000418       __imp_?dE00@VImage@vips@@QEAA?AV12@V12@PEAVVOption@2@@Z 000000018002f418     libvips-cpp:libvips-cpp.dll
 0002:00000420       __imp_?what@VError@vips@@UEBAPEBDXZ 000000018002f420     libvips-cpp:libvips-cpp.dll
 0002:00000428       __imp_?shrinkv@VImage@vips@@QEAA?AV12@HPEAVVOption@2@@Z 000000018002f428     libvips-cpp:libvips-cpp.dll
 0002:00000430       __imp_?colourspace@VImage@vips@@QEAA?AV12@W4VipsInterpretation@@PEAVVOption@2@@Z 000000018002f430     libvips-cpp:libvips-cpp.dll
 0002:00000438       __imp_?hist_entropy@VImage@vips@@QEAANPEAVVOption@2@@Z 000000018002f438     libvips-cpp:libvips-cpp.dll
 0002:00000440       __imp_?conv@VImage@vips@@QEAA?AV12@V12@PEAVVOption@2@@Z 000000018002f440     libvips-cpp:libvips-cpp.dll
 0002:00000448       __imp_?sharpen@VImage@vips@@QEAA?AV12@PEAVVOption@2@@Z 000000018002f448     libvips-cpp:libvips-cpp.dll
 0002:00000450       __imp_?gaussblur@VImage@vips@@QEAA?AV12@NPEAVVOption@2@@Z 000000018002f450     libvips-cpp:libvips-cpp.dll
 0002:00000458       __imp_??AVImage@vips@@QEAA?AV01@H@Z 000000018002f458     libvips-cpp:libvips-cpp.dll
 0002:00000460       __imp_??RVImage@vips@@QEAA?AV?$vector@NV?$allocator@N@std@@@std@@HH@Z 000000018002f460     libvips-cpp:libvips-cpp.dll
 0002:00000468       __imp_??Pvips@@YA?AVVImage@0@V10@N@Z 000000018002f468     libvips-cpp:libvips-cpp.dll
 0002:00000470       __imp_?set@VOption@vips@@QEAAPEAV12@PEBDV?$vector@NV?$allocator@N@std@@@std@@@Z 000000018002f470     libvips-cpp:libvips-cpp.dll
 0002:00000478       __imp_?set@VOption@vips@@QEAAPEAV12@PEBD_N@Z 000000018002f478     libvips-cpp:libvips-cpp.dll
 0002:00000480       __imp_?reduceh@VImage@vips@@QEAA?AV12@NPEAVVOption@2@@Z 000000018002f480     libvips-cpp:libvips-cpp.dll
 0002:00000488       __imp_??Nvips@@YA?AVVImage@0@V10@N@Z 000000018002f488     libvips-cpp:libvips-cpp.dll
 0002:00000490       __imp_??Dvips@@YA?AVVImage@0@V10@N@Z 000000018002f490     libvips-cpp:libvips-cpp.dll
 0002:00000498       __imp_??Dvips@@YA?AVVImage@0@NV10@@Z 000000018002f498     libvips-cpp:libvips-cpp.dll
 0002:000004a0       __imp_??Dvips@@YA?AVVImage@0@V10@0@Z 000000018002f4a0     libvips-cpp:libvips-cpp.dll
 0002:000004a8       __imp_??Hvips@@YA?AVVImage@0@V10@0@Z 000000018002f4a8     libvips-cpp:libvips-cpp.dll
 0002:000004b0       __imp_??Ivips@@YA?AVVImage@0@V10@0@Z 000000018002f4b0     libvips-cpp:libvips-cpp.dll
 0002:000004b8       __imp_?width@VImage@vips@@QEAAHXZ 000000018002f4b8     libvips-cpp:libvips-cpp.dll
 0002:000004c0       __imp_?height@VImage@vips@@QEAAHXZ 000000018002f4c0     libvips-cpp:libvips-cpp.dll
 0002:000004c8       __imp_?pngsave@VImage@vips@@QEAAXPEADPEAVVOption@2@@Z 000000018002f4c8     libvips-cpp:libvips-cpp.dll
 0002:000004d0       __imp_??0VError@vips@@QEAA@V?$basic_string@DU?$char_traits@D@std@@V?$allocator@D@2@@std@@@Z 000000018002f4d0     libvips-cpp:libvips-cpp.dll
 0002:000004d8       __imp_??1VError@vips@@UEAA@XZ 000000018002f4d8     libvips-cpp:libvips-cpp.dll
 0002:000004e0       __imp_??0VImage@vips@@QEAA@XZ 000000018002f4e0     libvips-cpp:libvips-cpp.dll
 0002:000004e8       __imp_?get_image@VImage@vips@@QEAAPEAU_VipsImage@@XZ 000000018002f4e8     libvips-cpp:libvips-cpp.dll
 0002:000004f0       __imp_?bands@VImage@vips@@QEAAHXZ 000000018002f4f0     libvips-cpp:libvips-cpp.dll
 0002:000004f8       __imp_?interpretation@VImage@vips@@QEAA?AW4VipsInterpretation@@XZ 000000018002f4f8     libvips-cpp:libvips-cpp.dll
 0002:00000500       __imp_?xres@VImage@vips@@QEAANXZ 000000018002f500     libvips-cpp:libvips-cpp.dll
 0002:00000508       __imp_?set@VImage@vips@@QEAAXPEBDN@Z 000000018002f508     libvips-cpp:libvips-cpp.dll
 0002:00000510       __imp_?set@VImage@vips@@QEAAXPEBD0@Z 000000018002f510     libvips-cpp:libvips-cpp.dll
 0002:00000518       __imp_?get_typeof@VImage@vips@@QEAA_KPEBD@Z 000000018002f518     libvips-cpp:libvips-cpp.dll
 0002:00000520       __imp_?get_string@VImage@vips@@QEAAPEBDPEBD@Z 000000018002f520     libvips-cpp:libvips-cpp.dll
 0002:00000528       __imp_?option@VImage@vips@@SAPEAVVOption@2@XZ 000000018002f528     libvips-cpp:libvips-cpp.dll
 0002:00000530       __imp_?new_from_memory@VImage@vips@@SA?AV12@PEAX_KHHHW4VipsBandFormat@@@Z 000000018002f530     libvips-cpp:libvips-cpp.dll
 0002:00000538       __imp_??0VError@vips@@QEAA@AEBV01@@Z 000000018002f538     libvips-cpp:libvips-cpp.dll
 0002:00000540       __imp_??1VImage@vips@@QEAA@XZ 000000018002f540     libvips-cpp:libvips-cpp.dll
 0002:00000548       __imp_??0VImage@vips@@QEAA@AEBV01@@Z 000000018002f548     libvips-cpp:libvips-cpp.dll
 0002:00000550       __imp_??4VImage@vips@@QEAAAEAV01@$$QEAV01@@Z 000000018002f550     libvips-cpp:libvips-cpp.dll
 0002:00000558       __imp_?new_from_file@VImage@vips@@SA?AV12@PEBDPEAVVOption@2@@Z 000000018002f558     libvips-cpp:libvips-cpp.dll
 0002:00000560       __imp_?new_from_buffer@VImage@vips@@SA?AV12@PEAX_KPEBDPEAVVOption@2@@Z 000000018002f560     libvips-cpp:libvips-cpp.dll
 0002:00000568       __imp_?set@VOption@vips@@QEAAPEAV12@PEBD0@Z 000000018002f568     libvips-cpp:libvips-cpp.dll
 0002:00000570       __imp_?set@VOption@vips@@QEAAPEAV12@PEBDN@Z 000000018002f570     libvips-cpp:libvips-cpp.dll
 0002:00000578       __imp_?set@VOption@vips@@QEAAPEAV12@PEBDH@Z 000000018002f578     libvips-cpp:libvips-cpp.dll
 0002:00000580       __imp_?gamma@VImage@vips@@QEAA?AV12@PEAVVOption@2@@Z 000000018002f580     libvips-cpp:libvips-cpp.dll
 0002:00000588       __imp_?affine@VImage@vips@@QEAA?AV12@V?$vector@NV?$allocator@N@std@@@std@@PEAVVOption@2@@Z 000000018002f588     libvips-cpp:libvips-cpp.dll
 0002:00000590       __imp_?icc_transform@VImage@vips@@QEAA?AV12@PEADPEAVVOption@2@@Z 000000018002f590     libvips-cpp:libvips-cpp.dll
 0002:00000598       __imp_?set@VOption@vips@@QEAAPEAV12@PEBDVVInterpolate@2@@Z 000000018002f598     libvips-cpp:libvips-cpp.dll
 0002:000005a0       __imp_?new_from_name@VInterpolate@vips@@SA?AV12@PEBDPEAVVOption@2@@Z 000000018002f5a0     libvips-cpp:libvips-cpp.dll
 0002:000005a8       __imp_?format@VImage@vips@@QEAA?AW4VipsBandFormat@@XZ 000000018002f5a8     libvips-cpp:libvips-cpp.dll
 0002:000005b0       __imp_?linear@VImage@vips@@QEAA?AV12@NNPEAVVOption@2@@Z 000000018002f5b0     libvips-cpp:libvips-cpp.dll
 0002:000005b8       __imp_?fliphor@VImage@vips@@QEAA?AV12@PEAVVOption@2@@Z 000000018002f5b8     libvips-cpp:libvips-cpp.dll
 0002:000005c0       __imp_?dzsave@VImage@vips@@QEAAXPEADPEAVVOption@2@@Z 000000018002f5c0     libvips-cpp:libvips-cpp.dll
 0002:000005c8       __imp_?flipver@VImage@vips@@QEAA?AV12@PEAVVOption@2@@Z 000000018002f5c8     libvips-cpp:libvips-cpp.dll
 0002:000005d0       __imp_?pngsave_buffer@VImage@vips@@QEAAPEAU_VipsBlob@@PEAVVOption@2@@Z 000000018002f5d0     libvips-cpp:libvips-cpp.dll
 0002:000005d8       __imp_?jpegsave@VImage@vips@@QEAAXPEADPEAVVOption@2@@Z 000000018002f5d8     libvips-cpp:libvips-cpp.dll
 0002:000005e0       __imp_?jpegsave_buffer@VImage@vips@@QEAAPEAU_VipsBlob@@PEAVVOption@2@@Z 000000018002f5e0     libvips-cpp:libvips-cpp.dll
 0002:000005e8       __imp_?webpsave@VImage@vips@@QEAAXPEADPEAVVOption@2@@Z 000000018002f5e8     libvips-cpp:libvips-cpp.dll
 0002:000005f0       __imp_?rot90@VImage@vips@@QEAA?AV12@PEAVVOption@2@@Z 000000018002f5f0     libvips-cpp:libvips-cpp.dll
 0002:000005f8       __imp_?webpsave_buffer@VImage@vips@@QEAAPEAU_VipsBlob@@PEAVVOption@2@@Z 000000018002f5f8     libvips-cpp:libvips-cpp.dll
 0002:00000600       __imp_?median@VImage@vips@@QEAA?AV12@HPEAVVOption@2@@Z 000000018002f600     libvips-cpp:libvips-cpp.dll
 0002:00000608       __imp_??0VImage@vips@@QEAA@$$QEAV01@@Z 000000018002f608     libvips-cpp:libvips-cpp.dll
 0002:00000610       __imp_??Gvips@@YA?AVVImage@0@V10@V?$vector@NV?$allocator@N@std@@@std@@@Z 000000018002f610     libvips-cpp:libvips-cpp.dll
 0002:00000618       __imp_??Kvips@@YA?AVVImage@0@V10@N@Z 000000018002f618     libvips-cpp:libvips-cpp.dll
 0002:00000620       __imp_?new_matrixv@VImage@vips@@SA?AV12@HHZZ 000000018002f620     libvips-cpp:libvips-cpp.dll
 0002:00000628       __imp_?boolean@VImage@vips@@QEAA?AV12@V12@W4VipsOperationBoolean@@PEAVVOption@2@@Z 000000018002f628     libvips-cpp:libvips-cpp.dll
 0002:00000630       __imp_?tiffsave@VImage@vips@@QEAAXPEADPEAVVOption@2@@Z 000000018002f630     libvips-cpp:libvips-cpp.dll
 0002:00000638       __imp_?abs@VImage@vips@@QEAA?AV12@PEAVVOption@2@@Z 000000018002f638     libvips-cpp:libvips-cpp.dll
 0002:00000640       __imp_?get_blob@VImage@vips@@QEAAPEBXPEBDPEA_K@Z 000000018002f640     libvips-cpp:libvips-cpp.dll
 0002:00000648       __imp_?min@VImage@vips@@QEAANPEAVVOption@2@@Z 000000018002f648     libvips-cpp:libvips-cpp.dll
 0002:00000650       __imp_?max@VImage@vips@@QEAANPEAVVOption@2@@Z 000000018002f650     libvips-cpp:libvips-cpp.dll
 0002:00000658       __imp_?stats@VImage@vips@@QEAA?AV12@PEAVVOption@2@@Z 000000018002f658     libvips-cpp:libvips-cpp.dll
 0002:00000660       __imp_?hist_find@VImage@vips@@QEAA?AV12@PEAVVOption@2@@Z 000000018002f660     libvips-cpp:libvips-cpp.dll
 0002:00000668       __imp_?project@VImage@vips@@QEAA?AV12@PEAV12@PEAVVOption@2@@Z 000000018002f668     libvips-cpp:libvips-cpp.dll
 0002:00000670       __imp_?profile@VImage@vips@@QEAA?AV12@PEAV12@PEAVVOption@2@@Z 000000018002f670     libvips-cpp:libvips-cpp.dll
 0002:00000678       __imp_?copy@VImage@vips@@QEAA?AV12@PEAVVOption@2@@Z 000000018002f678     libvips-cpp:libvips-cpp.dll
 0002:00000680       __imp_?shrinkh@VImage@vips@@QEAA?AV12@HPEAVVOption@2@@Z 000000018002f680     libvips-cpp:libvips-cpp.dll
 0002:00000688       __imp_?tilecache@VImage@vips@@QEAA?AV12@PEAVVOption@2@@Z 000000018002f688     libvips-cpp:libvips-cpp.dll
 0002:00000690       __imp_?embed@VImage@vips@@QEAA?AV12@HHHHPEAVVOption@2@@Z 000000018002f690     libvips-cpp:libvips-cpp.dll
 0002:00000698       __imp_?extract_area@VImage@vips@@QEAA?AV12@HHHHPEAVVOption@2@@Z 000000018002f698     libvips-cpp:libvips-cpp.dll
 0002:000006a0       __imp_?extract_band@VImage@vips@@QEAA?AV12@HPEAVVOption@2@@Z 000000018002f6a0     libvips-cpp:libvips-cpp.dll
 0002:000006a8       __imp_?bandjoin@VImage@vips@@QEAA?AV12@V12@PEAVVOption@2@@Z 000000018002f6a8     libvips-cpp:libvips-cpp.dll
 0002:000006b0       __imp_?bandbool@VImage@vips@@QEAA?AV12@W4VipsOperationBoolean@@PEAVVOption@2@@Z 000000018002f6b0     libvips-cpp:libvips-cpp.dll
 0002:000006b8       __imp_??Ovips@@YA?AVVImage@0@V10@N@Z 000000018002f6b8     libvips-cpp:libvips-cpp.dll
 0002:000006c0       __imp_?cast@VImage@vips@@QEAA?AV12@W4VipsBandFormat@@PEAVVOption@2@@Z 000000018002f6c0     libvips-cpp:libvips-cpp.dll
 0002:000006c8       __imp_?reducev@VImage@vips@@QEAA?AV12@NPEAVVOption@2@@Z 000000018002f6c8     libvips-cpp:libvips-cpp.dll
 0002:000006d0       \177libvips-cpp_NULL_THUNK_DATA 000000018002f6d0     libvips-cpp:libvips-cpp.dll
 0002:000006d8       __guard_check_icall_fptr   000000018002f6d8     LIBCMT:guard_support.obj
 0002:000006e0       __guard_dispatch_icall_fptr 000000018002f6e0     LIBCMT:guard_support.obj
 0002:000006e8       __xc_a                     000000018002f6e8     LIBCMT:initializers.obj
 0002:000006f0       _register_sharp_           000000018002f6f0     sharp.obj
 0002:000006f8       __xc_z                     000000018002f6f8     LIBCMT:initializers.obj
 0002:00000700       __xi_a                     000000018002f700     LIBCMT:initializers.obj
 0002:00000708       __acrt_stdio_initializer   000000018002f708     libucrt:stdio_initializer.obj
 0002:00000710       __acrt_multibyte_initializer 000000018002f710     libucrt:multibyte_initializer.obj
 0002:00000718       __acrt_tran_fma3_initializer 000000018002f718     libucrt:fma3_initializer.obj
 0002:00000720       __xi_z                     000000018002f720     LIBCMT:initializers.obj
 0002:00000728       __xp_a                     000000018002f728     LIBCMT:initializers.obj
 0002:00000730       __acrt_locale_terminator   000000018002f730     libucrt:locale_initializer.obj
 0002:00000738       __dcrt_console_output_terminator 000000018002f738     libucrt:console_output_initializer.obj
 0002:00000740       __acrt_stdio_terminator    000000018002f740     libucrt:stdio_initializer.obj
 0002:00000748       __xp_z                     000000018002f748     LIBCMT:initializers.obj
 0002:00000750       __xt_a                     000000018002f750     LIBCMT:initializers.obj
 0002:00000758       __xt_z                     000000018002f758     LIBCMT:initializers.obj
 0002:00000760       __sz_node_exe              000000018002f760     node:node.exe
 0002:00000778       ??_7exception@std@@6B@     000000018002f778     libcpmt:xthrow.obj
 0002:00000788       ??_C@_0BC@EOODALEL@Unknown?5exception@ 000000018002f788     libcpmt:xthrow.obj
 0002:000007a8       ??_7bad_alloc@std@@6B@     000000018002f7a8     libcpmt:xthrow.obj
 0002:000007b8       ??_C@_0P@GHFPNOJB@bad?5allocation@ 000000018002f7b8     libcpmt:xthrow.obj
 0002:000007d0       ??_7logic_error@std@@6B@   000000018002f7d0     libcpmt:xthrow.obj
 0002:000007e8       ??_7length_error@std@@6B@  000000018002f7e8     libcpmt:xthrow.obj
 0002:00000800       ??_7out_of_range@std@@6B@  000000018002f800     libcpmt:xthrow.obj
 0002:00000818       ??_7bad_function_call@std@@6B@ 000000018002f818     libcpmt:xthrow.obj
 0002:00000828       ??_C@_0BC@DPJNKNAF@bad?5function?5call@ 000000018002f828     libcpmt:xthrow.obj
 0002:00000848       ??_7type_info@@6B@         000000018002f848     LIBCMT:std_type_info_static.obj
 0002:00000850       _pRawDllMain               000000018002f850     LIBCMT:dll_dllmain.obj
 0002:00000850       _pDefaultRawDllMain        000000018002f850     LIBCMT:dll_dllmain.obj
 0002:00000870       ??_7bad_array_new_length@std@@6B@ 000000018002f870     LIBCMT:throw_bad_alloc.obj
 0002:00000880       ??_C@_0BF@KINCDENJ@bad?5array?5new?5length@ 000000018002f880     LIBCMT:throw_bad_alloc.obj
 0002:00000938       _pDestructExceptionObject  000000018002f938     libvcruntime:ehhelpers.obj
 0002:00000988       ??_7bad_exception@std@@6B@ 000000018002f988     libvcruntime:frame.obj
 0002:00000998       ??_C@_0O@DPKOEFFH@bad?5exception@ 000000018002f998     libvcruntime:frame.obj
 0002:00000ce8       ??_C@_08EHJDFFNH@__based?$CI@ 000000018002fce8     libvcruntime:undname.obj
 0002:00000cf8       ??_C@_07KOLFKCDI@__cdecl@  000000018002fcf8     libvcruntime:undname.obj
 0002:00000d00       ??_C@_08GHMPAG@__pascal@   000000018002fd00     libvcruntime:undname.obj
 0002:00000d10       ??_C@_09IFJBGAPI@__stdcall@ 000000018002fd10     libvcruntime:undname.obj
 0002:00000d20       ??_C@_0L@NPHFGOKO@__thiscall@ 000000018002fd20     libvcruntime:undname.obj
 0002:00000d30       ??_C@_0L@JMKHOMEK@__fastcall@ 000000018002fd30     libvcruntime:undname.obj
 0002:00000d40       ??_C@_0N@BCKKPABJ@__vectorcall@ 000000018002fd40     libvcruntime:undname.obj
 0002:00000d50       ??_C@_09HIJEGCPM@__clrcall@ 000000018002fd50     libvcruntime:undname.obj
 0002:00000d5c       ??_C@_06GHPCKEAG@__eabi@   000000018002fd5c     libvcruntime:undname.obj
 0002:00000d68       ??_C@_09IOPIDJLG@__swift_1@ 000000018002fd68     libvcruntime:undname.obj
 0002:00000d78       ??_C@_09KFNFGKHF@__swift_2@ 000000018002fd78     libvcruntime:undname.obj
 0002:00000d88       ??_C@_07JOMMBBKO@__ptr64@  000000018002fd88     libvcruntime:undname.obj
 0002:00000d90       ??_C@_0L@PILCLIHE@__restrict@ 000000018002fd90     libvcruntime:undname.obj
 0002:00000da0       ??_C@_0M@GFIIJFMG@__unaligned@ 000000018002fda0     libvcruntime:undname.obj
 0002:00000db0       ??_C@_09DHDLOLLB@restrict?$CI@ 000000018002fdb0     libvcruntime:undname.obj
 0002:00000dbc       ??_C@_04NIHEBCM@?5new@     000000018002fdbc     libvcruntime:undname.obj
 0002:00000dc8       ??_C@_07FPCDHGMM@?5delete@ 000000018002fdc8     libvcruntime:undname.obj
 0002:00000dd0       ??_C@_01NEMOKFLO@?$DN@     000000018002fdd0     libvcruntime:undname.obj
 0002:00000dd4       ??_C@_02GPIOPFAK@?$DO?$DO@ 000000018002fdd4     libvcruntime:undname.obj
 0002:00000dd8       ??_C@_02FODMEDOG@?$DM?$DM@ 000000018002fdd8     libvcruntime:undname.obj
 0002:00000ddc       ??_C@_01DCLJPIOD@?$CB@     000000018002fddc     libvcruntime:undname.obj
 0002:00000de0       ??_C@_02EGOFBIJA@?$DN?$DN@ 000000018002fde0     libvcruntime:undname.obj
 0002:00000de4       ??_C@_02FDNJECIE@?$CB?$DN@ 000000018002fde4     libvcruntime:undname.obj
 0002:00000de8       ??_C@_02GPECMEKF@?$FL?$FN@ 000000018002fde8     libvcruntime:undname.obj
 0002:00000df0       ??_C@_08LHJFAFGD@operator@ 000000018002fdf0     libvcruntime:undname.obj
 0002:00000dfc       ??_C@_02HBOOOICD@?9?$DO@   000000018002fdfc     libvcruntime:undname.obj
 0002:00000e00       ??_C@_01NBENCBCI@?$CK@     000000018002fe00     libvcruntime:undname.obj
 0002:00000e04       ??_C@_02ECNGHCIF@?$CL?$CL@ 000000018002fe04     libvcruntime:undname.obj
 0002:00000e08       ??_C@_02BAABKJLB@?9?9@     000000018002fe08     libvcruntime:undname.obj
 0002:00000e0c       ??_C@_01JOAMLHOP@?9@       000000018002fe0c     libvcruntime:undname.obj
 0002:00000e10       ??_C@_01MIFGBAGJ@?$CL@     000000018002fe10     libvcruntime:undname.obj
 0002:00000e14       ??_C@_01HNPIGOCE@?$CG@     000000018002fe14     libvcruntime:undname.obj
 0002:00000e18       ??_C@_03MNHNFDLC@?9?$DO?$CK@ 000000018002fe18     libvcruntime:undname.obj
 0002:00000e1c       ??_C@_01KMDKNFGN@?1@       000000018002fe1c     libvcruntime:undname.obj
 0002:00000e20       ??_C@_01FGNFDNOH@?$CF@     000000018002fe20     libvcruntime:undname.obj
 0002:00000e24       ??_C@_01MNNFJEPP@?$DM@     000000018002fe24     libvcruntime:undname.obj
 0002:00000e28       ??_C@_02EHCHHCKH@?$DM?$DN@ 000000018002fe28     libvcruntime:undname.obj
 0002:00000e2c       ??_C@_01PPODPGHN@?$DO@     000000018002fe2c     libvcruntime:undname.obj
 0002:00000e30       ??_C@_02EEKDKGMJ@?$DO?$DN@ 000000018002fe30     libvcruntime:undname.obj
 0002:00000e34       ??_C@_01IHBHIGKO@?0@       000000018002fe34     libvcruntime:undname.obj
 0002:00000e38       ??_C@_02HCKGKOFO@?$CI?$CJ@ 000000018002fe38     libvcruntime:undname.obj
 0002:00000e3c       ??_C@_01PJKLJHI@?$HO@      000000018002fe3c     libvcruntime:undname.obj
 0002:00000e40       ??_C@_01JKBOJNNK@?$FO@     000000018002fe40     libvcruntime:undname.obj
 0002:00000e44       ??_C@_01DNKMNLPK@?$HM@     000000018002fe44     libvcruntime:undname.obj
 0002:00000e48       ??_C@_02PPKAJPJL@?$CG?$CG@ 000000018002fe48     libvcruntime:undname.obj
 0002:00000e4c       ??_C@_02NONPIBCD@?$HM?$HM@ 000000018002fe4c     libvcruntime:undname.obj
 0002:00000e50       ??_C@_02FPIMKNGF@?$CK?$DN@ 000000018002fe50     libvcruntime:undname.obj
 0002:00000e54       ??_C@_02FOEOMHFC@?$CL?$DN@ 000000018002fe54     libvcruntime:undname.obj
 0002:00000e58       ??_C@_02FKMDLLOA@?9?$DN@   000000018002fe58     libvcruntime:undname.obj
 0002:00000e5c       ??_C@_02FJEHGPIO@?1?$DN@   000000018002fe5c     libvcruntime:undname.obj
 0002:00000e60       ??_C@_02FENAOKFI@?$CF?$DN@ 000000018002fe60     libvcruntime:undname.obj
 0002:00000e64       ??_C@_03IKFCCPFF@?$DO?$DO?$DN@ 000000018002fe64     libvcruntime:undname.obj
 0002:00000e68       ??_C@_03CDNPDDLA@?$DM?$DM?$DN@ 000000018002fe68     libvcruntime:undname.obj
 0002:00000e6c       ??_C@_02FGJGFEAB@?$CG?$DN@ 000000018002fe6c     libvcruntime:undname.obj
 0002:00000e70       ??_C@_02DHLNPPGH@?$HM?$DN@ 000000018002fe70     libvcruntime:undname.obj
 0002:00000e74       ??_C@_02MHEGNOJ@?$FO?$DN@  000000018002fe74     libvcruntime:undname.obj
 0002:00000e78       ??_C@_09IFPLHPGF@?$GAvftable?8@ 000000018002fe78     libvcruntime:undname.obj
 0002:00000e88       ??_C@_09BLBHBJP@?$GAvbtable?8@ 000000018002fe88     libvcruntime:undname.obj
 0002:00000e98       ??_C@_07FEEIOKP@?$GAvcall?8@ 000000018002fe98     libvcruntime:undname.obj
 0002:00000ea0       ??_C@_08LLFFHHDJ@?$GAtypeof?8@ 000000018002fea0     libvcruntime:undname.obj
 0002:00000eb0       ??_C@_0BF@KDPPACIK@?$GAlocal?5static?5guard?8@ 000000018002feb0     libvcruntime:undname.obj
 0002:00000ec8       ??_C@_08OBABFOLI@?$GAstring?8@ 000000018002fec8     libvcruntime:undname.obj
 0002:00000ed8       ??_C@_0BD@JDLKDPAB@?$GAvbase?5destructor?8@ 000000018002fed8     libvcruntime:undname.obj
 0002:00000ef0       ??_C@_0BN@DEGPLNFK@?$GAvector?5deleting?5destructor?8@ 000000018002fef0     libvcruntime:undname.obj
 0002:00000f10       ??_C@_0BO@OBMKPJIG@?$GAdefault?5constructor?5closure?8@ 000000018002ff10     libvcruntime:undname.obj
 0002:00000f30       ??_C@_0BN@IMDCHIKM@?$GAscalar?5deleting?5destructor?8@ 000000018002ff30     libvcruntime:undname.obj
 0002:00000f50       ??_C@_0BO@PFGOCPJJ@?$GAvector?5constructor?5iterator?8@ 000000018002ff50     libvcruntime:undname.obj
 0002:00000f70       ??_C@_0BN@LFPFMEDL@?$GAvector?5destructor?5iterator?8@ 000000018002ff70     libvcruntime:undname.obj
 0002:00000f90       ??_C@_0CE@IKBNEHA@?$GAvector?5vbase?5constructor?5itera@ 000000018002ff90     libvcruntime:undname.obj
 0002:00000fb8       ??_C@_0BL@NILFHHPC@?$GAvirtual?5displacement?5map?8@ 000000018002ffb8     libvcruntime:undname.obj
 0002:00000fd8       ??_C@_0CB@JONCMFFK@?$GAeh?5vector?5constructor?5iterator@ 000000018002ffd8     libvcruntime:undname.obj
 0002:00001000       ??_C@_0CA@GCEOPDGL@?$GAeh?5vector?5destructor?5iterator?8@ 0000000180030000     libvcruntime:undname.obj
 0002:00001020       ??_C@_0CH@OOJPLCPH@?$GAeh?5vector?5vbase?5constructor?5it@ 0000000180030020     libvcruntime:undname.obj
 0002:00001048       ??_C@_0BL@LLKPOHJI@?$GAcopy?5constructor?5closure?8@ 0000000180030048     libvcruntime:undname.obj
 0002:00001068       ??_C@_0BA@KBCDOMBN@?$GAudt?5returning?8@ 0000000180030068     libvcruntime:undname.obj
 0002:00001078       ??_C@_03KLGMFNMG@?$GAEH@   0000000180030078     libvcruntime:undname.obj
 0002:0000107c       ??_C@_05KHLCHHI@?$GARTTI@  000000018003007c     libvcruntime:undname.obj
 0002:00001088       ??_C@_0BA@KKLDJDLB@?$GAlocal?5vftable?8@ 0000000180030088     libvcruntime:undname.obj
 0002:00001098       ??_C@_0CE@IIHCMGGL@?$GAlocal?5vftable?5constructor?5clos@ 0000000180030098     libvcruntime:undname.obj
 0002:000010bc       ??_C@_06FHBGPFGH@?5new?$FL?$FN@ 00000001800300bc     libvcruntime:undname.obj
 0002:000010c8       ??_C@_09LBNFPBCA@?5delete?$FL?$FN@ 00000001800300c8     libvcruntime:undname.obj
 0002:000010d8       ??_C@_0P@HJKNJFNN@?$GAomni?5callsig?8@ 00000001800300d8     libvcruntime:undname.obj
 0002:000010e8       ??_C@_0BL@CNOONJFP@?$GAplacement?5delete?5closure?8@ 00000001800300e8     libvcruntime:undname.obj
 0002:00001108       ??_C@_0BN@CKNJLHMB@?$GAplacement?5delete?$FL?$FN?5closure?8@ 0000000180030108     libvcruntime:undname.obj
 0002:00001128       ??_C@_0CG@CFDHKGGD@?$GAmanaged?5vector?5constructor?5ite@ 0000000180030128     libvcruntime:undname.obj
 0002:00001150       ??_C@_0CF@IMGKMJNO@?$GAmanaged?5vector?5destructor?5iter@ 0000000180030150     libvcruntime:undname.obj
 0002:00001178       ??_C@_0CG@HLDDJMAG@?$GAeh?5vector?5copy?5constructor?5ite@ 0000000180030178     libvcruntime:undname.obj
 0002:000011a0       ??_C@_0CM@FCBBDIGB@?$GAeh?5vector?5vbase?5copy?5construct@ 00000001800301a0     libvcruntime:undname.obj
 0002:000011d0       ??_C@_0BL@CLIPGLGB@?$GAdynamic?5initializer?5for?5?8@ 00000001800301d0     libvcruntime:undname.obj
 0002:000011f0       ??_C@_0CB@PDBIFEP@?$GAdynamic?5atexit?5destructor?5for?5@ 00000001800301f0     libvcruntime:undname.obj
 0002:00001218       ??_C@_0CD@CGAJBKEJ@?$GAvector?5copy?5constructor?5iterat@ 0000000180030218     libvcruntime:undname.obj
 0002:00001240       ??_C@_0CJ@GJELGAMM@?$GAvector?5vbase?5copy?5constructor?5@ 0000000180030240     libvcruntime:undname.obj
 0002:00001270       ??_C@_0CL@FGIJHLCE@?$GAmanaged?5vector?5copy?5constructo@ 0000000180030270     libvcruntime:undname.obj
 0002:000012a0       ??_C@_0BM@PMGGMLDN@?$GAlocal?5static?5thread?5guard?8@ 00000001800302a0     libvcruntime:undname.obj
 0002:000012c0       ??_C@_0N@BDNMDMOL@operator?5?$CC?$CC?5@ 00000001800302c0     libvcruntime:undname.obj
 0002:000012d0       ??_C@_0BC@GGEBGALA@operator?5co_await@ 00000001800302d0     libvcruntime:undname.obj
 0002:000012e8       ??_C@_0BC@DAFEJGAK@?5Type?5Descriptor?8@ 00000001800302e8     libvcruntime:undname.obj
 0002:00001300       ??_C@_0BM@LDKODKLH@?5Base?5Class?5Descriptor?5at?5?$CI@ 0000000180030300     libvcruntime:undname.obj
 0002:00001320       ??_C@_0BD@LGICGFMM@?5Base?5Class?5Array?8@ 0000000180030320     libvcruntime:undname.obj
 0002:00001338       ??_C@_0BN@MECKDCOJ@?5Class?5Hierarchy?5Descriptor?8@ 0000000180030338     libvcruntime:undname.obj
 0002:00001358       ??_C@_0BK@CFCOFLF@?5Complete?5Object?5Locator?8@ 0000000180030358     libvcruntime:undname.obj
 0002:00001390       ??_C@_1DM@KHCHBNEB@?$AAa?$AAp?$AAi?$AA?9?$AAm?$AAs?$AA?9?$AAw?$AAi?$AAn?$AA?9?$AAc?$AAo?$AAr?$AAe@ 0000000180030390     libvcruntime:winapi_downlevel.obj
 0002:000013d0       ??_C@_1DK@LPPGFMPP@?$AAa?$AAp?$AAi?$AA?9?$AAm?$AAs?$AA?9?$AAw?$AAi?$AAn?$AA?9?$AAc?$AAo?$AAr?$AAe@ 00000001800303d0     libvcruntime:winapi_downlevel.obj
 0002:00001410       ??_C@_1BC@GDMECMAK@?$AAk?$AAe?$AAr?$AAn?$AAe?$AAl?$AA3?$AA2@ 0000000180030410     libvcruntime:winapi_downlevel.obj
 0002:00001428       ??_C@_1BA@PFFKHIOG@?$AAa?$AAp?$AAi?$AA?9?$AAm?$AAs?$AA?9@ 0000000180030428     libvcruntime:winapi_downlevel.obj
 0002:00001438       ??_C@_1BA@IAIFMGEF@?$AAe?$AAx?$AAt?$AA?9?$AAm?$AAs?$AA?9@ 0000000180030438     libvcruntime:winapi_downlevel.obj
 0002:00001450       ??_C@_08KNHFBNJ@FlsAlloc@  0000000180030450     libvcruntime:winapi_downlevel.obj
 0002:00001468       ??_C@_07PEJMOBNF@FlsFree@  0000000180030468     libvcruntime:winapi_downlevel.obj
 0002:00001478       ??_C@_0M@GDNOONDI@FlsGetValue@ 0000000180030478     libvcruntime:winapi_downlevel.obj
 0002:00001490       ??_C@_0M@JCPCPOEF@FlsSetValue@ 0000000180030490     libvcruntime:winapi_downlevel.obj
 0002:000014a8       ??_C@_0BM@HCFOFFN@InitializeCriticalSectionEx@ 00000001800304a8     libvcruntime:winapi_downlevel.obj
 0002:000014d0       ??_C@_1FE@LHBLIKM@?$AAA?$AAs?$AAs?$AAe?$AAr?$AAt?$AAi?$AAo?$AAn?$AA?5?$AAf?$AAa?$AAi?$AAl?$AAe?$AAd?$AA?3?$AA?5?$AA?$CF?$AAT?$AAs?$AA?0?$AA?5?$AAf?$AAi?$AAl?$AAe?$AA?5?$AA?$CF?$AAT?$AAs?$AA?0@ 00000001800304d0     libucrt:assert.obj
 0002:00001530       ??_C@_1EK@MBDPDCGA@?$AAM?$AAi?$AAc?$AAr?$AAo?$AAs?$AAo?$AAf?$AAt?$AA?5?$AAV?$AAi?$AAs?$AAu?$AAa?$AAl?$AA?5?$AAC?$AA?$CL?$AA?$CL?$AA?5?$AAR?$AAu?$AAn?$AAt?$AAi?$AAm?$AAe?$AA?5?$AAL?$AAi?$AAb@ 0000000180030530     libucrt:assert.obj
 0002:00001580       ??_C@_1CE@OJBNHDMO@?$AAA?$AAs?$AAs?$AAe?$AAr?$AAt?$AAi?$AAo?$AAn?$AA?5?$AAf?$AAa?$AAi?$AAl?$AAe?$AAd?$AA?$CB?$AA?$AA@ 0000000180030580     libucrt:assert.obj
 0002:000015a8       ??_C@_1BE@PHKBBGE@?$AAP?$AAr?$AAo?$AAg?$AAr?$AAa?$AAm?$AA?3?$AA?5?$AA?$AA@ 00000001800305a8     libucrt:assert.obj
 0002:000015c0       ??_C@_1O@HEMHKNDC@?$AAF?$AAi?$AAl?$AAe?$AA?3?$AA?5?$AA?$AA@ 00000001800305c0     libucrt:assert.obj
 0002:000015d0       ??_C@_1O@KCAFKHJE@?$AAL?$AAi?$AAn?$AAe?$AA?3?$AA?5?$AA?$AA@ 00000001800305d0     libucrt:assert.obj
 0002:000015e0       ??_C@_1BK@PEDCIPMA@?$AAE?$AAx?$AAp?$AAr?$AAe?$AAs?$AAs?$AAi?$AAo?$AAn?$AA?3?$AA?5?$AA?$AA@ 00000001800305e0     libucrt:assert.obj
 0002:00001600       ??_C@_1OA@EGMLFBHJ@?$AAF?$AAo?$AAr?$AA?5?$AAi?$AAn?$AAf?$AAo?$AAr?$AAm?$AAa?$AAt?$AAi?$AAo?$AAn?$AA?5?$AAo?$AAn?$AA?5?$AAh?$AAo?$AAw?$AA?5?$AAy?$AAo?$AAu?$AAr?$AA?5?$AAp?$AAr?$AAo?$AAg@ 0000000180030600     libucrt:assert.obj
 0002:000016e0       ??_C@_1HK@POCJMFGK@?$AA?$CI?$AAP?$AAr?$AAe?$AAs?$AAs?$AA?5?$AAR?$AAe?$AAt?$AAr?$AAy?$AA?5?$AAt?$AAo?$AA?5?$AAd?$AAe?$AAb?$AAu?$AAg?$AA?5?$AAt?$AAh?$AAe?$AA?5?$AAa?$AAp?$AAp?$AAl?$AAi?$AAc@ 00000001800306e0     libucrt:assert.obj
 0002:00001760       ??_C@_17LGKOMLJ@?$AA?4?$AA?4?$AA?4?$AA?$AA@ 0000000180030760     libucrt:assert.obj
 0002:00001768       ??_C@_13LBAGMAIH@?$AA?6?$AA?$AA@ 0000000180030768     libucrt:assert.obj
 0002:0000176c       ??_C@_15IABLJNFO@?$AA?6?$AA?6?$AA?$AA@ 000000018003076c     libucrt:assert.obj
 0002:00001778       ??_C@_1CO@EAEJAADC@?$AA?$DM?$AAp?$AAr?$AAo?$AAg?$AAr?$AAa?$AAm?$AA?5?$AAn?$AAa?$AAm?$AAe?$AA?5?$AAu?$AAn?$AAk?$AAn?$AAo?$AAw?$AAn?$AA?$DO?$AA?$AA@ 0000000180030778     libucrt:assert.obj
 0002:000017b0       __acrt_exception_action_table 00000001800307b0     libucrt:exception_filter.obj
 0002:00001870       __acrt_signal_action_table_count 0000000180030870     libucrt:exception_filter.obj
 0002:00001878       __acrt_signal_action_first_fpe_index 0000000180030878     libucrt:exception_filter.obj
 0002:00001880       __acrt_signal_action_fpe_count 0000000180030880     libucrt:exception_filter.obj
 0002:00001888       ??_C@_1BI@BGOHAHKC@?$AAm?$AAs?$AAc?$AAo?$AAr?$AAe?$AAe?$AA?4?$AAd?$AAl?$AAl?$AA?$AA@ 0000000180030888     libucrt:exit.obj
 0002:000018a0       ??_C@_0P@MIGLKIOC@CorExitProcess?$AA@ 00000001800308a0     libucrt:exit.obj
 0002:000019b0       standard_lookup_table      00000001800309b0     libucrt:output.obj
 0002:00001a10       ??_C@_1O@CEDCILHN@?$AA?$CI?$AAn?$AAu?$AAl?$AAl?$AA?$CJ?$AA?$AA@ 0000000180030a10     libucrt:output.obj
 0002:00001a20       ??_C@_06OJHGLDPL@?$CInull?$CJ?$AA@ 0000000180030a20     libucrt:output.obj
 0002:00001b90       __newctype                 0000000180030b90     libucrt:ctype.obj
 0002:00001e90       __newclmap                 0000000180030e90     libucrt:ctype.obj
 0002:00002010       __newcumap                 0000000180031010     libucrt:ctype.obj
 0002:00002190       _wctype                    0000000180031190     libucrt:ctype.obj
 0002:000023a0       __lc_time_c                00000001800313a0     libucrt:nlsdata.obj
 0002:00002660       ??_C@_03KOEHGMDN@Sun?$AA@  0000000180031660     libucrt:nlsdata.obj
 0002:00002664       ??_C@_03PDAGKDH@Mon?$AA@   0000000180031664     libucrt:nlsdata.obj
 0002:00002668       ??_C@_03NAGEINEP@Tue?$AA@  0000000180031668     libucrt:nlsdata.obj
 0002:0000266c       ??_C@_03MHOMLAJA@Wed?$AA@  000000018003166c     libucrt:nlsdata.obj
 0002:00002670       ??_C@_03IOFIKPDN@Thu?$AA@  0000000180031670     libucrt:nlsdata.obj
 0002:00002674       ??_C@_03IDIOELNC@Fri?$AA@  0000000180031674     libucrt:nlsdata.obj
 0002:00002678       ??_C@_03FEFJNEK@Sat?$AA@   0000000180031678     libucrt:nlsdata.obj
 0002:0000267c       ??_C@_06OOPIFAJ@Sunday?$AA@ 000000018003167c     libucrt:nlsdata.obj
 0002:00002684       ??_C@_06JLEDEDGH@Monday?$AA@ 0000000180031684     libucrt:nlsdata.obj
 0002:00002690       ??_C@_07BAAGCFCM@Tuesday?$AA@ 0000000180031690     libucrt:nlsdata.obj
 0002:00002698       ??_C@_09DLIGFAKA@Wednesday?$AA@ 0000000180031698     libucrt:nlsdata.obj
 0002:000026a8       ??_C@_08HACCIKIA@Thursday?$AA@ 00000001800316a8     libucrt:nlsdata.obj
 0002:000026b4       ??_C@_06JECMNKMI@Friday?$AA@ 00000001800316b4     libucrt:nlsdata.obj
 0002:000026c0       ??_C@_08INBOOONO@Saturday?$AA@ 00000001800316c0     libucrt:nlsdata.obj
 0002:000026cc       ??_C@_03JIHJHPIE@Jan?$AA@  00000001800316cc     libucrt:nlsdata.obj
 0002:000026d0       ??_C@_03HJBDCHOM@Feb?$AA@  00000001800316d0     libucrt:nlsdata.obj
 0002:000026d4       ??_C@_03ODNJBKGA@Mar?$AA@  00000001800316d4     libucrt:nlsdata.obj
 0002:000026d8       ??_C@_03LEOLGMJP@Apr?$AA@  00000001800316d8     libucrt:nlsdata.obj
 0002:000026dc       ??_C@_03CNMDKL@May?$AA@    00000001800316dc     libucrt:nlsdata.obj
 0002:000026e0       ??_C@_03IDFGHECI@Jun?$AA@  00000001800316e0     libucrt:nlsdata.obj
 0002:000026e4       ??_C@_03LBGABGKK@Jul?$AA@  00000001800316e4     libucrt:nlsdata.obj
 0002:000026e8       ??_C@_03IFJFEIGA@Aug?$AA@  00000001800316e8     libucrt:nlsdata.obj
 0002:000026ec       ??_C@_03GGCAPAJC@Sep?$AA@  00000001800316ec     libucrt:nlsdata.obj
 0002:000026f0       ??_C@_03BMAOKBAD@Oct?$AA@  00000001800316f0     libucrt:nlsdata.obj
 0002:000026f4       ??_C@_03JPJOFNIA@Nov?$AA@  00000001800316f4     libucrt:nlsdata.obj
 0002:000026f8       ??_C@_03MKABNOCG@Dec?$AA@  00000001800316f8     libucrt:nlsdata.obj
 0002:00002700       ??_C@_07CGJPFGJA@January?$AA@ 0000000180031700     libucrt:nlsdata.obj
 0002:00002708       ??_C@_08GNJGEPFN@February?$AA@ 0000000180031708     libucrt:nlsdata.obj
 0002:00002714       ??_C@_05HPCKOFNC@March?$AA@ 0000000180031714     libucrt:nlsdata.obj
 0002:0000271c       ??_C@_05DMJDNLEJ@April?$AA@ 000000018003171c     libucrt:nlsdata.obj
 0002:00002724       ??_C@_04CNLMGBGM@June?$AA@ 0000000180031724     libucrt:nlsdata.obj
 0002:0000272c       ??_C@_04MIEPOIFP@July?$AA@ 000000018003172c     libucrt:nlsdata.obj
 0002:00002734       ??_C@_06LBBHFDDG@August?$AA@ 0000000180031734     libucrt:nlsdata.obj
 0002:00002740       ??_C@_09BHHEALKD@September?$AA@ 0000000180031740     libucrt:nlsdata.obj
 0002:00002750       ??_C@_07JJNFCEND@October?$AA@ 0000000180031750     libucrt:nlsdata.obj
 0002:00002758       ??_C@_08HCHEGEOA@November?$AA@ 0000000180031758     libucrt:nlsdata.obj
 0002:00002768       ??_C@_08EDHMEBNP@December?$AA@ 0000000180031768     libucrt:nlsdata.obj
 0002:00002774       ??_C@_02DEDBPAFC@AM?$AA@   0000000180031774     libucrt:nlsdata.obj
 0002:00002778       ??_C@_02CJNFDJBF@PM?$AA@   0000000180031778     libucrt:nlsdata.obj
 0002:00002780       ??_C@_08BPBNCDIB@MM?1dd?1yy?$AA@ 0000000180031780     libucrt:nlsdata.obj
 0002:00002790       ??_C@_0BE@CKGJFCPC@dddd?0?5MMMM?5dd?0?5yyyy?$AA@ 0000000180031790     libucrt:nlsdata.obj
 0002:000027a8       ??_C@_08JCCMCCIL@HH?3mm?3ss?$AA@ 00000001800317a8     libucrt:nlsdata.obj
 0002:000027b8       ??_C@_17MBGCMIPB@?$AAS?$AAu?$AAn?$AA?$AA@ 00000001800317b8     libucrt:nlsdata.obj
 0002:000027c0       ??_C@_17KBOMKBF@?$AAM?$AAo?$AAn?$AA?$AA@ 00000001800317c0     libucrt:nlsdata.obj
 0002:000027c8       ??_C@_17BMKGEGOJ@?$AAT?$AAu?$AAe?$AA?$AA@ 00000001800317c8     libucrt:nlsdata.obj
 0002:000027d0       ??_C@_17CJEDCEPE@?$AAW?$AAe?$AAd?$AA?$AA@ 00000001800317d0     libucrt:nlsdata.obj
 0002:000027d8       ??_C@_17PDPHAADD@?$AAT?$AAh?$AAu?$AA?$AA@ 00000001800317d8     libucrt:nlsdata.obj
 0002:000027e0       ??_C@_17HFOLPPLP@?$AAF?$AAr?$AAi?$AA?$AA@ 00000001800317e0     libucrt:nlsdata.obj
 0002:000027e8       ??_C@_17GGIBDPIH@?$AAS?$AAa?$AAt?$AA?$AA@ 00000001800317e8     libucrt:nlsdata.obj
 0002:000027f0       ??_C@_1O@IHNHDHPB@?$AAS?$AAu?$AAn?$AAd?$AAa?$AAy?$AA?$AA@ 00000001800317f0     libucrt:nlsdata.obj
 0002:00002800       ??_C@_1O@MMNBFLIA@?$AAM?$AAo?$AAn?$AAd?$AAa?$AAy?$AA?$AA@ 0000000180031800     libucrt:nlsdata.obj
 0002:00002810       ??_C@_1BA@ENFBFFEK@?$AAT?$AAu?$AAe?$AAs?$AAd?$AAa?$AAy?$AA?$AA@ 0000000180031810     libucrt:nlsdata.obj
 0002:00002820       ??_C@_1BE@EBOGMDOH@?$AAW?$AAe?$AAd?$AAn?$AAe?$AAs?$AAd?$AAa?$AAy?$AA?$AA@ 0000000180031820     libucrt:nlsdata.obj
 0002:00002838       ??_C@_1BC@HHMNLIHE@?$AAT?$AAh?$AAu?$AAr?$AAs?$AAd?$AAa?$AAy?$AA?$AA@ 0000000180031838     libucrt:nlsdata.obj
 0002:00002850       ??_C@_1O@PDICJHAG@?$AAF?$AAr?$AAi?$AAd?$AAa?$AAy?$AA?$AA@ 0000000180031850     libucrt:nlsdata.obj
 0002:00002860       ??_C@_1BC@ENMNNPAJ@?$AAS?$AAa?$AAt?$AAu?$AAr?$AAd?$AAa?$AAy?$AA?$AA@ 0000000180031860     libucrt:nlsdata.obj
 0002:00002878       ??_C@_17DKNBKCHM@?$AAJ?$AAa?$AAn?$AA?$AA@ 0000000180031878     libucrt:nlsdata.obj
 0002:00002880       ??_C@_17LMDJEKJN@?$AAF?$AAe?$AAb?$AA?$AA@ 0000000180031880     libucrt:nlsdata.obj
 0002:00002888       ??_C@_17CKNLEDEC@?$AAM?$AAa?$AAr?$AA?$AA@ 0000000180031888     libucrt:nlsdata.obj
 0002:00002890       ??_C@_17LFPOIHDD@?$AAA?$AAp?$AAr?$AA?$AA@ 0000000180031890     libucrt:nlsdata.obj
 0002:00002898       ??_C@_17PNNKMEED@?$AAM?$AAa?$AAy?$AA?$AA@ 0000000180031898     libucrt:nlsdata.obj
 0002:000028a0       ??_C@_17KCJGOCPB@?$AAJ?$AAu?$AAn?$AA?$AA@ 00000001800318a0     libucrt:nlsdata.obj
 0002:000028a8       ??_C@_17IJPCKHK@?$AAJ?$AAu?$AAl?$AA?$AA@ 00000001800318a8     libucrt:nlsdata.obj
 0002:000028b0       ??_C@_17ICPELBCN@?$AAA?$AAu?$AAg?$AA?$AA@ 00000001800318b0     libucrt:nlsdata.obj
 0002:000028b8       ??_C@_17HCHCOKMG@?$AAS?$AAe?$AAp?$AA?$AA@ 00000001800318b8     libucrt:nlsdata.obj
 0002:000028c0       ??_C@_17FNLKOI@?$AAO?$AAc?$AAt?$AA?$AA@ 00000001800318c0     libucrt:nlsdata.obj
 0002:000028c8       ??_C@_17BBDMLCIG@?$AAN?$AAo?$AAv?$AA?$AA@ 00000001800318c8     libucrt:nlsdata.obj
 0002:000028d0       ??_C@_17EGKACKIF@?$AAD?$AAe?$AAc?$AA?$AA@ 00000001800318d0     libucrt:nlsdata.obj
 0002:000028d8       ??_C@_1BA@EFMEIEBA@?$AAJ?$AAa?$AAn?$AAu?$AAa?$AAr?$AAy?$AA?$AA@ 00000001800318d8     libucrt:nlsdata.obj
 0002:000028e8       ??_C@_1BC@JGDDFFAM@?$AAF?$AAe?$AAb?$AAr?$AAu?$AAa?$AAr?$AAy?$AA?$AA@ 00000001800318e8     libucrt:nlsdata.obj
 0002:00002900       ??_C@_1M@IKEENEDF@?$AAM?$AAa?$AAr?$AAc?$AAh?$AA?$AA@ 0000000180031900     libucrt:nlsdata.obj
 0002:00002910       ??_C@_1M@GJNLMHFD@?$AAA?$AAp?$AAr?$AAi?$AAl?$AA?$AA@ 0000000180031910     libucrt:nlsdata.obj
 0002:00002920       ??_C@_19EPFLPGAP@?$AAJ?$AAu?$AAn?$AAe?$AA?$AA@ 0000000180031920     libucrt:nlsdata.obj
 0002:00002930       ??_C@_19BIFMLPCD@?$AAJ?$AAu?$AAl?$AAy?$AA?$AA@ 0000000180031930     libucrt:nlsdata.obj
 0002:00002940       ??_C@_1O@PAHLKOAC@?$AAA?$AAu?$AAg?$AAu?$AAs?$AAt?$AA?$AA@ 0000000180031940     libucrt:nlsdata.obj
 0002:00002950       ??_C@_1BE@DKAAMBJL@?$AAS?$AAe?$AAp?$AAt?$AAe?$AAm?$AAb?$AAe?$AAr?$AA?$AA@ 0000000180031950     libucrt:nlsdata.obj
 0002:00002968       ??_C@_1BA@EPANDLNG@?$AAO?$AAc?$AAt?$AAo?$AAb?$AAe?$AAr?$AA?$AA@ 0000000180031968     libucrt:nlsdata.obj
 0002:00002978       ??_C@_1BC@BGLIFPF@?$AAN?$AAo?$AAv?$AAe?$AAm?$AAb?$AAe?$AAr?$AA?$AA@ 0000000180031978     libucrt:nlsdata.obj
 0002:00002990       ??_C@_1BC@FEMKIFH@?$AAD?$AAe?$AAc?$AAe?$AAm?$AAb?$AAe?$AAr?$AA?$AA@ 0000000180031990     libucrt:nlsdata.obj
 0002:000029a4       ??_C@_15ODEHAHHF@?$AAA?$AAM?$AA?$AA@ 00000001800319a4     libucrt:nlsdata.obj
 0002:000029ac       ??_C@_15CLMNNGEL@?$AAP?$AAM?$AA?$AA@ 00000001800319ac     libucrt:nlsdata.obj
 0002:000029b8       ??_C@_1BC@IEBCMHCM@?$AAM?$AAM?$AA?1?$AAd?$AAd?$AA?1?$AAy?$AAy?$AA?$AA@ 00000001800319b8     libucrt:nlsdata.obj
 0002:000029d0       ??_C@_1CI@KNAKOEBC@?$AAd?$AAd?$AAd?$AAd?$AA?0?$AA?5?$AAM?$AAM?$AAM?$AAM?$AA?5?$AAd?$AAd?$AA?0?$AA?5?$AAy?$AAy?$AAy?$AAy?$AA?$AA@ 00000001800319d0     libucrt:nlsdata.obj
 0002:000029f8       ??_C@_1BC@GDGBMEMK@?$AAH?$AAH?$AA?3?$AAm?$AAm?$AA?3?$AAs?$AAs?$AA?$AA@ 00000001800319f8     libucrt:nlsdata.obj
 0002:00002a10       ??_C@_1M@BMHNFIME@?$AAe?$AAn?$AA?9?$AAU?$AAS?$AA?$AA@ 0000000180031a10     libucrt:nlsdata.obj
 0002:00002a80       ??_C@_1M@HPNHIDJI@?$AAj?$AAa?$AA?9?$AAJ?$AAP?$AA?$AA@ 0000000180031a80     libucrt:mbctype.obj
 0002:00002a90       ??_C@_1M@BIBDDEMK@?$AAz?$AAh?$AA?9?$AAC?$AAN?$AA?$AA@ 0000000180031a90     libucrt:mbctype.obj
 0002:00002aa0       ??_C@_1M@JLOOOEGK@?$AAk?$AAo?$AA?9?$AAK?$AAR?$AA?$AA@ 0000000180031aa0     libucrt:mbctype.obj
 0002:00002ab0       ??_C@_1M@CLNBBOPM@?$AAz?$AAh?$AA?9?$AAT?$AAW?$AA?$AA@ 0000000180031ab0     libucrt:mbctype.obj
 0002:00002b60       ??_C@_1EA@JGEFHKEI@?$AAa?$AAp?$AAi?$AA?9?$AAm?$AAs?$AA?9?$AAw?$AAi?$AAn?$AA?9?$AAc?$AAo?$AAr?$AAe?$AA?9?$AAd?$AAa?$AAt?$AAe?$AAt?$AAi?$AAm?$AAe?$AA?9?$AAl?$AA1?$AA?9?$AA1?$AA?9?$AA1?$AA?$AA@ 0000000180031b60     libucrt:winapi_thunks.obj
 0002:00002ba0       ??_C@_1DM@KHCHBNEB@?$AAa?$AAp?$AAi?$AA?9?$AAm?$AAs?$AA?9?$AAw?$AAi?$AAn?$AA?9?$AAc?$AAo?$AAr?$AAe?$AA?9?$AAf?$AAi?$AAb?$AAe?$AAr?$AAs?$AA?9?$AAl?$AA1?$AA?9?$AA1?$AA?9?$AA1?$AA?$AA@ 0000000180031ba0     libucrt:winapi_thunks.obj
 0002:00002be0       ??_C@_1DI@IJCEHOCB@?$AAa?$AAp?$AAi?$AA?9?$AAm?$AAs?$AA?9?$AAw?$AAi?$AAn?$AA?9?$AAc?$AAo?$AAr?$AAe?$AA?9?$AAf?$AAi?$AAl?$AAe?$AA?9?$AAl?$AA1?$AA?9?$AA2?$AA?9?$AA2?$AA?$AA@ 0000000180031be0     libucrt:winapi_thunks.obj
 0002:00002c20       ??_C@_1EI@MPIAOHOC@?$AAa?$AAp?$AAi?$AA?9?$AAm?$AAs?$AA?9?$AAw?$AAi?$AAn?$AA?9?$AAc?$AAo?$AAr?$AAe?$AA?9?$AAl?$AAo?$AAc?$AAa?$AAl?$AAi?$AAz?$AAa?$AAt?$AAi?$AAo?$AAn?$AA?9?$AAl?$AA1?$AA?9@ 0000000180031c20     libucrt:winapi_thunks.obj
 0002:00002c70       ??_C@_1FK@FPHCKFIE@?$AAa?$AAp?$AAi?$AA?9?$AAm?$AAs?$AA?9?$AAw?$AAi?$AAn?$AA?9?$AAc?$AAo?$AAr?$AAe?$AA?9?$AAl?$AAo?$AAc?$AAa?$AAl?$AAi?$AAz?$AAa?$AAt?$AAi?$AAo?$AAn?$AA?9?$AAo?$AAb?$AAs@ 0000000180031c70     libucrt:winapi_thunks.obj
 0002:00002cd0       ??_C@_1EM@DILCGIIO@?$AAa?$AAp?$AAi?$AA?9?$AAm?$AAs?$AA?9?$AAw?$AAi?$AAn?$AA?9?$AAc?$AAo?$AAr?$AAe?$AA?9?$AAp?$AAr?$AAo?$AAc?$AAe?$AAs?$AAs?$AAt?$AAh?$AAr?$AAe?$AAa?$AAd?$AAs?$AA?9?$AAl@ 0000000180031cd0     libucrt:winapi_thunks.obj
 0002:00002d20       ??_C@_1DM@LNCGDDPN@?$AAa?$AAp?$AAi?$AA?9?$AAm?$AAs?$AA?9?$AAw?$AAi?$AAn?$AA?9?$AAc?$AAo?$AAr?$AAe?$AA?9?$AAs?$AAt?$AAr?$AAi?$AAn?$AAg?$AA?9?$AAl?$AA1?$AA?9?$AA1?$AA?9?$AA0?$AA?$AA@ 0000000180031d20     libucrt:winapi_thunks.obj
 0002:00002d60       ??_C@_1DK@LPPGFMPP@?$AAa?$AAp?$AAi?$AA?9?$AAm?$AAs?$AA?9?$AAw?$AAi?$AAn?$AA?9?$AAc?$AAo?$AAr?$AAe?$AA?9?$AAs?$AAy?$AAn?$AAc?$AAh?$AA?9?$AAl?$AA1?$AA?9?$AA2?$AA?9?$AA0?$AA?$AA@ 0000000180031d60     libucrt:winapi_thunks.obj
 0002:00002da0       ??_C@_1DO@FPAPJEMD@?$AAa?$AAp?$AAi?$AA?9?$AAm?$AAs?$AA?9?$AAw?$AAi?$AAn?$AA?9?$AAc?$AAo?$AAr?$AAe?$AA?9?$AAs?$AAy?$AAs?$AAi?$AAn?$AAf?$AAo?$AA?9?$AAl?$AA1?$AA?9?$AA2?$AA?9?$AA1?$AA?$AA@ 0000000180031da0     libucrt:winapi_thunks.obj
 0002:00002de0       ??_C@_1DK@NDHNAHIO@?$AAa?$AAp?$AAi?$AA?9?$AAm?$AAs?$AA?9?$AAw?$AAi?$AAn?$AA?9?$AAc?$AAo?$AAr?$AAe?$AA?9?$AAw?$AAi?$AAn?$AAr?$AAt?$AA?9?$AAl?$AA1?$AA?9?$AA1?$AA?9?$AA0?$AA?$AA@ 0000000180031de0     libucrt:winapi_thunks.obj
 0002:00002e20       ??_C@_1DM@KGHDGBCM@?$AAa?$AAp?$AAi?$AA?9?$AAm?$AAs?$AA?9?$AAw?$AAi?$AAn?$AA?9?$AAc?$AAo?$AAr?$AAe?$AA?9?$AAx?$AAs?$AAt?$AAa?$AAt?$AAe?$AA?9?$AAl?$AA2?$AA?9?$AA1?$AA?9?$AA0?$AA?$AA@ 0000000180031e20     libucrt:winapi_thunks.obj
 0002:00002e60       ??_C@_1EO@IJIOEFOH@?$AAa?$AAp?$AAi?$AA?9?$AAm?$AAs?$AA?9?$AAw?$AAi?$AAn?$AA?9?$AAr?$AAt?$AAc?$AAo?$AAr?$AAe?$AA?9?$AAn?$AAt?$AAu?$AAs?$AAe?$AAr?$AA?9?$AAw?$AAi?$AAn?$AAd?$AAo?$AAw?$AA?9@ 0000000180031e60     libucrt:winapi_thunks.obj
 0002:00002eb0       ??_C@_1FG@HHGEKANL@?$AAa?$AAp?$AAi?$AA?9?$AAm?$AAs?$AA?9?$AAw?$AAi?$AAn?$AA?9?$AAs?$AAe?$AAc?$AAu?$AAr?$AAi?$AAt?$AAy?$AA?9?$AAs?$AAy?$AAs?$AAt?$AAe?$AAm?$AAf?$AAu?$AAn?$AAc?$AAt?$AAi@ 0000000180031eb0     libucrt:winapi_thunks.obj
 0002:00002f10       ??_C@_1EG@DBIOJECG@?$AAe?$AAx?$AAt?$AA?9?$AAm?$AAs?$AA?9?$AAw?$AAi?$AAn?$AA?9?$AAn?$AAt?$AAu?$AAs?$AAe?$AAr?$AA?9?$AAd?$AAi?$AAa?$AAl?$AAo?$AAg?$AAb?$AAo?$AAx?$AA?9?$AAl?$AA1?$AA?9?$AA1@ 0000000180031f10     libucrt:winapi_thunks.obj
 0002:00002f60       ??_C@_1EO@FIHMJCLF@?$AAe?$AAx?$AAt?$AA?9?$AAm?$AAs?$AA?9?$AAw?$AAi?$AAn?$AA?9?$AAn?$AAt?$AAu?$AAs?$AAe?$AAr?$AA?9?$AAw?$AAi?$AAn?$AAd?$AAo?$AAw?$AAs?$AAt?$AAa?$AAt?$AAi?$AAo?$AAn?$AA?9@ 0000000180031f60     libucrt:winapi_thunks.obj
 0002:00002fb0       ??_C@_1BC@DNHGCMLG@?$AAa?$AAd?$AAv?$AAa?$AAp?$AAi?$AA3?$AA2?$AA?$AA@ 0000000180031fb0     libucrt:winapi_thunks.obj
 0002:00002fc8       ??_C@_1BC@GDMECMAK@?$AAk?$AAe?$AAr?$AAn?$AAe?$AAl?$AA3?$AA2?$AA?$AA@ 0000000180031fc8     libucrt:winapi_thunks.obj
 0002:00002fe0       ??_C@_1M@OAIMIKLP@?$AAn?$AAt?$AAd?$AAl?$AAl?$AA?$AA@ 0000000180031fe0     libucrt:winapi_thunks.obj
 0002:00002ff0       ??_C@_1EG@DPGNFKGC@?$AAa?$AAp?$AAi?$AA?9?$AAm?$AAs?$AA?9?$AAw?$AAi?$AAn?$AA?9?$AAa?$AAp?$AAp?$AAm?$AAo?$AAd?$AAe?$AAl?$AA?9?$AAr?$AAu?$AAn?$AAt?$AAi?$AAm?$AAe?$AA?9?$AAl?$AA1?$AA?9?$AA1@ 0000000180031ff0     libucrt:winapi_thunks.obj
 0002:00003038       ??_C@_1O@BCCLBEOE@?$AAu?$AAs?$AAe?$AAr?$AA3?$AA2?$AA?$AA@ 0000000180032038     libucrt:winapi_thunks.obj
 0002:00003048       ??_C@_1BA@PFFKHIOG@?$AAa?$AAp?$AAi?$AA?9?$AAm?$AAs?$AA?9?$AA?$AA@ 0000000180032048     libucrt:winapi_thunks.obj
 0002:00003058       ??_C@_1BA@IAIFMGEF@?$AAe?$AAx?$AAt?$AA?9?$AAm?$AAs?$AA?9?$AA?$AA@ 0000000180032058     libucrt:winapi_thunks.obj
 0002:00003070       ??_C@_08KNHFBNJ@FlsAlloc?$AA@ 0000000180032070     libucrt:winapi_thunks.obj
 0002:00003088       ??_C@_07PEJMOBNF@FlsFree?$AA@ 0000000180032088     libucrt:winapi_thunks.obj
 0002:00003098       ??_C@_0M@GDNOONDI@FlsGetValue?$AA@ 0000000180032098     libucrt:winapi_thunks.obj
 0002:000030b0       ??_C@_0M@JCPCPOEF@FlsSetValue?$AA@ 00000001800320b0     libucrt:winapi_thunks.obj
 0002:000030c8       ??_C@_0BA@HNOPNCHB@GetActiveWindow?$AA@ 00000001800320c8     libucrt:winapi_thunks.obj
 0002:000030e0       ??_C@_0BD@HHGDFDBJ@GetLastActivePopup?$AA@ 00000001800320e0     libucrt:winapi_thunks.obj
 0002:00003100       ??_C@_0BI@DFKBFLJE@GetProcessWindowStation?$AA@ 0000000180032100     libucrt:winapi_thunks.obj
 0002:00003120       ??_C@_0BK@DEKFELLI@GetUserObjectInformationW?$AA@ 0000000180032120     libucrt:winapi_thunks.obj
 0002:00003148       ??_C@_0BM@HCFOFFN@InitializeCriticalSectionEx?$AA@ 0000000180032148     libucrt:winapi_thunks.obj
 0002:00003170       ??_C@_0O@KKBNKAPF@LCMapStringEx?$AA@ 0000000180032170     libucrt:winapi_thunks.obj
 0002:00003188       ??_C@_0BB@HBDEELFH@LocaleNameToLCID?$AA@ 0000000180032188     libucrt:winapi_thunks.obj
 0002:000031a8       ??_C@_0M@CHKKJDAI@MessageBoxA?$AA@ 00000001800321a8     libucrt:winapi_thunks.obj
 0002:000031c0       ??_C@_0M@DLDCCGNP@MessageBoxW?$AA@ 00000001800321c0     libucrt:winapi_thunks.obj
 0002:000031d0       ??_C@_0CF@OJOFEIGO@AppPolicyGetProcessTerminationMe@ 00000001800321d0     libucrt:winapi_thunks.obj
 0002:00003200       ??_C@_0CE@OICFMIKE@AppPolicyGetShowDeveloperDiagnos@ 0000000180032200     libucrt:winapi_thunks.obj
 0002:00003228       ??_C@_0BL@ODDJNEDA@AppPolicyGetWindowingModel?$AA@ 0000000180032228     libucrt:winapi_thunks.obj
 0002:00003244       ??_C@_03OEIAHPBN@INF?$AA@  0000000180032244     libucrt:cvt.obj
 0002:00003248       ??_C@_03OJHLLCGB@inf?$AA@  0000000180032248     libucrt:cvt.obj
 0002:0000324c       ??_C@_03LKNCIKJB@NAN?$AA@  000000018003224c     libucrt:cvt.obj
 0002:00003250       ??_C@_03LHCJEHON@nan?$AA@  0000000180032250     libucrt:cvt.obj
 0002:00003258       ??_C@_09OFJJIMPC@NAN?$CISNAN?$CJ?$AA@ 0000000180032258     libucrt:cvt.obj
 0002:00003268       ??_C@_09IPFBKMDL@nan?$CIsnan?$CJ?$AA@ 0000000180032268     libucrt:cvt.obj
 0002:00003278       ??_C@_08IKHNHAJ@NAN?$CIIND?$CJ?$AA@ 0000000180032278     libucrt:cvt.obj
 0002:00003288       ??_C@_08OFCDMILK@nan?$CIind?$CJ?$AA@ 0000000180032288     libucrt:cvt.obj
 0002:00003294       ??_C@_05KLBDPFGC@e?$CL000?$AA@ 0000000180032294     libucrt:cvt.obj
 0002:0000329c       ??_C@_15PJPFLCCM@?$AAu?$AAk?$AA?$AA@ 000000018003229c     libucrt:get_qualified_locale.obj
 0002:000040f0       ??_C@_15EMKDOKLE@?$AAa?$AAr?$AA?$AA@ 00000001800330f0     libucrt:lcidtoname_downlevel.obj
 0002:000040f8       ??_C@_15KNPADPLH@?$AAb?$AAg?$AA?$AA@ 00000001800330f8     libucrt:lcidtoname_downlevel.obj
 0002:00004100       ??_C@_15EDMHLDMO@?$AAc?$AAa?$AA?$AA@ 0000000180033100     libucrt:lcidtoname_downlevel.obj
 0002:00004108       ??_C@_1O@BPEAJADD@?$AAz?$AAh?$AA?9?$AAC?$AAH?$AAS?$AA?$AA@ 0000000180033108     libucrt:lcidtoname_downlevel.obj
 0002:00004118       ??_C@_15LJNHCMNK@?$AAc?$AAs?$AA?$AA@ 0000000180033118     libucrt:lcidtoname_downlevel.obj
 0002:00004120       ??_C@_15FOMCIDHG@?$AAd?$AAa?$AA?$AA@ 0000000180033120     libucrt:lcidtoname_downlevel.obj
 0002:00004128       ??_C@_15NBKABECB@?$AAd?$AAe?$AA?$AA@ 0000000180033128     libucrt:lcidtoname_downlevel.obj
 0002:00004130       ??_C@_15GHPEIIAO@?$AAe?$AAl?$AA?$AA@ 0000000180033130     libucrt:lcidtoname_downlevel.obj
 0002:00004138       ??_C@_15MNPNEAIF@?$AAe?$AAn?$AA?$AA@ 0000000180033138     libucrt:lcidtoname_downlevel.obj
 0002:00004140       ??_C@_15GPIOMPMH@?$AAe?$AAs?$AA?$AA@ 0000000180033140     libucrt:lcidtoname_downlevel.obj
 0002:00004148       ??_C@_15NGLOAKJC@?$AAf?$AAi?$AA?$AA@ 0000000180033148     libucrt:lcidtoname_downlevel.obj
 0002:00004150       ??_C@_15FBKGNKAM@?$AAf?$AAr?$AA?$AA@ 0000000180033150     libucrt:lcidtoname_downlevel.obj
 0002:00004158       ??_C@_15KGGCNEFK@?$AAh?$AAe?$AA?$AA@ 0000000180033158     libucrt:lcidtoname_downlevel.obj
 0002:00004160       ??_C@_15PGHLIDMF@?$AAh?$AAu?$AA?$AA@ 0000000180033160     libucrt:lcidtoname_downlevel.obj
 0002:00004168       ??_C@_15BIEMAPLM@?$AAi?$AAs?$AA?$AA@ 0000000180033168     libucrt:lcidtoname_downlevel.obj
 0002:00004170       ??_C@_15IFJLDHAF@?$AAi?$AAt?$AA?$AA@ 0000000180033170     libucrt:lcidtoname_downlevel.obj
 0002:00004178       ??_C@_15GEMIOCAG@?$AAj?$AAa?$AA?$AA@ 0000000180033178     libucrt:lcidtoname_downlevel.obj
 0002:00004180       ??_C@_15EPELEGJA@?$AAk?$AAo?$AA?$AA@ 0000000180033180     libucrt:lcidtoname_downlevel.obj
 0002:00004188       ??_C@_15NDDHIMN@?$AAn?$AAl?$AA?$AA@ 0000000180033188     libucrt:lcidtoname_downlevel.obj
 0002:00004190       ??_C@_15BPIGNHCD@?$AAn?$AAo?$AA?$AA@ 0000000180033190     libucrt:lcidtoname_downlevel.obj
 0002:00004198       ??_C@_15DEOPBLCG@?$AAp?$AAl?$AA?$AA@ 0000000180033198     libucrt:lcidtoname_downlevel.obj
 0002:000041a0       ??_C@_15KBECGEFG@?$AAp?$AAt?$AA?$AA@ 00000001800331a0     libucrt:lcidtoname_downlevel.obj
 0002:000041a8       ??_C@_15GLJCBFMD@?$AAr?$AAo?$AA?$AA@ 00000001800331a8     libucrt:lcidtoname_downlevel.obj
 0002:000041b0       ??_C@_15FEDGKCDI@?$AAr?$AAu?$AA?$AA@ 00000001800331b0     libucrt:lcidtoname_downlevel.obj
 0002:000041b8       ??_C@_15GLKMLLHM@?$AAh?$AAr?$AA?$AA@ 00000001800331b8     libucrt:lcidtoname_downlevel.obj
 0002:000041c0       ??_C@_15CPKMFBDB@?$AAs?$AAk?$AA?$AA@ 00000001800331c0     libucrt:lcidtoname_downlevel.obj
 0002:000041c8       ??_C@_15BAAIOGMK@?$AAs?$AAq?$AA?$AA@ 00000001800331c8     libucrt:lcidtoname_downlevel.obj
 0002:000041d0       ??_C@_15INNPNOHD@?$AAs?$AAv?$AA?$AA@ 00000001800331d0     libucrt:lcidtoname_downlevel.obj
 0002:000041d8       ??_C@_15CABMMOGH@?$AAt?$AAh?$AA?$AA@ 00000001800331d8     libucrt:lcidtoname_downlevel.obj
 0002:000041e0       ??_C@_15BPLIHJJM@?$AAt?$AAr?$AA?$AA@ 00000001800331e0     libucrt:lcidtoname_downlevel.obj
 0002:000041e8       ??_C@_15NEOEKKDJ@?$AAu?$AAr?$AA?$AA@ 00000001800331e8     libucrt:lcidtoname_downlevel.obj
 0002:000041f0       ??_C@_15NFICGAJK@?$AAi?$AAd?$AA?$AA@ 00000001800331f0     libucrt:lcidtoname_downlevel.obj
 0002:000041f8       ??_C@_15HPJPHDM@?$AAb?$AAe?$AA?$AA@ 00000001800331f8     libucrt:lcidtoname_downlevel.obj
 0002:00004200       ??_C@_15LCHLGJII@?$AAs?$AAl?$AA?$AA@ 0000000180033200     libucrt:lcidtoname_downlevel.obj
 0002:00004208       ??_C@_15PCFJPHHO@?$AAe?$AAt?$AA?$AA@ 0000000180033208     libucrt:lcidtoname_downlevel.obj
 0002:00004210       ??_C@_15HPFPGODN@?$AAl?$AAv?$AA?$AA@ 0000000180033210     libucrt:lcidtoname_downlevel.obj
 0002:00004218       ??_C@_15NFFGKGLG@?$AAl?$AAt?$AA?$AA@ 0000000180033218     libucrt:lcidtoname_downlevel.obj
 0002:00004220       ??_C@_15BDAKCCHN@?$AAf?$AAa?$AA?$AA@ 0000000180033220     libucrt:lcidtoname_downlevel.obj
 0002:00004228       ??_C@_15NFGIAIAJ@?$AAv?$AAi?$AA?$AA@ 0000000180033228     libucrt:lcidtoname_downlevel.obj
 0002:00004230       ??_C@_15LMKNDMHN@?$AAh?$AAy?$AA?$AA@ 0000000180033230     libucrt:lcidtoname_downlevel.obj
 0002:00004238       ??_C@_15IJBHMCFL@?$AAa?$AAz?$AA?$AA@ 0000000180033238     libucrt:lcidtoname_downlevel.obj
 0002:00004240       ??_C@_15EKOFJABL@?$AAe?$AAu?$AA?$AA@ 0000000180033240     libucrt:lcidtoname_downlevel.obj
 0002:00004248       ??_C@_15BGHADCNK@?$AAm?$AAk?$AA?$AA@ 0000000180033248     libucrt:lcidtoname_downlevel.obj
 0002:00004250       ??_C@_15JDNICKHM@?$AAa?$AAf?$AA?$AA@ 0000000180033250     libucrt:lcidtoname_downlevel.obj
 0002:00004258       ??_C@_15KPJEDBKD@?$AAk?$AAa?$AA?$AA@ 0000000180033258     libucrt:lcidtoname_downlevel.obj
 0002:00004260       ??_C@_15PDNFFFEO@?$AAf?$AAo?$AA?$AA@ 0000000180033260     libucrt:lcidtoname_downlevel.obj
 0002:00004268       ??_C@_15OMLEGLOC@?$AAh?$AAi?$AA?$AA@ 0000000180033268     libucrt:lcidtoname_downlevel.obj
 0002:00004270       ??_C@_15IDNNENKK@?$AAm?$AAs?$AA?$AA@ 0000000180033270     libucrt:lcidtoname_downlevel.obj
 0002:00004278       ??_C@_15MACJNBMH@?$AAk?$AAk?$AA?$AA@ 0000000180033278     libucrt:lcidtoname_downlevel.obj
 0002:00004280       ??_C@_15DKDJEOND@?$AAk?$AAy?$AA?$AA@ 0000000180033280     libucrt:lcidtoname_downlevel.obj
 0002:00004288       ??_C@_15DFGDLJBG@?$AAs?$AAw?$AA?$AA@ 0000000180033288     libucrt:lcidtoname_downlevel.obj
 0002:00004290       ??_C@_15BBFAICNG@?$AAu?$AAz?$AA?$AA@ 0000000180033290     libucrt:lcidtoname_downlevel.obj
 0002:00004298       ??_C@_15DKNDCGEA@?$AAt?$AAt?$AA?$AA@ 0000000180033298     libucrt:lcidtoname_downlevel.obj
 0002:000042a0       ??_C@_15MGIFMDPL@?$AAp?$AAa?$AA?$AA@ 00000001800332a0     libucrt:lcidtoname_downlevel.obj
 0002:000042a8       ??_C@_15HCNDBBA@?$AAg?$AAu?$AA?$AA@ 00000001800332a8     libucrt:lcidtoname_downlevel.obj
 0002:000042b0       ??_C@_15FNBEIBON@?$AAt?$AAa?$AA?$AA@ 00000001800332b0     libucrt:lcidtoname_downlevel.obj
 0002:000042b8       ??_C@_15NCHGBGLK@?$AAt?$AAe?$AA?$AA@ 00000001800332b8     libucrt:lcidtoname_downlevel.obj
 0002:000042c0       ??_C@_15PHPHCBPF@?$AAk?$AAn?$AA?$AA@ 00000001800332c0     libucrt:lcidtoname_downlevel.obj
 0002:000042c8       ??_C@_15DLGBCKMP@?$AAm?$AAr?$AA?$AA@ 00000001800332c8     libucrt:lcidtoname_downlevel.obj
 0002:000042d0       ??_C@_15EABBLBFF@?$AAs?$AAa?$AA?$AA@ 00000001800332d0     libucrt:lcidtoname_downlevel.obj
 0002:000042d8       ??_C@_15CBKOMCOI@?$AAm?$AAn?$AA?$AA@ 00000001800332d8     libucrt:lcidtoname_downlevel.obj
 0002:000042e0       ??_C@_15CKDMCJAF@?$AAg?$AAl?$AA?$AA@ 00000001800332e0     libucrt:lcidtoname_downlevel.obj
 0002:000042e8       ??_C@_17CNJFBPG@?$AAk?$AAo?$AAk?$AA?$AA@ 00000001800332e8     libucrt:lcidtoname_downlevel.obj
 0002:000042f0       ??_C@_17FFBJICPL@?$AAs?$AAy?$AAr?$AA?$AA@ 00000001800332f0     libucrt:lcidtoname_downlevel.obj
 0002:000042f8       ??_C@_17KPNDCPAF@?$AAd?$AAi?$AAv?$AA?$AA@ 00000001800332f8     libucrt:lcidtoname_downlevel.obj
 0002:00004300       ??_C@_11LOCGONAA@?$AA?$AA@ 0000000180033300     libucrt:lcidtoname_downlevel.obj
 0002:00004308       ??_C@_1M@OKAHONE@?$AAa?$AAr?$AA?9?$AAS?$AAA?$AA?$AA@ 0000000180033308     libucrt:lcidtoname_downlevel.obj
 0002:00004318       ??_C@_1M@FFFIGIGK@?$AAb?$AAg?$AA?9?$AAB?$AAG?$AA?$AA@ 0000000180033318     libucrt:lcidtoname_downlevel.obj
 0002:00004328       ??_C@_1M@BJNKEDC@?$AAc?$AAa?$AA?9?$AAE?$AAS?$AA?$AA@ 0000000180033328     libucrt:lcidtoname_downlevel.obj
 0002:00004338       ??_C@_1M@IJJHFJHA@?$AAc?$AAs?$AA?9?$AAC?$AAZ?$AA?$AA@ 0000000180033338     libucrt:lcidtoname_downlevel.obj
 0002:00004348       ??_C@_1M@CLPEOBGI@?$AAd?$AAa?$AA?9?$AAD?$AAK?$AA?$AA@ 0000000180033348     libucrt:lcidtoname_downlevel.obj
 0002:00004358       ??_C@_1M@MCMADGCB@?$AAd?$AAe?$AA?9?$AAD?$AAE?$AA?$AA@ 0000000180033358     libucrt:lcidtoname_downlevel.obj
 0002:00004368       ??_C@_1M@OOCKEMAM@?$AAe?$AAl?$AA?9?$AAG?$AAR?$AA?$AA@ 0000000180033368     libucrt:lcidtoname_downlevel.obj
 0002:00004378       ??_C@_1M@DDNJFGID@?$AAf?$AAi?$AA?9?$AAF?$AAI?$AA?$AA@ 0000000180033378     libucrt:lcidtoname_downlevel.obj
 0002:00004388       ??_C@_1M@GLIPPMAC@?$AAf?$AAr?$AA?9?$AAF?$AAR?$AA?$AA@ 0000000180033388     libucrt:lcidtoname_downlevel.obj
 0002:00004398       ??_C@_1M@GFMCHPE@?$AAh?$AAe?$AA?9?$AAI?$AAL?$AA?$AA@ 0000000180033398     libucrt:lcidtoname_downlevel.obj
 0002:000043a8       ??_C@_1M@MHLPGNKM@?$AAh?$AAu?$AA?9?$AAH?$AAU?$AA?$AA@ 00000001800333a8     libucrt:lcidtoname_downlevel.obj
 0002:000043b8       ??_C@_1M@LPDDNNPN@?$AAi?$AAs?$AA?9?$AAI?$AAS?$AA?$AA@ 00000001800333b8     libucrt:lcidtoname_downlevel.obj
 0002:000043c8       ??_C@_1M@MADIPODN@?$AAi?$AAt?$AA?9?$AAI?$AAT?$AA?$AA@ 00000001800333c8     libucrt:lcidtoname_downlevel.obj
 0002:000043d8       ??_C@_1M@IHBJJGG@?$AAn?$AAl?$AA?9?$AAN?$AAL?$AA?$AA@ 00000001800333d8     libucrt:lcidtoname_downlevel.obj
 0002:000043e8       ??_C@_1M@EANAGDL@?$AAn?$AAb?$AA?9?$AAN?$AAO?$AA?$AA@ 00000001800333e8     libucrt:lcidtoname_downlevel.obj
 0002:000043f8       ??_C@_1M@NEIEMEGP@?$AAp?$AAl?$AA?9?$AAP?$AAL?$AA?$AA@ 00000001800333f8     libucrt:lcidtoname_downlevel.obj
 0002:00004408       ??_C@_1M@BOCFIGEP@?$AAp?$AAt?$AA?9?$AAB?$AAR?$AA?$AA@ 0000000180033408     libucrt:lcidtoname_downlevel.obj
 0002:00004418       ??_C@_1M@IMPFOPBG@?$AAr?$AAo?$AA?9?$AAR?$AAO?$AA?$AA@ 0000000180033418     libucrt:lcidtoname_downlevel.obj
 0002:00004428       ??_C@_1M@IDNNEJMM@?$AAr?$AAu?$AA?9?$AAR?$AAU?$AA?$AA@ 0000000180033428     libucrt:lcidtoname_downlevel.obj
 0002:00004438       ??_C@_1M@LILEEOGM@?$AAh?$AAr?$AA?9?$AAH?$AAR?$AA?$AA@ 0000000180033438     libucrt:lcidtoname_downlevel.obj
 0002:00004448       ??_C@_1M@FKIFEHPB@?$AAs?$AAk?$AA?9?$AAS?$AAK?$AA?$AA@ 0000000180033448     libucrt:lcidtoname_downlevel.obj
 0002:00004458       ??_C@_1M@LJMAMNPJ@?$AAs?$AAq?$AA?9?$AAA?$AAL?$AA?$AA@ 0000000180033458     libucrt:lcidtoname_downlevel.obj
 0002:00004468       ??_C@_1M@GIAKDKJK@?$AAs?$AAv?$AA?9?$AAS?$AAE?$AA?$AA@ 0000000180033468     libucrt:lcidtoname_downlevel.obj
 0002:00004478       ??_C@_1M@MKJKIKCL@?$AAt?$AAh?$AA?9?$AAT?$AAH?$AA?$AA@ 0000000180033478     libucrt:lcidtoname_downlevel.obj
 0002:00004488       ??_C@_1M@MFLCCMPB@?$AAt?$AAr?$AA?9?$AAT?$AAR?$AA?$AA@ 0000000180033488     libucrt:lcidtoname_downlevel.obj
 0002:00004498       ??_C@_1M@OIJHDKJN@?$AAu?$AAr?$AA?9?$AAP?$AAK?$AA?$AA@ 0000000180033498     libucrt:lcidtoname_downlevel.obj
 0002:000044a8       ??_C@_1M@LHIPCIEK@?$AAi?$AAd?$AA?9?$AAI?$AAD?$AA?$AA@ 00000001800334a8     libucrt:lcidtoname_downlevel.obj
 0002:000044b8       ??_C@_1M@MFMOBGI@?$AAu?$AAk?$AA?9?$AAU?$AAA?$AA?$AA@ 00000001800334b8     libucrt:lcidtoname_downlevel.obj
 0002:000044c8       ??_C@_1M@OBGLJIPL@?$AAb?$AAe?$AA?9?$AAB?$AAY?$AA?$AA@ 00000001800334c8     libucrt:lcidtoname_downlevel.obj
 0002:000044d8       ??_C@_1M@BCFAJEAD@?$AAs?$AAl?$AA?9?$AAS?$AAI?$AA?$AA@ 00000001800334d8     libucrt:lcidtoname_downlevel.obj
 0002:000044e8       ??_C@_1M@FKFFEDDN@?$AAe?$AAt?$AA?9?$AAE?$AAE?$AA?$AA@ 00000001800334e8     libucrt:lcidtoname_downlevel.obj
 0002:000044f8       ??_C@_1M@KGKKAACI@?$AAl?$AAv?$AA?9?$AAL?$AAV?$AA?$AA@ 00000001800334f8     libucrt:lcidtoname_downlevel.obj
 0002:00004508       ??_C@_1M@IFGBIJO@?$AAl?$AAt?$AA?9?$AAL?$AAT?$AA?$AA@ 0000000180033508     libucrt:lcidtoname_downlevel.obj
 0002:00004518       ??_C@_1M@FGEAHEDM@?$AAf?$AAa?$AA?9?$AAI?$AAR?$AA?$AA@ 0000000180033518     libucrt:lcidtoname_downlevel.obj
 0002:00004528       ??_C@_1M@KBMAIBFN@?$AAv?$AAi?$AA?9?$AAV?$AAN?$AA?$AA@ 0000000180033528     libucrt:lcidtoname_downlevel.obj
 0002:00004538       ??_C@_1M@GPCBKDJK@?$AAh?$AAy?$AA?9?$AAA?$AAM?$AA?$AA@ 0000000180033538     libucrt:lcidtoname_downlevel.obj
 0002:00004548       ??_C@_1BG@BECMDDJB@?$AAa?$AAz?$AA?9?$AAA?$AAZ?$AA?9?$AAL?$AAa?$AAt?$AAn?$AA?$AA@ 0000000180033548     libucrt:lcidtoname_downlevel.obj
 0002:00004560       ??_C@_1M@MAOFCAEA@?$AAe?$AAu?$AA?9?$AAE?$AAS?$AA?$AA@ 0000000180033560     libucrt:lcidtoname_downlevel.obj
 0002:00004570       ??_C@_1M@IGHABKPI@?$AAm?$AAk?$AA?9?$AAM?$AAK?$AA?$AA@ 0000000180033570     libucrt:lcidtoname_downlevel.obj
 0002:00004580       ??_C@_1M@IAIGNEJG@?$AAt?$AAn?$AA?9?$AAZ?$AAA?$AA?$AA@ 0000000180033580     libucrt:lcidtoname_downlevel.obj
 0002:00004590       ??_C@_1M@IIJCOJFA@?$AAx?$AAh?$AA?9?$AAZ?$AAA?$AA?$AA@ 0000000180033590     libucrt:lcidtoname_downlevel.obj
 0002:000045a0       ??_C@_1M@LGPJHNJH@?$AAz?$AAu?$AA?9?$AAZ?$AAA?$AA?$AA@ 00000001800335a0     libucrt:lcidtoname_downlevel.obj
 0002:000045b0       ??_C@_1M@HOKAOIO@?$AAa?$AAf?$AA?9?$AAZ?$AAA?$AA?$AA@ 00000001800335b0     libucrt:lcidtoname_downlevel.obj
 0002:000045c0       ??_C@_1M@DPCLHLIE@?$AAk?$AAa?$AA?9?$AAG?$AAE?$AA?$AA@ 00000001800335c0     libucrt:lcidtoname_downlevel.obj
 0002:000045d0       ??_C@_1M@BLKMHJBI@?$AAf?$AAo?$AA?9?$AAF?$AAO?$AA?$AA@ 00000001800335d0     libucrt:lcidtoname_downlevel.obj
 0002:000045e0       ??_C@_1M@LGGJAPPB@?$AAh?$AAi?$AA?9?$AAI?$AAN?$AA?$AA@ 00000001800335e0     libucrt:lcidtoname_downlevel.obj
 0002:000045f0       ??_C@_1M@FIKPIHFE@?$AAm?$AAt?$AA?9?$AAM?$AAT?$AA?$AA@ 00000001800335f0     libucrt:lcidtoname_downlevel.obj
 0002:00004600       ??_C@_1M@HEGGPBFA@?$AAs?$AAe?$AA?9?$AAN?$AAO?$AA?$AA@ 0000000180033600     libucrt:lcidtoname_downlevel.obj
 0002:00004610       ??_C@_1M@EIBJEEPA@?$AAm?$AAs?$AA?9?$AAM?$AAY?$AA?$AA@ 0000000180033610     libucrt:lcidtoname_downlevel.obj
 0002:00004620       ??_C@_1M@FHLBGMPP@?$AAk?$AAk?$AA?9?$AAK?$AAZ?$AA?$AA@ 0000000180033620     libucrt:lcidtoname_downlevel.obj
 0002:00004630       ??_C@_1M@NGJJLCGI@?$AAk?$AAy?$AA?9?$AAK?$AAG?$AA?$AA@ 0000000180033630     libucrt:lcidtoname_downlevel.obj
 0002:00004640       ??_C@_1M@GIENNBFC@?$AAs?$AAw?$AA?9?$AAK?$AAE?$AA?$AA@ 0000000180033640     libucrt:lcidtoname_downlevel.obj
 0002:00004650       ??_C@_1BG@NDGMJIMJ@?$AAu?$AAz?$AA?9?$AAU?$AAZ?$AA?9?$AAL?$AAa?$AAt?$AAn?$AA?$AA@ 0000000180033650     libucrt:lcidtoname_downlevel.obj
 0002:00004668       ??_C@_1M@IDCCIHBC@?$AAt?$AAt?$AA?9?$AAR?$AAU?$AA?$AA@ 0000000180033668     libucrt:lcidtoname_downlevel.obj
 0002:00004678       ??_C@_1M@LOICPMOJ@?$AAb?$AAn?$AA?9?$AAI?$AAN?$AA?$AA@ 0000000180033678     libucrt:lcidtoname_downlevel.obj
 0002:00004688       ??_C@_1M@KPKKNEAH@?$AAp?$AAa?$AA?9?$AAI?$AAN?$AA?$AA@ 0000000180033688     libucrt:lcidtoname_downlevel.obj
 0002:00004698       ??_C@_1M@PJGPPBOG@?$AAg?$AAu?$AA?9?$AAI?$AAN?$AA?$AA@ 0000000180033698     libucrt:lcidtoname_downlevel.obj
 0002:000046a8       ??_C@_1M@KMKMOPHI@?$AAt?$AAa?$AA?9?$AAI?$AAN?$AA?$AA@ 00000001800336a8     libucrt:lcidtoname_downlevel.obj
 0002:000046b8       ??_C@_1M@KFEHEPAC@?$AAt?$AAe?$AA?9?$AAI?$AAN?$AA?$AA@ 00000001800336b8     libucrt:lcidtoname_downlevel.obj
 0002:000046c8       ??_C@_1M@CDCLMGHI@?$AAk?$AAn?$AA?9?$AAI?$AAN?$AA?$AA@ 00000001800336c8     libucrt:lcidtoname_downlevel.obj
 0002:000046d8       ??_C@_1M@MIODLDKF@?$AAm?$AAl?$AA?9?$AAI?$AAN?$AA?$AA@ 00000001800336d8     libucrt:lcidtoname_downlevel.obj
 0002:000046e8       ??_C@_1M@PBIEACPO@?$AAm?$AAr?$AA?9?$AAI?$AAN?$AA?$AA@ 00000001800336e8     libucrt:lcidtoname_downlevel.obj
 0002:000046f8       ??_C@_1M@NIDEAGPH@?$AAs?$AAa?$AA?9?$AAI?$AAN?$AA?$AA@ 00000001800336f8     libucrt:lcidtoname_downlevel.obj
 0002:00004708       ??_C@_1M@FHIHCBIO@?$AAm?$AAn?$AA?9?$AAM?$AAN?$AA?$AA@ 0000000180033708     libucrt:lcidtoname_downlevel.obj
 0002:00004718       ??_C@_1M@JAIJPENP@?$AAc?$AAy?$AA?9?$AAG?$AAB?$AA?$AA@ 0000000180033718     libucrt:lcidtoname_downlevel.obj
 0002:00004728       ??_C@_1M@PHGFBEPN@?$AAg?$AAl?$AA?9?$AAE?$AAS?$AA?$AA@ 0000000180033728     libucrt:lcidtoname_downlevel.obj
 0002:00004738       ??_C@_1O@KPIPDNCP@?$AAk?$AAo?$AAk?$AA?9?$AAI?$AAN?$AA?$AA@ 0000000180033738     libucrt:lcidtoname_downlevel.obj
 0002:00004748       ??_C@_1O@KNHJLDJA@?$AAs?$AAy?$AAr?$AA?9?$AAS?$AAY?$AA?$AA@ 0000000180033748     libucrt:lcidtoname_downlevel.obj
 0002:00004758       ??_C@_1O@MKEKBLAH@?$AAd?$AAi?$AAv?$AA?9?$AAM?$AAV?$AA?$AA@ 0000000180033758     libucrt:lcidtoname_downlevel.obj
 0002:00004768       ??_C@_1O@OHDCKDDF@?$AAq?$AAu?$AAz?$AA?9?$AAB?$AAO?$AA?$AA@ 0000000180033768     libucrt:lcidtoname_downlevel.obj
 0002:00004778       ??_C@_1M@LEPJNLFD@?$AAn?$AAs?$AA?9?$AAZ?$AAA?$AA?$AA@ 0000000180033778     libucrt:lcidtoname_downlevel.obj
 0002:00004788       ??_C@_1M@OMLEIIJB@?$AAm?$AAi?$AA?9?$AAN?$AAZ?$AA?$AA@ 0000000180033788     libucrt:lcidtoname_downlevel.obj
 0002:00004798       ??_C@_1M@PMPEAILG@?$AAa?$AAr?$AA?9?$AAI?$AAQ?$AA?$AA@ 0000000180033798     libucrt:lcidtoname_downlevel.obj
 0002:000047a8       ??_C@_1M@CNKPNOEE@?$AAd?$AAe?$AA?9?$AAC?$AAH?$AA?$AA@ 00000001800337a8     libucrt:lcidtoname_downlevel.obj
 0002:000047b8       ??_C@_1M@LKMGMLKO@?$AAe?$AAn?$AA?9?$AAG?$AAB?$AA?$AA@ 00000001800337b8     libucrt:lcidtoname_downlevel.obj
 0002:000047c8       ??_C@_1M@PGKJFFGL@?$AAe?$AAs?$AA?9?$AAM?$AAX?$AA?$AA@ 00000001800337c8     libucrt:lcidtoname_downlevel.obj
 0002:000047d8       ??_C@_1M@DNNANBDC@?$AAf?$AAr?$AA?9?$AAB?$AAE?$AA?$AA@ 00000001800337d8     libucrt:lcidtoname_downlevel.obj
 0002:000047e8       ??_C@_1M@HLGMDFHM@?$AAi?$AAt?$AA?9?$AAC?$AAH?$AA?$AA@ 00000001800337e8     libucrt:lcidtoname_downlevel.obj
 0002:000047f8       ??_C@_1M@CLLBGJH@?$AAn?$AAl?$AA?9?$AAB?$AAE?$AA?$AA@ 00000001800337f8     libucrt:lcidtoname_downlevel.obj
 0002:00004808       ??_C@_1M@BODBOGLF@?$AAn?$AAn?$AA?9?$AAN?$AAO?$AA?$AA@ 0000000180033808     libucrt:lcidtoname_downlevel.obj
 0002:00004818       ??_C@_1M@HFFAHKAD@?$AAp?$AAt?$AA?9?$AAP?$AAT?$AA?$AA@ 0000000180033818     libucrt:lcidtoname_downlevel.obj
 0002:00004828       ??_C@_1BG@LNOAKHIE@?$AAs?$AAr?$AA?9?$AAS?$AAP?$AA?9?$AAL?$AAa?$AAt?$AAn?$AA?$AA@ 0000000180033828     libucrt:lcidtoname_downlevel.obj
 0002:00004840       ??_C@_1M@HBMHBGAK@?$AAs?$AAv?$AA?9?$AAF?$AAI?$AA?$AA@ 0000000180033840     libucrt:lcidtoname_downlevel.obj
 0002:00004850       ??_C@_1BG@DGCJGJBE@?$AAa?$AAz?$AA?9?$AAA?$AAZ?$AA?9?$AAC?$AAy?$AAr?$AAl?$AA?$AA@ 0000000180033850     libucrt:lcidtoname_downlevel.obj
 0002:00004868       ??_C@_1M@KEJDAAHB@?$AAs?$AAe?$AA?9?$AAS?$AAE?$AA?$AA@ 0000000180033868     libucrt:lcidtoname_downlevel.obj
 0002:00004878       ??_C@_1M@HEIBJJAD@?$AAm?$AAs?$AA?9?$AAB?$AAN?$AA?$AA@ 0000000180033878     libucrt:lcidtoname_downlevel.obj
 0002:00004888       ??_C@_1BG@PBGJMCEM@?$AAu?$AAz?$AA?9?$AAU?$AAZ?$AA?9?$AAC?$AAy?$AAr?$AAl?$AA?$AA@ 0000000180033888     libucrt:lcidtoname_downlevel.obj
 0002:000048a0       ??_C@_1O@LAOBCMDF@?$AAq?$AAu?$AAz?$AA?9?$AAE?$AAC?$AA?$AA@ 00000001800338a0     libucrt:lcidtoname_downlevel.obj
 0002:000048b0       ??_C@_1M@POEEMAIO@?$AAa?$AAr?$AA?9?$AAE?$AAG?$AA?$AA@ 00000001800338b0     libucrt:lcidtoname_downlevel.obj
 0002:000048c0       ??_C@_1M@EFAKDEDL@?$AAz?$AAh?$AA?9?$AAH?$AAK?$AA?$AA@ 00000001800338c0     libucrt:lcidtoname_downlevel.obj
 0002:000048d0       ??_C@_1M@HKKIJHGI@?$AAd?$AAe?$AA?9?$AAA?$AAT?$AA?$AA@ 00000001800338d0     libucrt:lcidtoname_downlevel.obj
 0002:000048e0       ??_C@_1M@KBFBEHJF@?$AAe?$AAn?$AA?9?$AAA?$AAU?$AA?$AA@ 00000001800338e0     libucrt:lcidtoname_downlevel.obj
 0002:000048f0       ??_C@_1M@MNPLFAAH@?$AAe?$AAs?$AA?9?$AAE?$AAS?$AA?$AA@ 00000001800338f0     libucrt:lcidtoname_downlevel.obj
 0002:00004900       ??_C@_1M@HJOOJFMA@?$AAf?$AAr?$AA?9?$AAC?$AAA?$AA?$AA@ 0000000180033900     libucrt:lcidtoname_downlevel.obj
 0002:00004910       ??_C@_1BG@JPOFPNAB@?$AAs?$AAr?$AA?9?$AAS?$AAP?$AA?9?$AAC?$AAy?$AAr?$AAl?$AA?$AA@ 0000000180033910     libucrt:lcidtoname_downlevel.obj
 0002:00004928       ??_C@_1M@LNFOCMOB@?$AAs?$AAe?$AA?9?$AAF?$AAI?$AA?$AA@ 0000000180033928     libucrt:lcidtoname_downlevel.obj
 0002:00004938       ??_C@_1O@MGJBOAMB@?$AAq?$AAu?$AAz?$AA?9?$AAP?$AAE?$AA?$AA@ 0000000180033938     libucrt:lcidtoname_downlevel.obj
 0002:00004948       ??_C@_1M@GJINLBOK@?$AAa?$AAr?$AA?9?$AAL?$AAY?$AA?$AA@ 0000000180033948     libucrt:lcidtoname_downlevel.obj
 0002:00004958       ??_C@_1M@GGMNHJNL@?$AAz?$AAh?$AA?9?$AAS?$AAG?$AA?$AA@ 0000000180033958     libucrt:lcidtoname_downlevel.obj
 0002:00004968       ??_C@_1M@HOIKODND@?$AAd?$AAe?$AA?9?$AAL?$AAU?$AA?$AA@ 0000000180033968     libucrt:lcidtoname_downlevel.obj
 0002:00004978       ??_C@_1M@DDOCCGFG@?$AAe?$AAn?$AA?9?$AAC?$AAA?$AA?$AA@ 0000000180033978     libucrt:lcidtoname_downlevel.obj
 0002:00004988       ??_C@_1M@BNOEMJLF@?$AAe?$AAs?$AA?9?$AAG?$AAT?$AA?$AA@ 0000000180033988     libucrt:lcidtoname_downlevel.obj
 0002:00004998       ??_C@_1M@EOGNKEK@?$AAf?$AAr?$AA?9?$AAC?$AAH?$AA?$AA@ 0000000180033998     libucrt:lcidtoname_downlevel.obj
 0002:000049a8       ??_C@_1M@FLIDJFHL@?$AAh?$AAr?$AA?9?$AAB?$AAA?$AA?$AA@ 00000001800339a8     libucrt:lcidtoname_downlevel.obj
 0002:000049b8       ??_C@_1O@FMCELNAJ@?$AAs?$AAm?$AAj?$AA?9?$AAN?$AAO?$AA?$AA@ 00000001800339b8     libucrt:lcidtoname_downlevel.obj
 0002:000049c8       ??_C@_1M@JHGLJMGJ@?$AAa?$AAr?$AA?9?$AAD?$AAZ?$AA?$AA@ 00000001800339c8     libucrt:lcidtoname_downlevel.obj
 0002:000049d8       ??_C@_1M@JKKFDCNP@?$AAz?$AAh?$AA?9?$AAM?$AAO?$AA?$AA@ 00000001800339d8     libucrt:lcidtoname_downlevel.obj
 0002:000049e8       ??_C@_1M@GEEFALPE@?$AAd?$AAe?$AA?9?$AAL?$AAI?$AA?$AA@ 00000001800339e8     libucrt:lcidtoname_downlevel.obj
 0002:000049f8       ??_C@_1M@IGEOFBG@?$AAe?$AAn?$AA?9?$AAN?$AAZ?$AA?$AA@ 00000001800339f8     libucrt:lcidtoname_downlevel.obj
 0002:00004a08       ??_C@_1M@KDBONEHP@?$AAe?$AAs?$AA?9?$AAC?$AAR?$AA?$AA@ 0000000180033a08     libucrt:lcidtoname_downlevel.obj
 0002:00004a18       ??_C@_1M@FHMDOHNN@?$AAf?$AAr?$AA?9?$AAL?$AAU?$AA?$AA@ 0000000180033a18     libucrt:lcidtoname_downlevel.obj
 0002:00004a28       ??_C@_1BG@NFKKMAFG@?$AAb?$AAs?$AA?9?$AAB?$AAA?$AA?9?$AAL?$AAa?$AAt?$AAn?$AA?$AA@ 0000000180033a28     libucrt:lcidtoname_downlevel.obj
 0002:00004a40       ??_C@_1O@IMNBEMCI@?$AAs?$AAm?$AAj?$AA?9?$AAS?$AAE?$AA?$AA@ 0000000180033a40     libucrt:lcidtoname_downlevel.obj
 0002:00004a50       ??_C@_1M@DHHMBNDP@?$AAa?$AAr?$AA?9?$AAM?$AAA?$AA?$AA@ 0000000180033a50     libucrt:lcidtoname_downlevel.obj
 0002:00004a60       ??_C@_1M@BNBLJCGH@?$AAe?$AAn?$AA?9?$AAI?$AAE?$AA?$AA@ 0000000180033a60     libucrt:lcidtoname_downlevel.obj
 0002:00004a70       ??_C@_1M@GEPAFMDL@?$AAe?$AAs?$AA?9?$AAP?$AAA?$AA?$AA@ 0000000180033a70     libucrt:lcidtoname_downlevel.obj
 0002:00004a80       ??_C@_1M@OJONDMDL@?$AAf?$AAr?$AA?9?$AAM?$AAC?$AA?$AA@ 0000000180033a80     libucrt:lcidtoname_downlevel.obj
 0002:00004a90       ??_C@_1BG@OBCNFJB@?$AAs?$AAr?$AA?9?$AAB?$AAA?$AA?9?$AAL?$AAa?$AAt?$AAn?$AA?$AA@ 0000000180033a90     libucrt:lcidtoname_downlevel.obj
 0002:00004aa8       ??_C@_1O@KEMEEGPO@?$AAs?$AAm?$AAa?$AA?9?$AAN?$AAO?$AA?$AA@ 0000000180033aa8     libucrt:lcidtoname_downlevel.obj
 0002:00004ab8       ??_C@_1M@ELMGFODK@?$AAa?$AAr?$AA?9?$AAT?$AAN?$AA?$AA@ 0000000180033ab8     libucrt:lcidtoname_downlevel.obj
 0002:00004ac8       ??_C@_1M@BHDLHFAF@?$AAe?$AAn?$AA?9?$AAZ?$AAA?$AA?$AA@ 0000000180033ac8     libucrt:lcidtoname_downlevel.obj
 0002:00004ad8       ??_C@_1M@BMGIGLIF@?$AAe?$AAs?$AA?9?$AAD?$AAO?$AA?$AA@ 0000000180033ad8     libucrt:lcidtoname_downlevel.obj
 0002:00004ae8       ??_C@_1BG@CMBHIPBE@?$AAs?$AAr?$AA?9?$AAB?$AAA?$AA?9?$AAC?$AAy?$AAr?$AAl?$AA?$AA@ 0000000180033ae8     libucrt:lcidtoname_downlevel.obj
 0002:00004b00       ??_C@_1O@HEDBLHNP@?$AAs?$AAm?$AAa?$AA?9?$AAS?$AAE?$AA?$AA@ 0000000180033b00     libucrt:lcidtoname_downlevel.obj
 0002:00004b10       ??_C@_1M@DAGCADIM@?$AAa?$AAr?$AA?9?$AAO?$AAM?$AA?$AA@ 0000000180033b10     libucrt:lcidtoname_downlevel.obj
 0002:00004b20       ??_C@_1M@FODLMICG@?$AAe?$AAn?$AA?9?$AAJ?$AAM?$AA?$AA@ 0000000180033b20     libucrt:lcidtoname_downlevel.obj
 0002:00004b30       ??_C@_1M@DNMLCIHB@?$AAe?$AAs?$AA?9?$AAV?$AAE?$AA?$AA@ 0000000180033b30     libucrt:lcidtoname_downlevel.obj
 0002:00004b40       ??_C@_1O@EOKHMKJK@?$AAs?$AAm?$AAs?$AA?9?$AAF?$AAI?$AA?$AA@ 0000000180033b40     libucrt:lcidtoname_downlevel.obj
 0002:00004b50       ??_C@_1M@CAFJMKOF@?$AAa?$AAr?$AA?9?$AAY?$AAE?$AA?$AA@ 0000000180033b50     libucrt:lcidtoname_downlevel.obj
 0002:00004b60       ??_C@_1M@CBFHIJLI@?$AAe?$AAn?$AA?9?$AAC?$AAB?$AA?$AA@ 0000000180033b60     libucrt:lcidtoname_downlevel.obj
 0002:00004b70       ??_C@_1M@BGNFLDN@?$AAe?$AAs?$AA?9?$AAC?$AAO?$AA?$AA@ 0000000180033b70     libucrt:lcidtoname_downlevel.obj
 0002:00004b80       ??_C@_1O@JMPHMAMC@?$AAs?$AAm?$AAn?$AA?9?$AAF?$AAI?$AA?$AA@ 0000000180033b80     libucrt:lcidtoname_downlevel.obj
 0002:00004b90       ??_C@_1M@JLANABKE@?$AAa?$AAr?$AA?9?$AAS?$AAY?$AA?$AA@ 0000000180033b90     libucrt:lcidtoname_downlevel.obj
 0002:00004ba0       ??_C@_1M@HPKGCFGN@?$AAe?$AAn?$AA?9?$AAB?$AAZ?$AA?$AA@ 0000000180033ba0     libucrt:lcidtoname_downlevel.obj
 0002:00004bb0       ??_C@_1M@OLJCMLGM@?$AAe?$AAs?$AA?9?$AAP?$AAE?$AA?$AA@ 0000000180033bb0     libucrt:lcidtoname_downlevel.obj
 0002:00004bc0       ??_C@_1M@MKKGFKLE@?$AAa?$AAr?$AA?9?$AAJ?$AAO?$AA?$AA@ 0000000180033bc0     libucrt:lcidtoname_downlevel.obj
 0002:00004bd0       ??_C@_1M@EKPGLDNI@?$AAe?$AAn?$AA?9?$AAT?$AAT?$AA?$AA@ 0000000180033bd0     libucrt:lcidtoname_downlevel.obj
 0002:00004be0       ??_C@_1M@OONGHFHE@?$AAe?$AAs?$AA?9?$AAA?$AAR?$AA?$AA@ 0000000180033be0     libucrt:lcidtoname_downlevel.obj
 0002:00004bf0       ??_C@_1M@OOJFGBHE@?$AAa?$AAr?$AA?9?$AAL?$AAB?$AA?$AA@ 0000000180033bf0     libucrt:lcidtoname_downlevel.obj
 0002:00004c00       ??_C@_1M@GCEJHNEG@?$AAe?$AAn?$AA?9?$AAZ?$AAW?$AA?$AA@ 0000000180033c00     libucrt:lcidtoname_downlevel.obj
 0002:00004c10       ??_C@_1M@JNOCAHJI@?$AAe?$AAs?$AA?9?$AAE?$AAC?$AA?$AA@ 0000000180033c10     libucrt:lcidtoname_downlevel.obj
 0002:00004c20       ??_C@_1M@JEFHPGGB@?$AAa?$AAr?$AA?9?$AAK?$AAW?$AA?$AA@ 0000000180033c20     libucrt:lcidtoname_downlevel.obj
 0002:00004c30       ??_C@_1M@MLKIBJOJ@?$AAe?$AAn?$AA?9?$AAP?$AAH?$AA?$AA@ 0000000180033c30     libucrt:lcidtoname_downlevel.obj
 0002:00004c40       ??_C@_1M@BDNIPEND@?$AAe?$AAs?$AA?9?$AAC?$AAL?$AA?$AA@ 0000000180033c40     libucrt:lcidtoname_downlevel.obj
 0002:00004c50       ??_C@_1M@MPNMEKBD@?$AAa?$AAr?$AA?9?$AAA?$AAE?$AA?$AA@ 0000000180033c50     libucrt:lcidtoname_downlevel.obj
 0002:00004c60       ??_C@_1M@KBJALCPI@?$AAe?$AAs?$AA?9?$AAU?$AAY?$AA?$AA@ 0000000180033c60     libucrt:lcidtoname_downlevel.obj
 0002:00004c70       ??_C@_1M@LLCCOAGA@?$AAa?$AAr?$AA?9?$AAB?$AAH?$AA?$AA@ 0000000180033c70     libucrt:lcidtoname_downlevel.obj
 0002:00004c80       ??_C@_1M@PBFNCDEL@?$AAe?$AAs?$AA?9?$AAP?$AAY?$AA?$AA@ 0000000180033c80     libucrt:lcidtoname_downlevel.obj
 0002:00004c90       ??_C@_1M@EDGINPNP@?$AAa?$AAr?$AA?9?$AAQ?$AAA?$AA?$AA@ 0000000180033c90     libucrt:lcidtoname_downlevel.obj
 0002:00004ca0       ??_C@_1M@MKDBIIJI@?$AAe?$AAs?$AA?9?$AAB?$AAO?$AA?$AA@ 0000000180033ca0     libucrt:lcidtoname_downlevel.obj
 0002:00004cb0       ??_C@_1M@CPKKEBLD@?$AAe?$AAs?$AA?9?$AAS?$AAV?$AA?$AA@ 0000000180033cb0     libucrt:lcidtoname_downlevel.obj
 0002:00004cc0       ??_C@_1M@NDBGMMJL@?$AAe?$AAs?$AA?9?$AAH?$AAN?$AA?$AA@ 0000000180033cc0     libucrt:lcidtoname_downlevel.obj
 0002:00004cd0       ??_C@_1M@JIJIBHDP@?$AAe?$AAs?$AA?9?$AAN?$AAI?$AA?$AA@ 0000000180033cd0     libucrt:lcidtoname_downlevel.obj
 0002:00004ce0       ??_C@_1M@CGFMKEEK@?$AAe?$AAs?$AA?9?$AAP?$AAR?$AA?$AA@ 0000000180033ce0     libucrt:lcidtoname_downlevel.obj
 0002:00004cf0       ??_C@_1O@ICJHKIIK@?$AAz?$AAh?$AA?9?$AAC?$AAH?$AAT?$AA?$AA@ 0000000180033cf0     libucrt:lcidtoname_downlevel.obj
 0002:00004d00       ??_C@_15CLNEJCE@?$AAs?$AAr?$AA?$AA@ 0000000180033d00     libucrt:lcidtoname_downlevel.obj
 0002:00005b50       ??_C@_1M@KAHEKEIG@?$AAa?$AAf?$AA?9?$AAz?$AAa?$AA?$AA@ 0000000180034b50     libucrt:lcidtoname_downlevel.obj
 0002:00005b60       ??_C@_1M@GIECOABL@?$AAa?$AAr?$AA?9?$AAa?$AAe?$AA?$AA@ 0000000180034b60     libucrt:lcidtoname_downlevel.obj
 0002:00005b70       ??_C@_1M@BMLMEKGI@?$AAa?$AAr?$AA?9?$AAb?$AAh?$AA?$AA@ 0000000180034b70     libucrt:lcidtoname_downlevel.obj
 0002:00005b80       ??_C@_1M@DAPFDGGB@?$AAa?$AAr?$AA?9?$AAd?$AAz?$AA?$AA@ 0000000180034b80     libucrt:lcidtoname_downlevel.obj
 0002:00005b90       ??_C@_1M@FJNKGKIG@?$AAa?$AAr?$AA?9?$AAe?$AAg?$AA?$AA@ 0000000180034b90     libucrt:lcidtoname_downlevel.obj
 0002:00005ba0       ??_C@_1M@FLGKKCLO@?$AAa?$AAr?$AA?9?$AAi?$AAq?$AA?$AA@ 0000000180034ba0     libucrt:lcidtoname_downlevel.obj
 0002:00005bb0       ??_C@_1M@GNDIPALM@?$AAa?$AAr?$AA?9?$AAj?$AAo?$AA?$AA@ 0000000180034bb0     libucrt:lcidtoname_downlevel.obj
 0002:00005bc0       ??_C@_1M@DDMJFMGJ@?$AAa?$AAr?$AA?9?$AAk?$AAw?$AA?$AA@ 0000000180034bc0     libucrt:lcidtoname_downlevel.obj
 0002:00005bd0       ??_C@_1M@EJALMLHM@?$AAa?$AAr?$AA?9?$AAl?$AAb?$AA?$AA@ 0000000180034bd0     libucrt:lcidtoname_downlevel.obj
 0002:00005be0       ??_C@_1M@MOBDBLOC@?$AAa?$AAr?$AA?9?$AAl?$AAy?$AA?$AA@ 0000000180034be0     libucrt:lcidtoname_downlevel.obj
 0002:00005bf0       ??_C@_1M@JAOCLHDH@?$AAa?$AAr?$AA?9?$AAm?$AAa?$AA?$AA@ 0000000180034bf0     libucrt:lcidtoname_downlevel.obj
 0002:00005c00       ??_C@_1M@JHPMKJIE@?$AAa?$AAr?$AA?9?$AAo?$AAm?$AA?$AA@ 0000000180034c00     libucrt:lcidtoname_downlevel.obj
 0002:00005c10       ??_C@_1M@OEPGHFNH@?$AAa?$AAr?$AA?9?$AAq?$AAa?$AA?$AA@ 0000000180034c10     libucrt:lcidtoname_downlevel.obj
 0002:00005c20       ??_C@_1M@KJDONENM@?$AAa?$AAr?$AA?9?$AAs?$AAa?$AA?$AA@ 0000000180034c20     libucrt:lcidtoname_downlevel.obj
 0002:00005c30       ??_C@_1M@DMJDKLKM@?$AAa?$AAr?$AA?9?$AAs?$AAy?$AA?$AA@ 0000000180034c30     libucrt:lcidtoname_downlevel.obj
 0002:00005c40       ??_C@_1M@OMFIPEDC@?$AAa?$AAr?$AA?9?$AAt?$AAn?$AA?$AA@ 0000000180034c40     libucrt:lcidtoname_downlevel.obj
 0002:00005c50       ??_C@_1M@IHMHGAON@?$AAa?$AAr?$AA?9?$AAy?$AAe?$AA?$AA@ 0000000180034c50     libucrt:lcidtoname_downlevel.obj
 0002:00005c60       ??_C@_1BG@KDCPGJGB@?$AAa?$AAz?$AA?9?$AAa?$AAz?$AA?9?$AAc?$AAy?$AAr?$AAl?$AA?$AA@ 0000000180034c60     libucrt:lcidtoname_downlevel.obj
 0002:00005c78       ??_C@_1BG@IBCKDDOE@?$AAa?$AAz?$AA?9?$AAa?$AAz?$AA?9?$AAl?$AAa?$AAt?$AAn?$AA?$AA@ 0000000180034c78     libucrt:lcidtoname_downlevel.obj
 0002:00005c90       ??_C@_1M@EGPFDCPD@?$AAb?$AAe?$AA?9?$AAb?$AAy?$AA?$AA@ 0000000180034c90     libucrt:lcidtoname_downlevel.obj
 0002:00005ca0       ??_C@_1M@PCMGMCGC@?$AAb?$AAg?$AA?9?$AAb?$AAg?$AA?$AA@ 0000000180034ca0     libucrt:lcidtoname_downlevel.obj
 0002:00005cb0       ??_C@_1M@BJBMFGOB@?$AAb?$AAn?$AA?9?$AAi?$AAn?$AA?$AA@ 0000000180034cb0     libucrt:lcidtoname_downlevel.obj
 0002:00005cc0       ??_C@_1BG@EAKMMACD@?$AAb?$AAs?$AA?9?$AAb?$AAa?$AA?9?$AAl?$AAa?$AAt?$AAn?$AA?$AA@ 0000000180034cc0     libucrt:lcidtoname_downlevel.obj
 0002:00005cd8       ??_C@_1M@KGADAODK@?$AAc?$AAa?$AA?9?$AAe?$AAs?$AA?$AA@ 0000000180034cd8     libucrt:lcidtoname_downlevel.obj
 0002:00005ce8       ??_C@_1M@COAJPDHI@?$AAc?$AAs?$AA?9?$AAc?$AAz?$AA?$AA@ 0000000180034ce8     libucrt:lcidtoname_downlevel.obj
 0002:00005cf8       ??_C@_1M@DHBHFONH@?$AAc?$AAy?$AA?9?$AAg?$AAb?$AA?$AA@ 0000000180034cf8     libucrt:lcidtoname_downlevel.obj
 0002:00005d08       ??_C@_1M@IMGKELGA@?$AAd?$AAa?$AA?9?$AAd?$AAk?$AA?$AA@ 0000000180034d08     libucrt:lcidtoname_downlevel.obj
 0002:00005d18       ??_C@_1M@NNDGDNGA@?$AAd?$AAe?$AA?9?$AAa?$AAt?$AA?$AA@ 0000000180034d18     libucrt:lcidtoname_downlevel.obj
 0002:00005d28       ??_C@_1M@IKDBHEEM@?$AAd?$AAe?$AA?9?$AAc?$AAh?$AA?$AA@ 0000000180034d28     libucrt:lcidtoname_downlevel.obj
 0002:00005d38       ??_C@_1M@GFFOJMCJ@?$AAd?$AAe?$AA?9?$AAd?$AAe?$AA?$AA@ 0000000180034d38     libucrt:lcidtoname_downlevel.obj
 0002:00005d48       ??_C@_1M@MDNLKBPM@?$AAd?$AAe?$AA?9?$AAl?$AAi?$AA?$AA@ 0000000180034d48     libucrt:lcidtoname_downlevel.obj
 0002:00005d58       ??_C@_1M@NJBEEJNL@?$AAd?$AAe?$AA?9?$AAl?$AAu?$AA?$AA@ 0000000180034d58     libucrt:lcidtoname_downlevel.obj
 0002:00005d68       ??_C@_1O@GNNELBAP@?$AAd?$AAi?$AAv?$AA?9?$AAm?$AAv?$AA?$AA@ 0000000180034d68     libucrt:lcidtoname_downlevel.obj
 0002:00005d78       ??_C@_1M@EJLEOGAE@?$AAe?$AAl?$AA?9?$AAg?$AAr?$AA?$AA@ 0000000180034d78     libucrt:lcidtoname_downlevel.obj
 0002:00005d88       ??_C@_1M@GMPONJN@?$AAe?$AAn?$AA?9?$AAa?$AAu?$AA?$AA@ 0000000180034d88     libucrt:lcidtoname_downlevel.obj
 0002:00005d98       ??_C@_1M@NIDIIPGF@?$AAe?$AAn?$AA?9?$AAb?$AAz?$AA?$AA@ 0000000180034d98     libucrt:lcidtoname_downlevel.obj
 0002:00005da8       ??_C@_1M@JEHMIMFO@?$AAe?$AAn?$AA?9?$AAc?$AAa?$AA?$AA@ 0000000180034da8     libucrt:lcidtoname_downlevel.obj
 0002:00005db8       ??_C@_1M@IGMJCDLA@?$AAe?$AAn?$AA?9?$AAc?$AAb?$AA?$AA@ 0000000180034db8     libucrt:lcidtoname_downlevel.obj
 0002:00005dc8       ??_C@_1M@BNFIGBKG@?$AAe?$AAn?$AA?9?$AAg?$AAb?$AA?$AA@ 0000000180034dc8     libucrt:lcidtoname_downlevel.obj
 0002:00005dd8       ??_C@_1M@LKIFDIGP@?$AAe?$AAn?$AA?9?$AAi?$AAe?$AA?$AA@ 0000000180034dd8     libucrt:lcidtoname_downlevel.obj
 0002:00005de8       ??_C@_1M@PJKFGCCO@?$AAe?$AAn?$AA?9?$AAj?$AAm?$AA?$AA@ 0000000180034de8     libucrt:lcidtoname_downlevel.obj
 0002:00005df8       ??_C@_1M@KPPKEPBO@?$AAe?$AAn?$AA?9?$AAn?$AAz?$AA?$AA@ 0000000180034df8     libucrt:lcidtoname_downlevel.obj
 0002:00005e08       ??_C@_1M@GMDGLDOB@?$AAe?$AAn?$AA?9?$AAp?$AAh?$AA?$AA@ 0000000180034e08     libucrt:lcidtoname_downlevel.obj
 0002:00005e18       ??_C@_1M@ONGIBJNA@?$AAe?$AAn?$AA?9?$AAt?$AAt?$AA?$AA@ 0000000180034e18     libucrt:lcidtoname_downlevel.obj
 0002:00005e28       ??_C@_1M@LLODPCMM@?$AAe?$AAn?$AA?9?$AAu?$AAs?$AA?$AA@ 0000000180034e28     libucrt:lcidtoname_downlevel.obj
 0002:00005e38       ??_C@_1M@LAKFNPAN@?$AAe?$AAn?$AA?9?$AAz?$AAa?$AA?$AA@ 0000000180034e38     libucrt:lcidtoname_downlevel.obj
 0002:00005e48       ??_C@_1M@MFNHNHEO@?$AAe?$AAn?$AA?9?$AAz?$AAw?$AA?$AA@ 0000000180034e48     libucrt:lcidtoname_downlevel.obj
 0002:00005e58       ??_C@_1M@EJEINPHM@?$AAe?$AAs?$AA?9?$AAa?$AAr?$AA?$AA@ 0000000180034e58     libucrt:lcidtoname_downlevel.obj
 0002:00005e68       ??_C@_1M@GNKPCCJA@?$AAe?$AAs?$AA?9?$AAb?$AAo?$AA?$AA@ 0000000180034e68     libucrt:lcidtoname_downlevel.obj
 0002:00005e78       ??_C@_1M@LEEGFONL@?$AAe?$AAs?$AA?9?$AAc?$AAl?$AA?$AA@ 0000000180034e78     libucrt:lcidtoname_downlevel.obj
 0002:00005e88       ??_C@_1M@KGPDPBDF@?$AAe?$AAs?$AA?9?$AAc?$AAo?$AA?$AA@ 0000000180034e88     libucrt:lcidtoname_downlevel.obj
 0002:00005e98       ??_C@_1M@EIAHOHH@?$AAe?$AAs?$AA?9?$AAc?$AAr?$AA?$AA@ 0000000180034e98     libucrt:lcidtoname_downlevel.obj
 0002:00005ea8       ??_C@_1M@LLPGMBIN@?$AAe?$AAs?$AA?9?$AAd?$AAo?$AA?$AA@ 0000000180034ea8     libucrt:lcidtoname_downlevel.obj
 0002:00005eb8       ??_C@_1M@DKHMKNJA@?$AAe?$AAs?$AA?9?$AAe?$AAc?$AA?$AA@ 0000000180034eb8     libucrt:lcidtoname_downlevel.obj
 0002:00005ec8       ??_C@_1M@GKGFPKAP@?$AAe?$AAs?$AA?9?$AAe?$AAs?$AA?$AA@ 0000000180034ec8     libucrt:lcidtoname_downlevel.obj
 0002:00005ed8       ??_C@_1M@LKHKGDLN@?$AAe?$AAs?$AA?9?$AAg?$AAt?$AA?$AA@ 0000000180034ed8     libucrt:lcidtoname_downlevel.obj
 0002:00005ee8       ??_C@_1M@HEIIGGJD@?$AAe?$AAs?$AA?9?$AAh?$AAn?$AA?$AA@ 0000000180034ee8     libucrt:lcidtoname_downlevel.obj
 0002:00005ef8       ??_C@_1M@FBDHPPGD@?$AAe?$AAs?$AA?9?$AAm?$AAx?$AA?$AA@ 0000000180034ef8     libucrt:lcidtoname_downlevel.obj
 0002:00005f08       ??_C@_1M@DPAGLNDH@?$AAe?$AAs?$AA?9?$AAn?$AAi?$AA?$AA@ 0000000180034f08     libucrt:lcidtoname_downlevel.obj
 0002:00005f18       ??_C@_1M@MDGOPGDD@?$AAe?$AAs?$AA?9?$AAp?$AAa?$AA?$AA@ 0000000180034f18     libucrt:lcidtoname_downlevel.obj
 0002:00005f28       ??_C@_1M@EMAMGBGE@?$AAe?$AAs?$AA?9?$AAp?$AAe?$AA?$AA@ 0000000180034f28     libucrt:lcidtoname_downlevel.obj
 0002:00005f38       ??_C@_1M@IBMCAOEC@?$AAe?$AAs?$AA?9?$AAp?$AAr?$AA?$AA@ 0000000180034f38     libucrt:lcidtoname_downlevel.obj
 0002:00005f48       ??_C@_1M@FGMDIJED@?$AAe?$AAs?$AA?9?$AAp?$AAy?$AA?$AA@ 0000000180034f48     libucrt:lcidtoname_downlevel.obj
 0002:00005f58       ??_C@_1M@IIDEOLLL@?$AAe?$AAs?$AA?9?$AAs?$AAv?$AA?$AA@ 0000000180034f58     libucrt:lcidtoname_downlevel.obj
 0002:00005f68       ??_C@_1M@GAOBIPA@?$AAe?$AAs?$AA?9?$AAu?$AAy?$AA?$AA@ 0000000180034f68     libucrt:lcidtoname_downlevel.obj
 0002:00005f78       ??_C@_1M@JKFFICHJ@?$AAe?$AAs?$AA?9?$AAv?$AAe?$AA?$AA@ 0000000180034f78     libucrt:lcidtoname_downlevel.obj
 0002:00005f88       ??_C@_1M@PNMLOJDF@?$AAe?$AAt?$AA?9?$AAe?$AAe?$AA?$AA@ 0000000180034f88     libucrt:lcidtoname_downlevel.obj
 0002:00005f98       ??_C@_1M@GHHLIKEI@?$AAe?$AAu?$AA?9?$AAe?$AAs?$AA?$AA@ 0000000180034f98     libucrt:lcidtoname_downlevel.obj
 0002:00005fa8       ??_C@_1M@PBNONODE@?$AAf?$AAa?$AA?9?$AAi?$AAr?$AA?$AA@ 0000000180034fa8     libucrt:lcidtoname_downlevel.obj
 0002:00005fb8       ??_C@_1M@JEEHPMIL@?$AAf?$AAi?$AA?9?$AAf?$AAi?$AA?$AA@ 0000000180034fb8     libucrt:lcidtoname_downlevel.obj
 0002:00005fc8       ??_C@_1M@LMDCNDBA@?$AAf?$AAo?$AA?9?$AAf?$AAo?$AA?$AA@ 0000000180034fc8     libucrt:lcidtoname_downlevel.obj
 0002:00005fd8       ??_C@_1M@JKEOHLDK@?$AAf?$AAr?$AA?9?$AAb?$AAe?$AA?$AA@ 0000000180034fd8     libucrt:lcidtoname_downlevel.obj
 0002:00005fe8       ??_C@_1M@NOHADPMI@?$AAf?$AAr?$AA?9?$AAc?$AAa?$AA?$AA@ 0000000180034fe8     libucrt:lcidtoname_downlevel.obj
 0002:00005ff8       ??_C@_1M@KDHIHAEC@?$AAf?$AAr?$AA?9?$AAc?$AAh?$AA?$AA@ 0000000180034ff8     libucrt:lcidtoname_downlevel.obj
 0002:00006008       ??_C@_1M@MMBBFGAK@?$AAf?$AAr?$AA?9?$AAf?$AAr?$AA?$AA@ 0000000180035008     libucrt:lcidtoname_downlevel.obj
 0002:00006018       ??_C@_1M@PAFNENNF@?$AAf?$AAr?$AA?9?$AAl?$AAu?$AA?$AA@ 0000000180035018     libucrt:lcidtoname_downlevel.obj
 0002:00006028       ??_C@_1M@EOHDJGDD@?$AAf?$AAr?$AA?9?$AAm?$AAc?$AA?$AA@ 0000000180035028     libucrt:lcidtoname_downlevel.obj
 0002:00006038       ??_C@_1M@FAPLLOPF@?$AAg?$AAl?$AA?9?$AAe?$AAs?$AA?$AA@ 0000000180035038     libucrt:lcidtoname_downlevel.obj
 0002:00006048       ??_C@_1M@FOPBFLOO@?$AAg?$AAu?$AA?9?$AAi?$AAn?$AA?$AA@ 0000000180035048     libucrt:lcidtoname_downlevel.obj
 0002:00006058       ??_C@_1M@KBMCINPM@?$AAh?$AAe?$AA?9?$AAi?$AAl?$AA?$AA@ 0000000180035058     libucrt:lcidtoname_downlevel.obj
 0002:00006068       ??_C@_1M@BBPHKFPJ@?$AAh?$AAi?$AA?9?$AAi?$AAn?$AA?$AA@ 0000000180035068     libucrt:lcidtoname_downlevel.obj
 0002:00006078       ??_C@_1M@PMBNDPHD@?$AAh?$AAr?$AA?9?$AAb?$AAa?$AA?$AA@ 0000000180035078     libucrt:lcidtoname_downlevel.obj
 0002:00006088       ??_C@_1M@BPCKOEGE@?$AAh?$AAr?$AA?9?$AAh?$AAr?$AA?$AA@ 0000000180035088     libucrt:lcidtoname_downlevel.obj
 0002:00006098       ??_C@_1M@GACBMHKE@?$AAh?$AAu?$AA?9?$AAh?$AAu?$AA?$AA@ 0000000180035098     libucrt:lcidtoname_downlevel.obj
 0002:000060a8       ??_C@_1M@MILPAJJC@?$AAh?$AAy?$AA?9?$AAa?$AAm?$AA?$AA@ 00000001800350a8     libucrt:lcidtoname_downlevel.obj
 0002:000060b8       ??_C@_1M@BABBICEC@?$AAi?$AAd?$AA?9?$AAi?$AAd?$AA?$AA@ 00000001800350b8     libucrt:lcidtoname_downlevel.obj
 0002:000060c8       ??_C@_1M@BIKNHHPF@?$AAi?$AAs?$AA?9?$AAi?$AAs?$AA?$AA@ 00000001800350c8     libucrt:lcidtoname_downlevel.obj
 0002:000060d8       ??_C@_1M@NMPCJPHE@?$AAi?$AAt?$AA?9?$AAc?$AAh?$AA?$AA@ 00000001800350d8     libucrt:lcidtoname_downlevel.obj
 0002:000060e8       ??_C@_1M@GHKGFEDF@?$AAi?$AAt?$AA?9?$AAi?$AAt?$AA?$AA@ 00000001800350e8     libucrt:lcidtoname_downlevel.obj
 0002:000060f8       ??_C@_1M@NIEJCJJA@?$AAj?$AAa?$AA?9?$AAj?$AAp?$AA?$AA@ 00000001800350f8     libucrt:lcidtoname_downlevel.obj
 0002:00006108       ??_C@_1M@JILFNBIM@?$AAk?$AAa?$AA?9?$AAg?$AAe?$AA?$AA@ 0000000180035108     libucrt:lcidtoname_downlevel.obj
 0002:00006118       ??_C@_1M@PACPMGPH@?$AAk?$AAk?$AA?9?$AAk?$AAz?$AA?$AA@ 0000000180035118     libucrt:lcidtoname_downlevel.obj
 0002:00006128       ??_C@_1M@IELFGMHA@?$AAk?$AAn?$AA?9?$AAi?$AAn?$AA?$AA@ 0000000180035128     libucrt:lcidtoname_downlevel.obj
 0002:00006138       ??_C@_1O@IBBJHCH@?$AAk?$AAo?$AAk?$AA?9?$AAi?$AAn?$AA?$AA@ 0000000180035138     libucrt:lcidtoname_downlevel.obj
 0002:00006148       ??_C@_1M@DMHAEOGC@?$AAk?$AAo?$AA?9?$AAk?$AAr?$AA?$AA@ 0000000180035148     libucrt:lcidtoname_downlevel.obj
 0002:00006158       ??_C@_1M@HBAHBIGA@?$AAk?$AAy?$AA?9?$AAk?$AAg?$AA?$AA@ 0000000180035158     libucrt:lcidtoname_downlevel.obj
 0002:00006168       ??_C@_1M@KPMILCJG@?$AAl?$AAt?$AA?9?$AAl?$AAt?$AA?$AA@ 0000000180035168     libucrt:lcidtoname_downlevel.obj
 0002:00006178       ??_C@_1M@BDEKKCA@?$AAl?$AAv?$AA?9?$AAl?$AAv?$AA?$AA@ 0000000180035178     libucrt:lcidtoname_downlevel.obj
 0002:00006188       ??_C@_1M@ELCKCCJJ@?$AAm?$AAi?$AA?9?$AAn?$AAz?$AA?$AA@ 0000000180035188     libucrt:lcidtoname_downlevel.obj
 0002:00006198       ??_C@_1M@CBOOLAPA@?$AAm?$AAk?$AA?9?$AAm?$AAk?$AA?$AA@ 0000000180035198     libucrt:lcidtoname_downlevel.obj
 0002:000061a8       ??_C@_1M@GPHNBJKN@?$AAm?$AAl?$AA?9?$AAi?$AAn?$AA?$AA@ 00000001800351a8     libucrt:lcidtoname_downlevel.obj
 0002:000061b8       ??_C@_1M@PABJILIG@?$AAm?$AAn?$AA?9?$AAm?$AAn?$AA?$AA@ 00000001800351b8     libucrt:lcidtoname_downlevel.obj
 0002:000061c8       ??_C@_1M@FGBKKIPG@?$AAm?$AAr?$AA?9?$AAi?$AAn?$AA?$AA@ 00000001800351c8     libucrt:lcidtoname_downlevel.obj
 0002:000061d8       ??_C@_1M@NDBPDDAL@?$AAm?$AAs?$AA?9?$AAb?$AAn?$AA?$AA@ 00000001800351d8     libucrt:lcidtoname_downlevel.obj
 0002:000061e8       ??_C@_1M@OPIHOOPI@?$AAm?$AAs?$AA?9?$AAm?$AAy?$AA?$AA@ 00000001800351e8     libucrt:lcidtoname_downlevel.obj
 0002:000061f8       ??_C@_1M@PPDBCNFM@?$AAm?$AAt?$AA?9?$AAm?$AAt?$AA?$AA@ 00000001800351f8     libucrt:lcidtoname_downlevel.obj
 0002:00006208       ??_C@_1M@KDJDKMDD@?$AAn?$AAb?$AA?9?$AAn?$AAo?$AA?$AA@ 0000000180035208     libucrt:lcidtoname_downlevel.obj
 0002:00006218       ??_C@_1M@KFCFLMJP@?$AAn?$AAl?$AA?9?$AAb?$AAe?$AA?$AA@ 0000000180035218     libucrt:lcidtoname_downlevel.obj
 0002:00006228       ??_C@_1M@KPOPDDGO@?$AAn?$AAl?$AA?9?$AAn?$AAl?$AA?$AA@ 0000000180035228     libucrt:lcidtoname_downlevel.obj
 0002:00006238       ??_C@_1M@LJKPEMLN@?$AAn?$AAn?$AA?9?$AAn?$AAo?$AA?$AA@ 0000000180035238     libucrt:lcidtoname_downlevel.obj
 0002:00006248       ??_C@_1M@BDGHHBFL@?$AAn?$AAs?$AA?9?$AAz?$AAa?$AA?$AA@ 0000000180035248     libucrt:lcidtoname_downlevel.obj
 0002:00006258       ??_C@_1M@IDEHOAP@?$AAp?$AAa?$AA?9?$AAi?$AAn?$AA?$AA@ 0000000180035258     libucrt:lcidtoname_downlevel.obj
 0002:00006268       ??_C@_1M@HDBKGOGH@?$AAp?$AAl?$AA?9?$AAp?$AAl?$AA?$AA@ 0000000180035268     libucrt:lcidtoname_downlevel.obj
 0002:00006278       ??_C@_1M@LJLLCMEH@?$AAp?$AAt?$AA?9?$AAb?$AAr?$AA?$AA@ 0000000180035278     libucrt:lcidtoname_downlevel.obj
 0002:00006288       ??_C@_1M@NCMONAAL@?$AAp?$AAt?$AA?9?$AAp?$AAt?$AA?$AA@ 0000000180035288     libucrt:lcidtoname_downlevel.obj
 0002:00006298       ??_C@_1O@EAKMAJDN@?$AAq?$AAu?$AAz?$AA?9?$AAb?$AAo?$AA?$AA@ 0000000180035298     libucrt:lcidtoname_downlevel.obj
 0002:000062a8       ??_C@_1O@BHHPIGDN@?$AAq?$AAu?$AAz?$AA?9?$AAe?$AAc?$AA?$AA@ 00000001800352a8     libucrt:lcidtoname_downlevel.obj
 0002:000062b8       ??_C@_1O@GBAPEKMJ@?$AAq?$AAu?$AAz?$AA?9?$AAp?$AAe?$AA?$AA@ 00000001800352b8     libucrt:lcidtoname_downlevel.obj
 0002:000062c8       ??_C@_1M@CLGLEFBO@?$AAr?$AAo?$AA?9?$AAr?$AAo?$AA?$AA@ 00000001800352c8     libucrt:lcidtoname_downlevel.obj
 0002:000062d8       ??_C@_1M@CEEDODME@?$AAr?$AAu?$AA?9?$AAr?$AAu?$AA?$AA@ 00000001800352d8     libucrt:lcidtoname_downlevel.obj
 0002:000062e8       ??_C@_1M@HPKKKMPP@?$AAs?$AAa?$AA?9?$AAi?$AAn?$AA?$AA@ 00000001800352e8     libucrt:lcidtoname_downlevel.obj
 0002:000062f8       ??_C@_1M@BKMAIGOJ@?$AAs?$AAe?$AA?9?$AAf?$AAi?$AA?$AA@ 00000001800352f8     libucrt:lcidtoname_downlevel.obj
 0002:00006308       ??_C@_1M@NDPIFLFI@?$AAs?$AAe?$AA?9?$AAn?$AAo?$AA?$AA@ 0000000180035308     libucrt:lcidtoname_downlevel.obj
 0002:00006318       ??_C@_1M@DANKKHJ@?$AAs?$AAe?$AA?9?$AAs?$AAe?$AA?$AA@ 0000000180035318     libucrt:lcidtoname_downlevel.obj
 0002:00006328       ??_C@_1M@PNBLONPJ@?$AAs?$AAk?$AA?9?$AAs?$AAk?$AA?$AA@ 0000000180035328     libucrt:lcidtoname_downlevel.obj
 0002:00006338       ??_C@_1M@LFMODOAL@?$AAs?$AAl?$AA?9?$AAs?$AAi?$AA?$AA@ 0000000180035338     libucrt:lcidtoname_downlevel.obj
 0002:00006348       ??_C@_1O@DFKOMPG@?$AAs?$AAm?$AAa?$AA?9?$AAn?$AAo?$AA?$AA@ 0000000180035348     libucrt:lcidtoname_downlevel.obj
 0002:00006358       ??_C@_1O@NDKPBNNH@?$AAs?$AAm?$AAa?$AA?9?$AAs?$AAe?$AA?$AA@ 0000000180035358     libucrt:lcidtoname_downlevel.obj
 0002:00006368       ??_C@_1O@PLLKBHAB@?$AAs?$AAm?$AAj?$AA?9?$AAn?$AAo?$AA?$AA@ 0000000180035368     libucrt:lcidtoname_downlevel.obj
 0002:00006378       ??_C@_1O@CLEPOGCA@?$AAs?$AAm?$AAj?$AA?9?$AAs?$AAe?$AA?$AA@ 0000000180035378     libucrt:lcidtoname_downlevel.obj
 0002:00006388       ??_C@_1O@DLGJGKMK@?$AAs?$AAm?$AAn?$AA?9?$AAf?$AAi?$AA?$AA@ 0000000180035388     libucrt:lcidtoname_downlevel.obj
 0002:00006398       ??_C@_1O@OJDJGAJC@?$AAs?$AAm?$AAs?$AA?9?$AAf?$AAi?$AA?$AA@ 0000000180035398     libucrt:lcidtoname_downlevel.obj
 0002:000063a8       ??_C@_1M@BOFOGHPB@?$AAs?$AAq?$AA?9?$AAa?$AAl?$AA?$AA@ 00000001800353a8     libucrt:lcidtoname_downlevel.obj
 0002:000063b8       ??_C@_1BG@LJBBIPGB@?$AAs?$AAr?$AA?9?$AAb?$AAa?$AA?9?$AAc?$AAy?$AAr?$AAl?$AA?$AA@ 00000001800353b8     libucrt:lcidtoname_downlevel.obj
 0002:000063d0       ??_C@_1BG@JLBENFOE@?$AAs?$AAr?$AA?9?$AAb?$AAa?$AA?9?$AAl?$AAa?$AAt?$AAn?$AA?$AA@ 00000001800353d0     libucrt:lcidtoname_downlevel.obj
 0002:000063e8       ??_C@_1BG@KODPNHE@?$AAs?$AAr?$AA?9?$AAs?$AAp?$AA?9?$AAc?$AAy?$AAr?$AAl?$AA?$AA@ 00000001800353e8     libucrt:lcidtoname_downlevel.obj
 0002:00006400       ??_C@_1BG@CIOGKHPB@?$AAs?$AAr?$AA?9?$AAs?$AAp?$AA?9?$AAl?$AAa?$AAt?$AAn?$AA?$AA@ 0000000180035400     libucrt:lcidtoname_downlevel.obj
 0002:00006418       ??_C@_1M@NGFJLMAC@?$AAs?$AAv?$AA?9?$AAf?$AAi?$AA?$AA@ 0000000180035418     libucrt:lcidtoname_downlevel.obj
 0002:00006428       ??_C@_1M@MPJEJAJC@?$AAs?$AAv?$AA?9?$AAs?$AAe?$AA?$AA@ 0000000180035428     libucrt:lcidtoname_downlevel.obj
 0002:00006438       ??_C@_1M@MPNDHLFK@?$AAs?$AAw?$AA?9?$AAk?$AAe?$AA?$AA@ 0000000180035438     libucrt:lcidtoname_downlevel.obj
 0002:00006448       ??_C@_1O@KOHBJJI@?$AAs?$AAy?$AAr?$AA?9?$AAs?$AAy?$AA?$AA@ 0000000180035448     libucrt:lcidtoname_downlevel.obj
 0002:00006458       ??_C@_1M@LDCEFHA@?$AAt?$AAa?$AA?9?$AAi?$AAn?$AA?$AA@ 0000000180035458     libucrt:lcidtoname_downlevel.obj
 0002:00006468       ??_C@_1M@CNJOFAK@?$AAt?$AAe?$AA?9?$AAi?$AAn?$AA?$AA@ 0000000180035468     libucrt:lcidtoname_downlevel.obj
 0002:00006478       ??_C@_1M@GNAECACD@?$AAt?$AAh?$AA?9?$AAt?$AAh?$AA?$AA@ 0000000180035478     libucrt:lcidtoname_downlevel.obj
 0002:00006488       ??_C@_1M@CHBIHOJO@?$AAt?$AAn?$AA?9?$AAz?$AAa?$AA?$AA@ 0000000180035488     libucrt:lcidtoname_downlevel.obj
 0002:00006498       ??_C@_1M@GCCMIGPJ@?$AAt?$AAr?$AA?9?$AAt?$AAr?$AA?$AA@ 0000000180035498     libucrt:lcidtoname_downlevel.obj
 0002:000064a8       ??_C@_1M@CELMCNBK@?$AAt?$AAt?$AA?9?$AAr?$AAu?$AA?$AA@ 00000001800354a8     libucrt:lcidtoname_downlevel.obj
 0002:000064b8       ??_C@_1M@KLMCELGA@?$AAu?$AAk?$AA?9?$AAu?$AAa?$AA?$AA@ 00000001800354b8     libucrt:lcidtoname_downlevel.obj
 0002:000064c8       ??_C@_1M@EPAJJAJF@?$AAu?$AAr?$AA?9?$AAp?$AAk?$AA?$AA@ 00000001800354c8     libucrt:lcidtoname_downlevel.obj
 0002:000064d8       ??_C@_1BG@GEGPMCDJ@?$AAu?$AAz?$AA?9?$AAu?$AAz?$AA?9?$AAc?$AAy?$AAr?$AAl?$AA?$AA@ 00000001800354d8     libucrt:lcidtoname_downlevel.obj
 0002:000064f0       ??_C@_1BG@EGGKJILM@?$AAu?$AAz?$AA?9?$AAu?$AAz?$AA?9?$AAl?$AAa?$AAt?$AAn?$AA?$AA@ 00000001800354f0     libucrt:lcidtoname_downlevel.obj
 0002:00006508       ??_C@_1M@GFOCLFF@?$AAv?$AAi?$AA?9?$AAv?$AAn?$AA?$AA@ 0000000180035508     libucrt:lcidtoname_downlevel.obj
 0002:00006518       ??_C@_1M@CPAMEDFI@?$AAx?$AAh?$AA?9?$AAz?$AAa?$AA?$AA@ 0000000180035518     libucrt:lcidtoname_downlevel.obj
 0002:00006528       ??_C@_1O@EBKIFIGN@?$AAz?$AAh?$AA?9?$AAc?$AAh?$AAs?$AA?$AA@ 0000000180035528     libucrt:lcidtoname_downlevel.obj
 0002:00006538       ??_C@_1O@NMHPGANE@?$AAz?$AAh?$AA?9?$AAc?$AAh?$AAt?$AA?$AA@ 0000000180035538     libucrt:lcidtoname_downlevel.obj
 0002:00006548       ??_C@_1M@LPINJOMC@?$AAz?$AAh?$AA?9?$AAc?$AAn?$AA?$AA@ 0000000180035548     libucrt:lcidtoname_downlevel.obj
 0002:00006558       ??_C@_1M@OCJEJODD@?$AAz?$AAh?$AA?9?$AAh?$AAk?$AA?$AA@ 0000000180035558     libucrt:lcidtoname_downlevel.obj
 0002:00006568       ??_C@_1M@DNDLJINH@?$AAz?$AAh?$AA?9?$AAm?$AAo?$AA?$AA@ 0000000180035568     libucrt:lcidtoname_downlevel.obj
 0002:00006578       ??_C@_1M@MBFDNDND@?$AAz?$AAh?$AA?9?$AAs?$AAg?$AA?$AA@ 0000000180035578     libucrt:lcidtoname_downlevel.obj
 0002:00006588       ??_C@_1M@IMEPLEPE@?$AAz?$AAh?$AA?9?$AAt?$AAw?$AA?$AA@ 0000000180035588     libucrt:lcidtoname_downlevel.obj
 0002:00006598       ??_C@_1M@BBGHNHJP@?$AAz?$AAu?$AA?9?$AAz?$AAa?$AA?$AA@ 0000000180035598     libucrt:lcidtoname_downlevel.obj
 0002:000065a4       ??_C@_00CNPNBAHC@?$AA@     00000001800355a4     libucrt:mbrtowc.obj
 0002:000065b0       ?large_power_data@?1??multiply_by_power_of_ten@__crt_strtox@@YA_NAEAUbig_integer@2@I@Z@4QBIB 00000001800355b0     libucrt:cfout.obj
 0002:00006ec0       ?large_power_indices@?1??multiply_by_power_of_ten@__crt_strtox@@YA_NAEAUbig_integer@2@I@Z@4QBUunpack_index@?1??12@YA_N0I@Z@B 0000000180035ec0     libucrt:cfout.obj
 0002:00006f58       ?small_powers_of_ten@?1??multiply_by_power_of_ten@__crt_strtox@@YA_NAEAUbig_integer@2@I@Z@4QBIB 0000000180035f58     libucrt:cfout.obj
 0002:00006f7c       ??_C@_01GBGANLPD@0?$AA@    0000000180035f7c     libucrt:cfout.obj
 0002:00006f80       ??_C@_05DNEBIAHO@1?$CDINF?$AA@ 0000000180035f80     libucrt:cfout.obj
 0002:00006f88       ??_C@_06IMKFLFPG@1?$CDQNAN?$AA@ 0000000180035f88     libucrt:cfout.obj
 0002:00006f90       ??_C@_06PGGFOGJG@1?$CDSNAN?$AA@ 0000000180035f90     libucrt:cfout.obj
 0002:00006f98       ??_C@_05PHHOCPM@1?$CDIND?$AA@ 0000000180035f98     libucrt:cfout.obj
 0002:00007220       ??_C@_1BA@BALFACEM@?$AAC?$AAO?$AAN?$AAO?$AAU?$AAT?$AA$?$AA?$AA@ 0000000180036220     libucrt:initcon.obj
 0002:00007230       __log10_256_lead           0000000180036230     libucrt:log10_256_lead_tail_table.obj
 0002:00007a40       __log10_256_tail           0000000180036a40     libucrt:log10_256_lead_tail_table.obj
 0002:00008250       __log_F_inv_qword          0000000180037250     libucrt:log_f_inv_qword_table.obj
 0002:00008a60       ??_C@_05HGHHAHAP@log10?$AA@ 0000000180037a60     libucrt:log_special.obj
 0002:00008a80       ??_C@_1BK@DBDEIDLH@?$AAK?$AAE?$AAR?$AAN?$AAE?$AAL?$AA3?$AA2?$AA?4?$AAD?$AAL?$AAL@ 0000000180037a80     DelayImp:delayhlp.obj
 0002:00008aa0       ??_C@_0BI@OMNLIJDB@AcquireSRWLockExclusive@ 0000000180037aa0     DelayImp:delayhlp.obj
 0002:00008ab8       ??_C@_0BI@HMIEPCNJ@ReleaseSRWLockExclusive@ 0000000180037ab8     DelayImp:delayhlp.obj
 0002:00008ad0       __pfnDliFailureHook2       0000000180037ad0     DelayImp:delayhk1.obj
 0002:00008ae0       _load_config_used          0000000180037ae0     LIBCMT:loadcfg.obj
 0002:00008be0       ??_C@_0BC@BDKFLDHL@unknown?5exception@ 0000000180037be0     common.obj
 0002:00008bf8       ??_C@_07CIFAGBMG@unknown@  0000000180037bf8     common.obj
 0002:00008c00       ??_C@_0BA@JFNIOLAK@string?5too?5long@ 0000000180037c00     common.obj
 0002:00008c10       ??_C@_1NI@DNEAENAD@?$AAc?$AA?3?$AA?2?$AAu?$AAs?$AAe?$AAr?$AAs?$AA?2?$AAm?$AAa?$AAr?$AAo?$AAv?$AAs@ 0000000180037c10     common.obj
 0002:00008cf0       ??_C@_1FK@CBGIJHDF@?$AAv?$AAa?$AAl?$AAu?$AAe?$AA?4?$AAs?$AAi?$AAz?$AAe?$AA?$CI?$AA?$CJ?$AA?5?$AA?$DM?$AA?$DN@ 0000000180037cf0     common.obj
 0002:00008d50       ??_C@_1KM@PGMGHDOE@?$AAc?$AA?3?$AA?2?$AAu?$AAs?$AAe?$AAr?$AAs?$AA?2?$AAm?$AAa?$AAr?$AAo?$AAv?$AAs@ 0000000180037d50     common.obj
 0002:00008e00       ??_C@_1BO@OPFMAOCA@?$AAl?$AAe?$AAn?$AA?5?$AA?$DM?$AA?$DN?$AA?5?$AAI?$AAN?$AAT?$AA_?$AAM?$AAA?$AAX@ 0000000180037e00     common.obj
 0002:00008e20       ??_C@_1BE@CKDJNAPC@?$AAs?$AAt?$AAr?$AA_?$AA?5?$AA?$CB?$AA?$DN?$AA?5?$AA0@ 0000000180037e20     common.obj
 0002:00008e34       ??_C@_04DAMGJPCA@file@     0000000180037e34     common.obj
 0002:00008e3c       ??_C@_06HOHPNJLC@buffer@   0000000180037e3c     common.obj
 0002:00008e48       ??_C@_07HAFFKDBK@density@  0000000180037e48     common.obj
 0002:00008e50       ??_C@_0M@FNJPIKDJ@rawChannels@ 0000000180037e50     common.obj
 0002:00008e60       ??_C@_08DNBMCCIG@rawWidth@ 0000000180037e60     common.obj
 0002:00008e70       ??_C@_09BDNNJGFJ@rawHeight@ 0000000180037e70     common.obj
 0002:00008e7c       ??_C@_04GNPKBLNA@?4jpg@    0000000180037e7c     common.obj
 0002:00008e84       ??_C@_05KPIGABMB@?4jpeg@   0000000180037e84     common.obj
 0002:00008e8c       ??_C@_04GAABNGKM@?4JPG@    0000000180037e8c     common.obj
 0002:00008e94       ??_C@_05GDLMODLJ@?4JPEG@   0000000180037e94     common.obj
 0002:00008e9c       ??_C@_04EEOGCCFB@?4png@    0000000180037e9c     common.obj
 0002:00008ea4       ??_C@_04EJBNOPCN@?4PNG@    0000000180037ea4     common.obj
 0002:00008eac       ??_C@_05FAPNGHEM@?4webp@   0000000180037eac     common.obj
 0002:00008eb4       ??_C@_05JMMHIFDE@?4WEBP@   0000000180037eb4     common.obj
 0002:00008ebc       ??_C@_04NHNAJCMC@?4tif@    0000000180037ebc     common.obj
 0002:00008ec4       ??_C@_05EGBKLPCP@?4tiff@   0000000180037ec4     common.obj
 0002:00008ecc       ??_C@_04NKCLFPLO@?4TIF@    0000000180037ecc     common.obj
 0002:00008ed4       ??_C@_05IKCAFNFH@?4TIFF@   0000000180037ed4     common.obj
 0002:00008edc       ??_C@_04BODBMELL@?4dzi@    0000000180037edc     common.obj
 0002:00008ee4       ??_C@_04BDMKAJMH@?4DZI@    0000000180037ee4     common.obj
 0002:00008eec       ??_C@_04CLJHFACG@?4zip@    0000000180037eec     common.obj
 0002:00008ef4       ??_C@_04CGGMJNFK@?4ZIP@    0000000180037ef4     common.obj
 0002:00008efc       ??_C@_04NDPPKLJN@?4szi@    0000000180037efc     common.obj
 0002:00008f04       ??_C@_04NOAEGGOB@?4SZI@    0000000180037f04     common.obj
 0002:00008f0c       ??_C@_02ELAIJDHH@?4v@      0000000180037f0c     common.obj
 0002:00008f10       ??_C@_02NOIMLHNF@?4V@      0000000180037f10     common.obj
 0002:00008f14       ??_C@_05BDMENFJJ@?4vips@   0000000180037f14     common.obj
 0002:00008f1c       ??_C@_05NPPODHOB@?4VIPS@   0000000180037f1c     common.obj
 0002:00008f24       ??_C@_04OFMADDDJ@jpeg@     0000000180037f24     common.obj
 0002:00008f2c       ??_C@_03NNHBJLDF@png@      0000000180037f2c     common.obj
 0002:00008f30       ??_C@_04BKLLFFLE@webp@     0000000180037f30     common.obj
 0002:00008f38       ??_C@_04MFMINNH@tiff@      0000000180037f38     common.obj
 0002:00008f40       ??_C@_03MOLNDNH@gif@       0000000180037f40     common.obj
 0002:00008f44       ??_C@_03NNPBMGBD@svg@      0000000180037f44     common.obj
 0002:00008f48       ??_C@_03MJPNCPKC@pdf@      0000000180037f48     common.obj
 0002:00008f4c       ??_C@_06OKPOAFJK@magick@   0000000180037f4c     common.obj
 0002:00008f58       ??_C@_09EPLGDDHC@openslide@ 0000000180037f58     common.obj
 0002:00008f64       ??_C@_03DBCGPNMF@ppm@      0000000180037f64     common.obj
 0002:00008f68       ??_C@_04DOGLNIDP@fits@     0000000180037f68     common.obj
 0002:00008f70       ??_C@_01MHEDDDHA@v@        0000000180037f70     common.obj
 0002:00008f74       ??_C@_03DGOGAGNC@raw@      0000000180037f74     common.obj
 0002:00008f78       ??_C@_0L@EJFNCHAG@JpegBuffer@ 0000000180037f78     common.obj
 0002:00008f88       ??_C@_09DILPCCPK@PngBuffer@ 0000000180037f88     common.obj
 0002:00008f98       ??_C@_0L@PPKHLBJN@WebpBuffer@ 0000000180037f98     common.obj
 0002:00008fa8       ??_C@_0L@JLEBFOLC@TiffBuffer@ 0000000180037fa8     common.obj
 0002:00008fb8       ??_C@_09FFAGNFDM@GifBuffer@ 0000000180037fb8     common.obj
 0002:00008fc8       ??_C@_09MEJAHJJA@SvgBuffer@ 0000000180037fc8     common.obj
 0002:00008fd8       ??_C@_09GBDLKIPK@PdfBuffer@ 0000000180037fd8     common.obj
 0002:00008fe8       ??_C@_0N@NGPOAFON@MagickBuffer@ 0000000180037fe8     common.obj
 0002:00008ff8       ??_C@_08PKLPBHDO@JpegFile@ 0000000180037ff8     common.obj
 0002:00009004       ??_C@_03HNEDDEAL@Png@      0000000180038004     common.obj
 0002:00009008       ??_C@_08EIBPIBPK@WebpFile@ 0000000180038008     common.obj
 0002:00009018       ??_C@_09OLDAKC@Openslide@  0000000180038018     common.obj
 0002:00009028       ??_C@_08HPNGNOF@TiffFile@  0000000180038028     common.obj
 0002:00009038       ??_C@_07LBNMLGNF@GifFile@  0000000180038038     common.obj
 0002:00009040       ??_C@_07BDOHLGIG@SvgFile@  0000000180038040     common.obj
 0002:00009048       ??_C@_07KGHFOPCH@PdfFile@  0000000180038048     common.obj
 0002:00009050       ??_C@_03JBBEFCPL@Ppm@      0000000180038050     common.obj
 0002:00009054       ??_C@_04PPKKPHDL@Fits@     0000000180038054     common.obj
 0002:0000905c       ??_C@_04JIEDMIGF@Vips@     000000018003805c     common.obj
 0002:00009064       ??_C@_06CFEDDMAG@Magick@   0000000180038064     common.obj
 0002:00009070       ??_C@_0L@FAJADDGP@MagickFile@ 0000000180038070     common.obj
 0002:0000907c       ??_C@_06EBPNOMLE@access@   000000018003807c     common.obj
 0002:00009084       ??_C@_03IKDBPIAJ@dpi@      0000000180038084     common.obj
 0002:00009088       ??_C@_0CA@OIAJAHMJ@Input?5buffer?5has?5corrupt?5header@ 0000000180038088     common.obj
 0002:000090a8       ??_C@_0CP@GJLHFOKI@Input?5buffer?5contains?5unsupport@ 00000001800380a8     common.obj
 0002:000090d8       ??_C@_0BO@PAEMAFOF@Input?5file?5has?5corrupt?5header@ 00000001800380d8     common.obj
 0002:000090f8       ??_C@_0DI@LCOLEBMK@Input?5file?5is?5missing?5or?5of?5an?5@ 00000001800380f8     common.obj
 0002:00009130       ??_C@_0BB@KFEJJKPL@icc?9profile?9data@ 0000000180038130     common.obj
 0002:00009148       ??_C@_0BG@CJHOGE@exif?9ifd0?9Orientation@ 0000000180038148     common.obj
 0002:00009160       ??_C@_02DPKJAMEF@?$CFd@    0000000180038160     common.obj
 0002:00009164       ??_C@_04LKIGMHAB@Xres@     0000000180038164     common.obj
 0002:0000916c       ??_C@_04IHOGOOLB@Yres@     000000018003816c     common.obj
 0002:00009174       ??_C@_02LMMGJAGL@in@       0000000180038174     common.obj
 0002:00009178       ??_C@_0BA@KHBHLNPN@resolution?9unit@ 0000000180038178     common.obj
 0002:00009188       ??_C@_0BD@OLBABOEK@vector?$DMT?$DO?5too?5long@ 0000000180038188     common.obj
 0002:000091a0       ??_C@_0BI@CFPLBAOH@invalid?5string?5position@ 00000001800381a0     common.obj
 0002:000091b8       ??_7exception@stdext@@6B@  00000001800381b8     common.obj
 0002:000091d0       ??_C@_1GA@PFOOBIAG@?$AAl?$AAe?$AAn?$AAg?$AAt?$AAh?$AA?5?$AA?$DM?$AA?$DN?$AA?5?$AAi?$AAm?$AAp?$AA?3?$AA?3@ 00000001800381d0     metadata.obj
 0002:00009230       ??_C@_0BC@EBHDFLHM@nan?3Callback?3Call@ 0000000180038230     metadata.obj
 0002:00009248       ??_C@_0BA@KEENCHNI@nan?3AsyncWorker@ 0000000180038248     metadata.obj
 0002:00009258       ??_C@_09DMAGDGFG@exif?9data@ 0000000180038258     metadata.obj
 0002:00009264       ??_C@_06DLEPGFEF@format@   0000000180038264     metadata.obj
 0002:0000926c       ??_C@_05IGKADHGO@width@    000000018003826c     metadata.obj
 0002:00009274       ??_C@_06LNLHEAAG@height@   0000000180038274     metadata.obj
 0002:0000927c       ??_C@_05OLNILLAB@space@    000000018003827c     metadata.obj
 0002:00009288       ??_C@_08PAMBCCJ@channels@  0000000180038288     metadata.obj
 0002:00009298       ??_C@_0L@FHAMLBLJ@hasProfile@ 0000000180038298     metadata.obj
 0002:000092a8       ??_C@_08PGFHIBBJ@hasAlpha@ 00000001800382a8     metadata.obj
 0002:000092b8       ??_C@_0M@KPMDGEHG@orientation@ 00000001800382b8     metadata.obj
 0002:000092c4       ??_C@_04LCCFEECC@exif@     00000001800382c4     metadata.obj
 0002:000092cc       ??_C@_03JMNENFHH@icc@      00000001800382cc     metadata.obj
 0002:000092d0       ??_C@_05DFJCHPDH@input@    00000001800382d0     metadata.obj
 0002:000092d8       ??_7AsyncWorker@Nan@@6B@   00000001800382d8     metadata.obj
 0002:00009308       ??_7MetadataWorker@@6B@    0000000180038308     metadata.obj
 0002:00009338       ??_C@_06BPBOMFNI@extend@   0000000180038338     operations.obj
 0002:00009340       ??_C@_0L@EGCKCJDC@background@ 0000000180038340     operations.obj
 0002:00009350       ??_C@_0CJ@GMMNIMCE@Overlay?5image?5must?5have?5an?5alph@ 0000000180038350     operations.obj
 0002:00009380       ??_C@_0DA@JDCCBCFP@Image?5to?5be?5overlaid?5must?5have?5@ 0000000180038380     operations.obj
 0002:000093b0       ??_C@_0DD@HGKGMJEI@Overlay?5image?5must?5have?5same?5di@ 00000001800383b0     operations.obj
 0002:000093e4       ??_C@_01EFFIKLCJ@n@        00000001800383e4     operations.obj
 0002:000093e8       ??_C@_0DF@OKFIIGFK@Overlay?5image?5must?5have?5an?5alph@ 00000001800383e8     operations.obj
 0002:00009420       ??_C@_08EGJNFMPO@exponent@ 0000000180038420     operations.obj
 0002:0000942c       ??_C@_05MHMEBBGO@scale@    000000018003842c     operations.obj
 0002:00009434       ??_C@_06KLHHMIGM@offset@   0000000180038434     operations.obj
 0002:0000943c       ??_C@_05MNLBPJCA@sigma@    000000018003843c     operations.obj
 0002:00009444       ??_C@_02IGOMHJCM@m1@       0000000180038444     operations.obj
 0002:00009448       ??_C@_02KNMBCKOP@m2@       0000000180038448     operations.obj
 0002:00009450       ??_C@_0L@MICNGMNL@tile_width@ 0000000180038450     operations.obj
 0002:00009460       ??_C@_0M@GPCIKFO@tile_height@ 0000000180038460     operations.obj
 0002:00009470       ??_C@_09OGDDKPHL@max_tiles@ 0000000180038470     operations.obj
 0002:00009480       ??_C@_08MLOCAEKM@threaded@ 0000000180038480     operations.obj
 0002:00009490       ??_C@_0P@KOMFEOGE@interpretation@ 0000000180038490     operations.obj
 0002:000094a0       ??_C@_0DM@EHHONNDC@Unexpected?5error?5while?5trimming@ 00000001800384a0     operations.obj
 0002:000094dc       ??_C@_00CNPNBAHC@@         00000001800384dc     pipeline.obj
 0002:000094e0       ??_C@_08DIHJGEJL@sRGB?4icc@ 00000001800384e0     pipeline.obj
 0002:000094f0       ??_C@_08IOCIMAEE@cmyk?4icm@ 00000001800384f0     pipeline.obj
 0002:00009500       ??_C@_0CA@EEKNMMGH@Input?5image?5exceeds?5pixel?5limit@ 0000000180038500     pipeline.obj
 0002:00009520       ??_C@_06FKMIDIGA@shrink@   0000000180038520     pipeline.obj
 0002:00009528       ??_C@_08JHIHEPEE@embedded@ 0000000180038528     pipeline.obj
 0002:00009534       ??_C@_06EHPDFMHL@intent@   0000000180038534     pipeline.obj
 0002:00009540       ??_C@_0O@CGLCIOGA@input_profile@ 0000000180038540     pipeline.obj
 0002:00009550       ??_C@_09BHCLLIIE@max_alpha@ 0000000180038550     pipeline.obj
 0002:00009560       ??_C@_0P@EOHEPKJF@Unknown?5kernel@ 0000000180038560     pipeline.obj
 0002:00009570       ??_C@_06GMKELIII@kernel@   0000000180038570     pipeline.obj
 0002:00009578       ??_C@_0M@LFLAJNDD@interpolate@ 0000000180038578     pipeline.obj
 0002:00009588       ??_C@_0DO@PDNPJCDI@Cannot?5extract?5channel?5from?5ima@ 0000000180038588     pipeline.obj
 0002:000095c8       ??_C@_05GGNGIGHC@strip@    00000001800385c8     pipeline.obj
 0002:000095d0       ??_C@_01BNIGIBBF@Q@        00000001800385d0     pipeline.obj
 0002:000095d8       ??_C@_0BA@DPHOAEGB@optimize_coding@ 00000001800385d8     pipeline.obj
 0002:000095e8       ??_C@_0N@MNGIACEA@no_subsample@ 00000001800385e8     pipeline.obj
 0002:000095f8       ??_C@_0O@FKIFMLAH@trellis_quant@ 00000001800385f8     pipeline.obj
 0002:00009608       ??_C@_0BE@LIFHAJLE@overshoot_deringing@ 0000000180038608     pipeline.obj
 0002:00009620       ??_C@_0P@BDAPCNGM@optimize_scans@ 0000000180038620     pipeline.obj
 0002:00009630       ??_C@_09JPBLFCFG@interlace@ 0000000180038630     pipeline.obj
 0002:00009640       ??_C@_0M@DGJEMLOB@compression@ 0000000180038640     pipeline.obj
 0002:0000964c       ??_C@_06EOIELIPE@filter@   000000018003864c     pipeline.obj
 0002:00009658       ??_C@_0DA@OEPBKHDN@Could?5not?5allocate?5enough?5memor@ 0000000180038658     pipeline.obj
 0002:00009688       ??_C@_0BL@IBFNPJMG@Unsupported?5output?5format?5@ 0000000180038688     pipeline.obj
 0002:000096a4       ??_C@_02JKLANEGN@dz@       00000001800386a4     pipeline.obj
 0002:000096a8       ??_C@_09JLFLJPC@tile_size@ 00000001800386a8     pipeline.obj
 0002:000096b8       ??_C@_07NAFPMKIM@overlap@  00000001800386b8     pipeline.obj
 0002:000096c0       ??_C@_09KHFPHLHC@container@ 00000001800386c0     pipeline.obj
 0002:000096cc       ??_C@_06GDMDKJEN@layout@   00000001800386cc     pipeline.obj
 0002:000096d8       ??_C@_0N@BBHMIKHL@cropCalcLeft@ 00000001800386d8     pipeline.obj
 0002:000096e8       ??_C@_0M@KOELNNIP@cropCalcTop@ 00000001800386e8     pipeline.obj
 0002:000096f4       ??_C@_04IAGNFIBA@size@     00000001800386f4     pipeline.obj
 0002:00009700       ??_C@_0P@FEJLNJHN@iccProfilePath@ 0000000180038700     pipeline.obj
 0002:00009710       ??_C@_0P@DEOGMFMC@sequentialRead@ 0000000180038710     pipeline.obj
 0002:00009720       ??_C@_0BB@JFIFEMIM@limitInputPixels@ 0000000180038720     pipeline.obj
 0002:00009738       ??_C@_0N@HFHHDNPE@topOffsetPre@ 0000000180038738     pipeline.obj
 0002:00009748       ??_C@_0O@EJHBCKPJ@leftOffsetPre@ 0000000180038748     pipeline.obj
 0002:00009758       ??_C@_08IAGKMJAO@widthPre@ 0000000180038758     pipeline.obj
 0002:00009768       ??_C@_09CFADDJFL@heightPre@ 0000000180038768     pipeline.obj
 0002:00009778       ??_C@_0O@ELCOKNEK@topOffsetPost@ 0000000180038778     pipeline.obj
 0002:00009788       ??_C@_0P@DFKDNHOA@leftOffsetPost@ 0000000180038788     pipeline.obj
 0002:00009798       ??_C@_09BGLDKLLM@widthPost@ 0000000180038798     pipeline.obj
 0002:000097a8       ??_C@_0L@NBHGHDH@heightPost@ 00000001800387a8     pipeline.obj
 0002:000097b4       ??_C@_06DODEBHEI@canvas@   00000001800387b4     pipeline.obj
 0002:000097bc       ??_C@_04EKMNJIID@crop@     00000001800387bc     pipeline.obj
 0002:000097c4       ??_C@_05KJAEOLKJ@embed@    00000001800387c4     pipeline.obj
 0002:000097cc       ??_C@_03LJAEFNNE@max@      00000001800387cc     pipeline.obj
 0002:000097d0       ??_C@_03KLIPLJLL@min@      00000001800387d0     pipeline.obj
 0002:000097d8       ??_C@_0O@EBNBJBNA@ignore_aspect@ 00000001800387d8     pipeline.obj
 0002:000097e8       ??_C@_07BJNHBMF@overlay@   00000001800387e8     pipeline.obj
 0002:000097f0       ??_C@_0P@MJMPJDFA@overlayGravity@ 00000001800387f0     pipeline.obj
 0002:00009800       ??_C@_0P@EPOLNDIO@overlayXOffset@ 0000000180038800     pipeline.obj
 0002:00009810       ??_C@_0P@IDEBNDBA@overlayYOffset@ 0000000180038810     pipeline.obj
 0002:00009820       ??_C@_0M@HFLCKELG@overlayTile@ 0000000180038820     pipeline.obj
 0002:00009830       ??_C@_0O@JDANFBLD@overlayCutout@ 0000000180038830     pipeline.obj
 0002:00009840       ??_C@_0BD@OBKKOCNN@withoutEnlargement@ 0000000180038840     pipeline.obj
 0002:00009858       ??_C@_0N@KPPLEPCJ@interpolator@ 0000000180038858     pipeline.obj
 0002:00009868       ??_C@_0O@CNGDBBAO@joinChannelIn@ 0000000180038868     pipeline.obj
 0002:00009878       ??_C@_06IJDLPEM@length@    0000000180038878     pipeline.obj
 0002:00009880       ??_C@_07FOIKENOC@flatten@  0000000180038880     pipeline.obj
 0002:00009888       ??_C@_06CNJONIF@negate@    0000000180038888     pipeline.obj
 0002:00009890       ??_C@_09GIFHMNMI@blurSigma@ 0000000180038890     pipeline.obj
 0002:000098a0       ??_C@_0N@INAMFHGE@sharpenSigma@ 00000001800388a0     pipeline.obj
 0002:000098b0       ??_C@_0M@DOLMPNLL@sharpenFlat@ 00000001800388b0     pipeline.obj
 0002:000098c0       ??_C@_0O@DNGCBEHN@sharpenJagged@ 00000001800388c0     pipeline.obj
 0002:000098d0       ??_C@_09DEHKFMCJ@threshold@ 00000001800388d0     pipeline.obj
 0002:000098e0       ??_C@_0BD@LFFDJFMK@thresholdGrayscale@ 00000001800388e0     pipeline.obj
 0002:000098f8       ??_C@_0O@CPCBNIGC@trimTolerance@ 00000001800388f8     pipeline.obj
 0002:00009908       ??_C@_05KDLBCAI@gamma@     0000000180038908     pipeline.obj
 0002:00009910       ??_C@_09JJBJBHMG@greyscale@ 0000000180038910     pipeline.obj
 0002:00009920       ??_C@_09MMDNNKKJ@normalize@ 0000000180038920     pipeline.obj
 0002:0000992c       ??_C@_05FECBCJJD@angle@    000000018003892c     pipeline.obj
 0002:00009938       ??_C@_0BH@LDFMOEDF@rotateBeforePreExtract@ 0000000180038938     pipeline.obj
 0002:00009950       ??_C@_04DGGGELON@flip@     0000000180038950     pipeline.obj
 0002:00009958       ??_C@_04DCOLDHFP@flop@     0000000180038958     pipeline.obj
 0002:00009960       ??_C@_09OHMDBHOB@extendTop@ 0000000180038960     pipeline.obj
 0002:00009970       ??_C@_0N@CJMFAMOE@extendBottom@ 0000000180038970     pipeline.obj
 0002:00009980       ??_C@_0L@LLDPEOOO@extendLeft@ 0000000180038980     pipeline.obj
 0002:00009990       ??_C@_0M@FNPGPPFI@extendRight@ 0000000180038990     pipeline.obj
 0002:000099a0       ??_C@_0P@JCBGLICH@extractChannel@ 00000001800389a0     pipeline.obj
 0002:000099b0       ??_C@_07GOBOHMJA@boolean@  00000001800389b0     pipeline.obj
 0002:000099b8       ??_C@_09HMALGKBI@booleanOp@ 00000001800389b8     pipeline.obj
 0002:000099c8       ??_C@_0L@HGLIDICA@bandBoolOp@ 00000001800389c8     pipeline.obj
 0002:000099d8       ??_C@_0L@ECLGICGD@convKernel@ 00000001800389d8     pipeline.obj
 0002:000099e8       ??_C@_0M@BECHMDJA@progressive@ 00000001800389e8     pipeline.obj
 0002:000099f8       ??_C@_07DADGLCBN@quality@  00000001800389f8     pipeline.obj
 0002:00009a00       ??_C@_0BB@CHLGOGDL@compressionLevel@ 0000000180038a00     pipeline.obj
 0002:00009a18       ??_C@_0BJ@PKPGMKGP@withoutAdaptiveFiltering@ 0000000180038a18     pipeline.obj
 0002:00009a38       ??_C@_0BJ@JDGMHKCD@withoutChromaSubsampling@ 0000000180038a38     pipeline.obj
 0002:00009a58       ??_C@_0BE@BMFJBBPI@trellisQuantisation@ 0000000180038a58     pipeline.obj
 0002:00009a70       ??_C@_0BD@MGKPFJKA@overshootDeringing@ 0000000180038a70     pipeline.obj
 0002:00009a88       ??_C@_0O@PMONLFOG@optimiseScans@ 0000000180038a88     pipeline.obj
 0002:00009a98       ??_C@_0N@KCFDEJAE@withMetadata@ 0000000180038a98     pipeline.obj
 0002:00009aa8       ??_C@_0BI@ECBJEELE@withMetadataOrientation@ 0000000180038aa8     pipeline.obj
 0002:00009ac0       ??_C@_0M@GKGJPELG@colourspace@ 0000000180038ac0     pipeline.obj
 0002:00009ad0       ??_C@_09FCKGNCNB@formatOut@ 0000000180038ad0     pipeline.obj
 0002:00009ae0       ??_C@_07GGINOJKC@fileOut@  0000000180038ae0     pipeline.obj
 0002:00009ae8       ??_C@_08BHEDAFJG@tileSize@ 0000000180038ae8     pipeline.obj
 0002:00009af8       ??_C@_0M@OGCEIDPP@tileOverlap@ 0000000180038af8     pipeline.obj
 0002:00009b08       ??_C@_0O@KMENJOAI@tileContainer@ 0000000180038b08     pipeline.obj
 0002:00009b18       ??_C@_03LCAAOJEC@zip@      0000000180038b18     pipeline.obj
 0002:00009b20       ??_C@_0L@BLMACMOH@tileLayout@ 0000000180038b20     pipeline.obj
 0002:00009b2c       ??_C@_06DBPEGNOF@google@   0000000180038b2c     pipeline.obj
 0002:00009b38       ??_C@_07LGDKFCBF@zoomify@  0000000180038b38     pipeline.obj
 0002:00009b40       ??_C@_0O@JFLKJFFB@queueListener@ 0000000180038b40     pipeline.obj
 0002:00009b50       ??_C@_0BE@JONHPENG@map?1set?$DMT?$DO?5too?5long@ 0000000180038b50     pipeline.obj
 0002:00009b68       ??_7?$_Func_impl_no_alloc@UAttentionStrategy@sharp@@NVVImage@vips@@@std@@6B@ 0000000180038b68     pipeline.obj
 0002:00009ba0       __pfnDliNotifyHook2        0000000180038ba0     win_delay_load_hook.obj
 0002:00009ba8       ??_7?$_Func_impl_no_alloc@UEntropyStrategy@sharp@@NVVImage@vips@@@std@@6B@ 0000000180038ba8     pipeline.obj
 0002:00009bd8       ??_7PipelineWorker@@6B@    0000000180038bd8     pipeline.obj
 0002:00009c08       ??_C@_05JBBJEIBB@sharp@    0000000180038c08     sharp.obj
 0002:00009c10       ??_C@_08DHGINADL@metadata@ 0000000180038c10     sharp.obj
 0002:00009c20       ??_C@_08NCIPIGNL@pipeline@ 0000000180038c20     sharp.obj
 0002:00009c2c       ??_C@_05BDNCCAMC@cache@    0000000180038c2c     sharp.obj
 0002:00009c38       ??_C@_0M@FFOAFBMD@concurrency@ 0000000180038c38     sharp.obj
 0002:00009c48       ??_C@_08KKLAKCLE@counters@ 0000000180038c48     sharp.obj
 0002:00009c54       ??_C@_04IABPNMKE@simd@     0000000180038c54     sharp.obj
 0002:00009c60       ??_C@_0P@PAMOCECJ@libvipsVersion@ 0000000180038c60     sharp.obj
 0002:00009c70       ??_C@_0BD@OKKEIJGD@_maxColourDistance@ 0000000180038c70     sharp.obj
 0002:00009c90       ??_C@_0FP@DKPKENBC@c?3?2users?2marovski?2documents?2pro@ 0000000180038c90     sharp.obj
 0002:00009cf0       ??_C@_07LKPDDKMO@current@  0000000180038cf0     utilities.obj
 0002:00009cf8       ??_C@_04DGANLAON@high@     0000000180038cf8     utilities.obj
 0002:00009d00       ??_C@_06HLKELJGF@memory@   0000000180038d00     utilities.obj
 0002:00009d08       ??_C@_05DPEMMMGC@files@    0000000180038d08     utilities.obj
 0002:00009d10       ??_C@_05CFHBDDLG@items@    0000000180038d10     utilities.obj
 0002:00009d18       ??_C@_05PJDJNNOP@queue@    0000000180038d18     utilities.obj
 0002:00009d20       ??_C@_07DEBHDLBL@process@  0000000180038d20     utilities.obj
 0002:00009d28       ??_C@_08FOJKHHJA@?$CFd?4?$CFd?4?$CFd@ 0000000180038d28     utilities.obj
 0002:00009d34       ??_C@_02EGCJHIOB@id@       0000000180038d34     utilities.obj
 0002:00009d38       ??_C@_06DKIGHACF@output@   0000000180038d38     utilities.obj
 0002:00009d40       ??_C@_06DJAMKFID@stream@   0000000180038d40     utilities.obj
 0002:00009d48       ??_C@_04EONOHKEP@load@     0000000180038d48     utilities.obj
 0002:00009d50       ??_C@_0O@HGKOHLML@VipsOperation@ 0000000180038d50     utilities.obj
 0002:00009d60       ??_C@_0M@MFBONNFI@load_buffer@ 0000000180038d60     utilities.obj
 0002:00009d6c       ??_C@_04EMMDIJJL@save@     0000000180038d6c     utilities.obj
 0002:00009d78       ??_C@_0M@DLONAKAB@save_buffer@ 0000000180038d78     utilities.obj
 0002:00009d88       ??_C@_0CA@DONHLNKM@Input?5file?51?5has?5corrupt?5header@ 0000000180038d88     utilities.obj
 0002:00009da8       ??_C@_0CP@BLBKEBMA@Input?5file?51?5is?5of?5an?5unsupport@ 0000000180038da8     utilities.obj
 0002:00009dd8       ??_C@_0CA@EFMJDPEP@Input?5file?52?5has?5corrupt?5header@ 0000000180038dd8     utilities.obj
 0002:00009df8       ??_C@_0CP@HPPKDKDO@Input?5file?52?5is?5of?5an?5unsupport@ 0000000180038df8     utilities.obj
 0002:00009e28       ??_C@_0BA@HJLAGCNF@mismatchedBands@ 0000000180038e28     utilities.obj
 0002:00009e38       ??_C@_0BF@NPFPPJPF@mismatchedDimensions@ 0000000180038e38     utilities.obj
 0002:00009e50       ??_C@_08HCOMDCCD@iojs?4exe@ 0000000180038e50     win_delay_load_hook.obj
 0002:00009e60       ??_C@_08JDDNMFDB@node?4exe@ 0000000180038e60     win_delay_load_hook.obj
 0002:0000a230       __real@3f70101010101010    0000000180039230     operations.obj
 0002:0000a238       __real@3fb27bb2fec56d5d    0000000180039238     pipeline.obj
 0002:0000a240       __real@3fc0000000000000    0000000180039240     operations.obj
 0002:0000a248       __real@3fcb367a0f9096bc    0000000180039248     pipeline.obj
 0002:0000a250       __real@3fe6e2eb1c432ca5    0000000180039250     pipeline.obj
 0002:0000a258       __real@3ff0000000000000    0000000180039258     operations.obj
 0002:0000a260       __real@3ff3333333333333    0000000180039260     operations.obj
 0002:0000a268       __real@4000000000000000    0000000180039268     operations.obj
 0002:0000a270       __real@4008000000000000    0000000180039270     operations.obj
 0002:0000a278       __real@4010000000000000    0000000180039278     operations.obj
 0002:0000a280       __real@4022000000000000    0000000180039280     operations.obj
 0002:0000a288       __real@4024000000000000    0000000180039288     operations.obj
 0002:0000a290       __real@4036000000000000    0000000180039290     operations.obj
 0002:0000a298       __real@4038000000000000    0000000180039298     operations.obj
 0002:0000a2a0       __real@4039666666666666    00000001800392a0     common.obj
 0002:0000a2a8       __real@403f000000000000    00000001800392a8     operations.obj
 0002:0000a2b0       __real@4040000000000000    00000001800392b0     operations.obj
 0002:0000a2b8       __real@404e000000000000    00000001800392b8     operations.obj
 0002:0000a2c0       __real@4059000000000000    00000001800392c0     operations.obj
 0002:0000a2c8       __real@406fe00000000000    00000001800392c8     operations.obj
 0002:0000a2d0       __real@4070000000000000    00000001800392d0     pipeline.obj
 0002:0000a2d8       __real@40efffe000000000    00000001800392d8     common.obj
 0002:0000a2e0       __real@43f0000000000000    00000001800392e0     utilities.obj
 0002:0000a2e8       __real@bff0000000000000    00000001800392e8     operations.obj
 0002:0000a2f0       __real@c000000000000000    00000001800392f0     operations.obj
 0002:0000a300       __xmm@00000000000000003ff0000000000000 0000000180039300     pipeline.obj
 0002:0000a310       __xmm@3ff00000000000003ff0000000000000 0000000180039310     operations.obj
 0002:0000a320       __xmm@80000000000000008000000000000000 0000000180039320     operations.obj
 0002:0000a330       __xmm@bff0000000000000bff0000000000000 0000000180039330     operations.obj
 0002:0000aca0       ??_R4exception@std@@6B@    0000000180039ca0     libcpmt:xthrow.obj
 0002:0000acc8       ??_R3exception@std@@8      0000000180039cc8     libcpmt:xthrow.obj
 0002:0000ace0       ??_R2exception@std@@8      0000000180039ce0     libcpmt:xthrow.obj
 0002:0000acf0       ??_R1A@?0A@EA@exception@std@@8 0000000180039cf0     libcpmt:xthrow.obj
 0002:0000ad18       ??_R4bad_alloc@std@@6B@    0000000180039d18     libcpmt:xthrow.obj
 0002:0000ad40       ??_R3bad_alloc@std@@8      0000000180039d40     libcpmt:xthrow.obj
 0002:0000ad58       ??_R2bad_alloc@std@@8      0000000180039d58     libcpmt:xthrow.obj
 0002:0000ad70       ??_R1A@?0A@EA@bad_alloc@std@@8 0000000180039d70     libcpmt:xthrow.obj
 0002:0000ad98       ??_R4logic_error@std@@6B@  0000000180039d98     libcpmt:xthrow.obj
 0002:0000adc0       ??_R3logic_error@std@@8    0000000180039dc0     libcpmt:xthrow.obj
 0002:0000add8       ??_R2logic_error@std@@8    0000000180039dd8     libcpmt:xthrow.obj
 0002:0000adf0       ??_R1A@?0A@EA@logic_error@std@@8 0000000180039df0     libcpmt:xthrow.obj
 0002:0000ae18       ??_R4length_error@std@@6B@ 0000000180039e18     libcpmt:xthrow.obj
 0002:0000ae40       ??_R3length_error@std@@8   0000000180039e40     libcpmt:xthrow.obj
 0002:0000ae58       ??_R2length_error@std@@8   0000000180039e58     libcpmt:xthrow.obj
 0002:0000ae78       ??_R1A@?0A@EA@length_error@std@@8 0000000180039e78     libcpmt:xthrow.obj
 0002:0000aea0       ??_R4out_of_range@std@@6B@ 0000000180039ea0     libcpmt:xthrow.obj
 0002:0000aec8       ??_R3out_of_range@std@@8   0000000180039ec8     libcpmt:xthrow.obj
 0002:0000aee0       ??_R2out_of_range@std@@8   0000000180039ee0     libcpmt:xthrow.obj
 0002:0000af00       ??_R1A@?0A@EA@out_of_range@std@@8 0000000180039f00     libcpmt:xthrow.obj
 0002:0000af28       ??_R4bad_function_call@std@@6B@ 0000000180039f28     libcpmt:xthrow.obj
 0002:0000af50       ??_R3bad_function_call@std@@8 0000000180039f50     libcpmt:xthrow.obj
 0002:0000af68       ??_R2bad_function_call@std@@8 0000000180039f68     libcpmt:xthrow.obj
 0002:0000af80       ??_R1A@?0A@EA@bad_function_call@std@@8 0000000180039f80     libcpmt:xthrow.obj
 0002:0000afa8       ??_R4type_info@@6B@        0000000180039fa8     LIBCMT:std_type_info_static.obj
 0002:0000afd0       ??_R3type_info@@8          0000000180039fd0     LIBCMT:std_type_info_static.obj
 0002:0000afe8       ??_R2type_info@@8          0000000180039fe8     LIBCMT:std_type_info_static.obj
 0002:0000aff8       ??_R1A@?0A@EA@type_info@@8 0000000180039ff8     LIBCMT:std_type_info_static.obj
 0002:0000b020       ??_R4bad_array_new_length@std@@6B@ 000000018003a020     LIBCMT:throw_bad_alloc.obj
 0002:0000b048       ??_R3bad_array_new_length@std@@8 000000018003a048     LIBCMT:throw_bad_alloc.obj
 0002:0000b060       ??_R2bad_array_new_length@std@@8 000000018003a060     LIBCMT:throw_bad_alloc.obj
 0002:0000b080       ??_R1A@?0A@EA@bad_array_new_length@std@@8 000000018003a080     LIBCMT:throw_bad_alloc.obj
 0002:0000b0a8       ??_R4bad_exception@std@@6B@ 000000018003a0a8     libvcruntime:frame.obj
 0002:0000b0d0       ??_R3bad_exception@std@@8  000000018003a0d0     libvcruntime:frame.obj
 0002:0000b0e8       ??_R2bad_exception@std@@8  000000018003a0e8     libvcruntime:frame.obj
 0002:0000b100       ??_R1A@?0A@EA@bad_exception@std@@8 000000018003a100     libvcruntime:frame.obj
 0002:0000b520       __rtc_iaa                  000000018003a520     LIBCMT:_initsect_.obj
 0002:0000b528       __rtc_izz                  000000018003a528     LIBCMT:_initsect_.obj
 0002:0000b530       __rtc_taa                  000000018003a530     LIBCMT:_initsect_.obj
 0002:0000b538       __rtc_tzz                  000000018003a538     LIBCMT:_initsect_.obj
 0002:000103e8       _TI2?AVbad_alloc@std@@     000000018003f3e8     libcpmt:xthrow.obj
 0002:00010408       _CTA2?AVbad_alloc@std@@    000000018003f408     libcpmt:xthrow.obj
 0002:00010420       _CT??_R0?AVbad_alloc@std@@@8??0bad_alloc@std@@QEAA@AEBV01@@Z24 000000018003f420     libcpmt:xthrow.obj
 0002:00010448       _CT??_R0?AVexception@std@@@8??0exception@std@@QEAA@AEBV01@@Z24 000000018003f448     libcpmt:xthrow.obj
 0002:00010470       _CT??_R0?AVlogic_error@std@@@8??0logic_error@std@@QEAA@AEBV01@@Z24 000000018003f470     libcpmt:xthrow.obj
 0002:00010498       _TI3?AVlength_error@std@@  000000018003f498     libcpmt:xthrow.obj
 0002:000104b8       _CTA3?AVlength_error@std@@ 000000018003f4b8     libcpmt:xthrow.obj
 0002:000104d8       _CT??_R0?AVlength_error@std@@@8??0length_error@std@@QEAA@AEBV01@@Z24 000000018003f4d8     libcpmt:xthrow.obj
 0002:00010500       _TI3?AVout_of_range@std@@  000000018003f500     libcpmt:xthrow.obj
 0002:00010520       _CTA3?AVout_of_range@std@@ 000000018003f520     libcpmt:xthrow.obj
 0002:00010540       _CT??_R0?AVout_of_range@std@@@8??0out_of_range@std@@QEAA@AEBV01@@Z24 000000018003f540     libcpmt:xthrow.obj
 0002:00010568       _TI2?AVbad_function_call@std@@ 000000018003f568     libcpmt:xthrow.obj
 0002:00010588       _CTA2?AVbad_function_call@std@@ 000000018003f588     libcpmt:xthrow.obj
 0002:000105a0       _CT??_R0?AVbad_function_call@std@@@8??0bad_function_call@std@@QEAA@AEBV01@@Z24 000000018003f5a0     libcpmt:xthrow.obj
 0002:000105c8       _TI3?AVbad_array_new_length@std@@ 000000018003f5c8     LIBCMT:throw_bad_alloc.obj
 0002:000105e8       _CTA3?AVbad_array_new_length@std@@ 000000018003f5e8     LIBCMT:throw_bad_alloc.obj
 0002:00010608       _CT??_R0?AVbad_array_new_length@std@@@8??0bad_array_new_length@std@@QEAA@AEBV01@@Z24 000000018003f608     LIBCMT:throw_bad_alloc.obj
 0002:00010630       _TI2?AVbad_exception@std@@ 000000018003f630     libvcruntime:frame.obj
 0002:00010650       _CTA2?AVbad_exception@std@@ 000000018003f650     libvcruntime:frame.obj
 0002:00010668       _CT??_R0?AVbad_exception@std@@@8??0bad_exception@std@@QEAA@AEBV01@@Z24 000000018003f668     libvcruntime:frame.obj
 0002:00010690       _CT??_R0?AVVError@vips@@@8??0VError@vips@@QEAA@AEBV01@@Z48 000000018003f690     common.obj
 0002:000106b8       _CTA2?AVVError@vips@@      000000018003f6b8     common.obj
 0002:000106d0       _CT??_R0?AVexception@stdext@@@8??0exception@stdext@@QEAA@AEBV01@@Z16 000000018003f6d0     common.obj
 0002:000106f8       _TI2?AVVError@vips@@       000000018003f6f8     common.obj
 0002:00010714       __DELAY_IMPORT_DESCRIPTOR_node_exe 000000018003f714     node:node.exe
 0002:00010734       __NULL_DELAY_IMPORT_DESCRIPTOR 000000018003f734     node:node.exe
 0002:00010908       \177node_NULL_THUNK_DATA_DLN 000000018003f908     node:node.exe
 0002:00011850       \177node_NULL_THUNK_DATA_DLB 0000000180040850     node:node.exe
 0002:00011a50       __IMPORT_DESCRIPTOR_KERNEL32 0000000180040a50     kernel32:KERNEL32.dll
 0002:00011a64       _head_lib_libvips_lib      0000000180040a64     libvips:dowlh.o
 0002:00011a78       _head_lib_libglib_2_0_lib  0000000180040a78     libglib-2.0:dhtlh.o
 0002:00011a8c       __IMPORT_DESCRIPTOR_libvips-cpp 0000000180040a8c     libvips-cpp:libvips-cpp.dll
 0002:00011aa0       __NULL_IMPORT_DESCRIPTOR   0000000180040aa0     kernel32:KERNEL32.dll
 0002:00013f2c       __lib_libvips_lib_iname    0000000180042f2c     libvips:dowlt.o
 0002:00013f54       __lib_libglib_2_0_lib_iname 0000000180042f54     libglib-2.0:dhtlt.o
 0003:00000000       __security_cookie_complement 0000000180043000     LIBCMT:gs_cookie.obj
 0003:00000008       __security_cookie          0000000180043008     LIBCMT:gs_cookie.obj
 0003:00000010       __scrt_native_dllmain_reason 0000000180043010     LIBCMT:utility.obj
 0003:00000018       __isa_available            0000000180043018     LIBCMT:_cpu_disp_.obj
 0003:0000001c       __isa_enabled              000000018004301c     LIBCMT:_cpu_disp_.obj
 0003:00000020       __memcpy_nt_iters          0000000180043020     LIBCMT:_cpu_disp_.obj
 0003:00000040       __abort_behavior           0000000180043040     libucrt:abort.obj
 0003:00000058       _pwctype                   0000000180043058     libucrt:ctype.obj
 0003:00000070       __acrt_initial_locale_data 0000000180043070     libucrt:nlsdata.obj
 0003:000001c8       __acrt_initial_locale_pointers 00000001800431c8     libucrt:nlsdata.obj
 0003:000001d8       __acrt_wide_c_locale_string 00000001800431d8     libucrt:nlsdata.obj
 0003:000001e0       _iob                       00000001800431e0     libucrt:_file.obj
 0003:000003e0       __acrt_initial_multibyte_data 00000001800433e0     libucrt:mbctype.obj
 0003:00000820       __badioinfo                0000000180043820     libucrt:ioinit.obj
 0003:00000860       __globallocalestatus       0000000180043860     libucrt:glstatus.obj
 0003:00000870       __acrt_lconv_c             0000000180043870     libucrt:localeconv.obj
 0003:00000908       __acrt_lconv_static_decimal 0000000180043908     libucrt:localeconv.obj
 0003:0000090c       __acrt_lconv_static_W_decimal 000000018004390c     libucrt:localeconv.obj
 0003:00000924       _fltused                   0000000180043924     LIBCMT:fltused.obj
 0003:00000970       ??_R0?AVbad_alloc@std@@@8  0000000180043970     libcpmt:xthrow.obj
 0003:00000998       ??_R0?AVexception@std@@@8  0000000180043998     libcpmt:xthrow.obj
 0003:000009c0       ??_R0?AVlogic_error@std@@@8 00000001800439c0     libcpmt:xthrow.obj
 0003:000009e8       ??_R0?AVlength_error@std@@@8 00000001800439e8     libcpmt:xthrow.obj
 0003:00000a10       ??_R0?AVout_of_range@std@@@8 0000000180043a10     libcpmt:xthrow.obj
 0003:00000a38       ??_R0?AVbad_function_call@std@@@8 0000000180043a38     libcpmt:xthrow.obj
 0003:00000a68       ??_R0?AVtype_info@@@8      0000000180043a68     LIBCMT:std_type_info_static.obj
 0003:00000a88       ??_R0?AVbad_array_new_length@std@@@8 0000000180043a88     LIBCMT:throw_bad_alloc.obj
 0003:00000ab8       ??_R0?AVbad_exception@std@@@8 0000000180043ab8     libvcruntime:frame.obj
 0003:00000ae0       ??_R0?AVexception@stdext@@@8 0000000180043ae0     common.obj
 0003:00000b08       ??_R0?AVVError@vips@@@8    0000000180043b08     common.obj
 0003:00000b30       ??_R0?AUAttentionStrategy@sharp@@@8 0000000180043b30     pipeline.obj
 0003:00000b60       ??_R0?AUEntropyStrategy@sharp@@@8 0000000180043b60     pipeline.obj
 0003:00000b90       __imp_?GetCurrentContext@Isolate@v8@@QEAA?AV?$Local@VContext@v8@@@2@XZ 0000000180043b90     node:node.exe
 0003:00000b98       __imp_?IsBoolean@Value@v8@@QEBA_NXZ 0000000180043b98     node:node.exe
 0003:00000ba0       __imp_?GetCurrent@Isolate@v8@@SAPEAV12@XZ 0000000180043ba0     node:node.exe
 0003:00000ba8       __imp_??1HandleScope@v8@@QEAA@XZ 0000000180043ba8     node:node.exe
 0003:00000bb0       __imp_??0HandleScope@v8@@QEAA@PEAVIsolate@1@@Z 0000000180043bb0     node:node.exe
 0003:00000bb8       __imp_?ToLocalEmpty@V8@v8@@CAXXZ 0000000180043bb8     node:node.exe
 0003:00000bc0       __imp_?Uint32Value@Value@v8@@QEBA?AV?$Maybe@I@2@V?$Local@VContext@v8@@@2@@Z 0000000180043bc0     node:node.exe
 0003:00000bc8       __imp_?ToString@Value@v8@@QEBA?AV?$MaybeLocal@VString@v8@@@2@V?$Local@VContext@v8@@@2@@Z 0000000180043bc8     node:node.exe
 0003:00000bd0       __imp_?Escape@EscapableHandleScope@v8@@AEAAPEAPEAVObject@internal@2@PEAPEAV342@@Z 0000000180043bd0     node:node.exe
 0003:00000bd8       __imp_??0EscapableHandleScope@v8@@QEAA@PEAVIsolate@1@@Z 0000000180043bd8     node:node.exe
 0003:00000be0       __imp_?NewFromUtf8@String@v8@@SA?AV?$MaybeLocal@VString@v8@@@2@PEAVIsolate@2@PEBDW4NewStringType@2@H@Z 0000000180043be0     node:node.exe
 0003:00000be8       __imp_?WriteUtf8@String@v8@@QEBAHPEADHPEAHH@Z 0000000180043be8     node:node.exe
 0003:00000bf0       __imp_?Length@String@v8@@QEBAHXZ 0000000180043bf0     node:node.exe
 0003:00000bf8       __imp_?Has@Object@v8@@QEAA?AV?$Maybe@_N@2@V?$Local@VContext@v8@@@2@V?$Local@VValue@v8@@@2@@Z 0000000180043bf8     node:node.exe
 0003:00000c00       __imp_?Get@Object@v8@@QEAA?AV?$MaybeLocal@VValue@v8@@@2@V?$Local@VContext@v8@@@2@V?$Local@VValue@v8@@@2@@Z 0000000180043c00     node:node.exe
 0003:00000c08       __imp_?Data@Buffer@node@@YAPEADV?$Local@VObject@v8@@@v8@@@Z 0000000180043c08     node:node.exe
 0003:00000c10       __imp_?Length@Buffer@node@@YA_KV?$Local@VObject@v8@@@v8@@@Z 0000000180043c10     node:node.exe
 0003:00000c18       __imp_??1EscapableHandleScope@v8@@QEAA@XZ 0000000180043c18     node:node.exe
 0003:00000c20       __imp_uv_queue_work        0000000180043c20     node:node.exe
 0003:00000c28       __imp_?Global@Context@v8@@QEAA?AV?$Local@VObject@v8@@@2@XZ 0000000180043c28     node:node.exe
 0003:00000c30       __imp_?NewFromUnsigned@Integer@v8@@SA?AV?$Local@VInteger@v8@@@2@PEAVIsolate@2@I@Z 0000000180043c30     node:node.exe
 0003:00000c38       __imp_?CreateHandle@HandleScope@v8@@KAPEAPEAVObject@internal@2@PEAVIsolate@42@PEAV342@@Z 0000000180043c38     node:node.exe
 0003:00000c40       __imp_?Error@Exception@v8@@SA?AV?$Local@VValue@v8@@@2@V?$Local@VString@v8@@@2@@Z 0000000180043c40     node:node.exe
 0003:00000c48       __imp_?DisposeGlobal@V8@v8@@CAXPEAPEAVObject@internal@2@@Z 0000000180043c48     node:node.exe
 0003:00000c50       __imp_?GlobalizeReference@V8@v8@@CAPEAPEAVObject@internal@2@PEAVIsolate@42@PEAPEAV342@@Z 0000000180043c50     node:node.exe
 0003:00000c58       __imp_?ToUint32@Value@v8@@QEBA?AV?$MaybeLocal@VUint32@v8@@@2@V?$Local@VContext@v8@@@2@@Z 0000000180043c58     node:node.exe
 0003:00000c60       __imp_?New@Object@v8@@SA?AV?$Local@VObject@v8@@@2@PEAVIsolate@2@@Z 0000000180043c60     node:node.exe
 0003:00000c68       __imp_?Get@Object@v8@@QEAA?AV?$MaybeLocal@VValue@v8@@@2@V?$Local@VContext@v8@@@2@I@Z 0000000180043c68     node:node.exe
 0003:00000c70       __imp_?Set@Object@v8@@QEAA?AV?$Maybe@_N@2@V?$Local@VContext@v8@@@2@V?$Local@VValue@v8@@@2@1@Z 0000000180043c70     node:node.exe
 0003:00000c78       __imp_?Set@Object@v8@@QEAA?AV?$Maybe@_N@2@V?$Local@VContext@v8@@@2@IV?$Local@VValue@v8@@@2@@Z 0000000180043c78     node:node.exe
 0003:00000c80       __imp_?EmitAsyncDestroy@node@@YAXPEAVIsolate@v8@@Uasync_context@1@@Z 0000000180043c80     node:node.exe
 0003:00000c88       __imp_?New@Buffer@node@@YA?AV?$MaybeLocal@VObject@v8@@@v8@@PEAVIsolate@4@PEAD_KP6AX1PEAX@Z3@Z 0000000180043c88     node:node.exe
 0003:00000c90       __imp_?MakeCallback@node@@YA?AV?$MaybeLocal@VValue@v8@@@v8@@PEAVIsolate@3@V?$Local@VObject@v8@@@3@V?$Local@VFunction@v8@@@3@HPEAV?$Local@VValue@v8@@@3@Uasync_context@1@@Z 0000000180043c90     node:node.exe
 0003:00000c98       __imp_?EmitAsyncInit@node@@YA?AUasync_context@1@PEAVIsolate@v8@@V?$Local@VObject@v8@@@4@V?$Local@VString@v8@@@4@N@Z 0000000180043c98     node:node.exe
 0003:00000ca0       __imp_?GetCurrentEventLoop@node@@YAPEAUuv_loop_s@@PEAVIsolate@v8@@@Z 0000000180043ca0     node:node.exe
 0003:00000ca8       __imp_?Int32Value@Value@v8@@QEBA?AV?$Maybe@H@2@V?$Local@VContext@v8@@@2@@Z 0000000180043ca8     node:node.exe
 0003:00000cb0       __imp_?NumberValue@Value@v8@@QEBA?AV?$Maybe@N@2@V?$Local@VContext@v8@@@2@@Z 0000000180043cb0     node:node.exe
 0003:00000cb8       __imp_?BooleanValue@Value@v8@@QEBA?AV?$Maybe@_N@2@V?$Local@VContext@v8@@@2@@Z 0000000180043cb8     node:node.exe
 0003:00000cc0       __imp_?Value@External@v8@@QEBAPEAXXZ 0000000180043cc0     node:node.exe
 0003:00000cc8       __imp_?New@External@v8@@SA?AV?$Local@VExternal@v8@@@2@PEAVIsolate@2@PEAX@Z 0000000180043cc8     node:node.exe
 0003:00000cd0       __imp_?CreateHandle@HandleScope@v8@@CAPEAPEAVObject@internal@2@PEAVHeapObject@42@PEAV342@@Z 0000000180043cd0     node:node.exe
 0003:00000cd8       __imp_?GetFunction@FunctionTemplate@v8@@QEAA?AV?$MaybeLocal@VFunction@v8@@@2@V?$Local@VContext@v8@@@2@@Z 0000000180043cd8     node:node.exe
 0003:00000ce0       __imp_?New@FunctionTemplate@v8@@SA?AV?$Local@VFunctionTemplate@v8@@@2@PEAVIsolate@2@P6AXAEBV?$FunctionCallbackInfo@VValue@v8@@@2@@ZV?$Local@VValue@v8@@@2@V?$Local@VSignature@v8@@@2@HW4ConstructorBehavior@2@W4SideEffectType@2@@Z 0000000180043ce0     node:node.exe
 0003:00000ce8       __imp_?SlowGetInternalField@Object@v8@@AEAA?AV?$Local@VValue@v8@@@2@H@Z 0000000180043ce8     node:node.exe
 0003:00000cf0       __imp_?SetInternalField@Object@v8@@QEAAXHV?$Local@VValue@v8@@@2@@Z 0000000180043cf0     node:node.exe
 0003:00000cf8       __imp_?SetInternalFieldCount@ObjectTemplate@v8@@QEAAXH@Z 0000000180043cf8     node:node.exe
 0003:00000d00       __imp_?NewInstance@ObjectTemplate@v8@@QEAA?AV?$MaybeLocal@VObject@v8@@@2@V?$Local@VContext@v8@@@2@@Z 0000000180043d00     node:node.exe
 0003:00000d08       __imp_?New@ObjectTemplate@v8@@SA?AV?$Local@VObjectTemplate@v8@@@2@PEAVIsolate@2@V?$Local@VFunctionTemplate@v8@@@2@@Z 0000000180043d08     node:node.exe
 0003:00000d10       __imp_node_module_register 0000000180043d10     node:node.exe
 0003:00000d18       __imp_?New@Integer@v8@@SA?AV?$Local@VInteger@v8@@@2@PEAVIsolate@2@H@Z 0000000180043d18     node:node.exe
 0003:00000d20       __imp_?ThrowException@Isolate@v8@@QEAA?AV?$Local@VValue@v8@@@2@V32@@Z 0000000180043d20     node:node.exe
 0003:00000d28       __imp_?ToInteger@Value@v8@@QEBA?AV?$MaybeLocal@VInteger@v8@@@2@V?$Local@VContext@v8@@@2@@Z 0000000180043d28     node:node.exe
 0003:00000d30       __imp_?IsInt32@Value@v8@@QEBA_NXZ 0000000180043d30     node:node.exe
 0003:00000d38       __imp_?New@Number@v8@@SA?AV?$Local@VNumber@v8@@@2@PEAVIsolate@2@N@Z 0000000180043d38     node:node.exe
 0003:00000d40       \177node_NULL_THUNK_DATA_DLA 0000000180043d40     node:node.exe
 0003:00000d50       __hmod__node_exe           0000000180043d50     node:node.exe
 0003:000012e0       ?__type_info_root_node@@3U__type_info_node@@A 00000001800442e0     LIBCMT:tncleanup.obj
 0003:000012f0       ?_OptionsStorage@?1??__local_stdio_printf_options@@9@4_KA 00000001800442f0     LIBCMT:default_local_stdio_options.obj
 0003:000012f8       ?_OptionsStorage@?1??__local_stdio_scanf_options@@9@4_KA 00000001800442f8     LIBCMT:default_local_stdio_options.obj
 0003:00001300       __scrt_current_native_startup_state 0000000180044300     LIBCMT:utility.obj
 0003:00001308       __scrt_native_startup_lock 0000000180044308     LIBCMT:utility.obj
 0003:00001348       __scrt_debugger_hook_flag  0000000180044348     LIBCMT:utility_desktop.obj
 0003:0000134c       __favor                    000000018004434c     LIBCMT:_cpu_disp_.obj
 0003:00001350       ?__WinRTOutOfMemoryExceptionCallback@@3P6APEAXXZEA 0000000180044350     libvcruntime:ehhelpers.obj
 0003:000013f0       __pPurecall                00000001800443f0     libvcruntime:purevirt_data.obj
 0003:000013f8       ?pArgList@UnDecorator@@0PEAVReplicator@@EA 00000001800443f8     libvcruntime:undname.obj
 0003:00001400       ?pZNameList@UnDecorator@@0PEAVReplicator@@EA 0000000180044400     libvcruntime:undname.obj
 0003:00001408       ?pTemplateArgList@UnDecorator@@0PEAVReplicator@@EA 0000000180044408     libvcruntime:undname.obj
 0003:00001410       ?gName@UnDecorator@@0PEBDEB 0000000180044410     libvcruntime:undname.obj
 0003:00001418       ?name@UnDecorator@@0PEBDEB 0000000180044418     libvcruntime:undname.obj
 0003:00001420       ?disableFlags@UnDecorator@@0KA 0000000180044420     libvcruntime:undname.obj
 0003:00001424       ?fExplicitTemplateParams@UnDecorator@@0_NA 0000000180044424     libvcruntime:undname.obj
 0003:00001425       ?fGetTemplateArgumentList@UnDecorator@@0_NA 0000000180044425     libvcruntime:undname.obj
 0003:00001428       ?m_pGetParameter@UnDecorator@@0P6APEADJ@ZEA 0000000180044428     libvcruntime:undname.obj
 0003:00001430       ?m_CHPENameOffset@UnDecorator@@0KA 0000000180044430     libvcruntime:undname.obj
 0003:00001434       ?m_recursionLevel@UnDecorator@@0KA 0000000180044434     libvcruntime:undname.obj
 0003:000014f0       ?c_exit_complete@?1???R<lambda_6e4b09c48022b2350581041d5f6b0c4c>@@QEBA@XZ@4_NA 00000001800444f0     libucrt:exit.obj
 0003:00001608       _environ_table             0000000180044608     libucrt:environment_initialization.obj
 0003:00001610       _wenviron_table            0000000180044610     libucrt:environment_initialization.obj
 0003:00001618       __dcrt_initial_wide_environment 0000000180044618     libucrt:environment_initialization.obj
 0003:00001620       __dcrt_initial_narrow_environment 0000000180044620     libucrt:environment_initialization.obj
 0003:00001628       __acrt_atexit_table        0000000180044628     libucrt:onexit.obj
 0003:00001640       __acrt_at_quick_exit_table 0000000180044640     libucrt:onexit.obj
 0003:00001658       __acrt_locale_changed_data 0000000180044658     libucrt:wsetlocale.obj
 0003:00001660       __acrt_current_locale_data 0000000180044660     libucrt:nlsdata.obj
 0003:00001670       _nstream                   0000000180044670     libucrt:_file.obj
 0003:00001678       __piob                     0000000180044678     libucrt:_file.obj
 0003:00001680       _cflush                    0000000180044680     libucrt:_file.obj
 0003:000018f0       __acrt_current_multibyte_data 00000001800448f0     libucrt:mbctype.obj
 0003:000018f8       _mbctype                   00000001800448f8     libucrt:mbctype.obj
 0003:00001900       _mbcasemap                 0000000180044900     libucrt:mbctype.obj
 0003:00001910       __argc                     0000000180044910     libucrt:argv_data.obj
 0003:00001918       __argv                     0000000180044918     libucrt:argv_data.obj
 0003:00001920       __wargv                    0000000180044920     libucrt:argv_data.obj
 0003:00001928       _acmdln                    0000000180044928     libucrt:argv_data.obj
 0003:00001930       _wcmdln                    0000000180044930     libucrt:argv_data.obj
 0003:00001938       _pgmptr                    0000000180044938     libucrt:argv_data.obj
 0003:00001af0       __acrt_heap                0000000180044af0     libucrt:heap_handle.obj
 0003:00001b00       __pioinfo                  0000000180044b00     libucrt:ioinit.obj
 0003:00001f00       _nhandle                   0000000180044f00     libucrt:ioinit.obj
 0003:00001f10       __acrt_stdout_buffer       0000000180044f10     libucrt:_sftbuf.obj
 0003:00001f18       __acrt_stderr_buffer       0000000180044f18     libucrt:_sftbuf.obj
 0003:00001f30       __acrt_lconv_static_null   0000000180044f30     libucrt:localeconv.obj
 0003:00001f34       __acrt_lconv_static_W_null 0000000180044f34     libucrt:localeconv.obj
 0003:00001f48       __fma3_is_available        0000000180044f48     libucrt:fma3_available.obj
 0003:00001f4c       __use_fma3_lib             0000000180044f4c     libucrt:fma3_available.obj
 0003:00001f58       ?DloadKernel32@@3PEAUHINSTANCE__@@EA 0000000180044f58     DelayImp:delayhlp.obj
 0003:00001f60       ?DloadAcquireSRWLockExclusive@@3P6AXPEA_K@ZEA 0000000180044f60     DelayImp:delayhlp.obj
 0003:00001f68       ?DloadReleaseSRWLockExclusive@@3P6AXPEA_K@ZEA 0000000180044f68     DelayImp:delayhlp.obj
 0003:00001f70       ?DloadSrwLock@@3_KA        0000000180044f70     DelayImp:delayhlp.obj
 0003:00001f78       ?DloadSectionLockCount@@3KA 0000000180044f78     DelayImp:delayhlp.obj
 0003:00001f7c       ?DloadSectionOldProtection@@3KA 0000000180044f7c     DelayImp:delayhlp.obj
 0003:00001f80       ?DloadSectionCommitPermanent@@3KA 0000000180044f80     DelayImp:delayhlp.obj
 0003:00001f84       ?counterQueue@sharp@@3HC   0000000180044f84     common.obj
 0003:00001f88       ?counterProcess@sharp@@3HC 0000000180044f88     common.obj
 0003:00001f8c       __scrt_ucrt_dll_is_in_use  0000000180044f8c     <common>
 0003:00001f90       __dyn_tls_init_callback    0000000180044f90     <common>

 entry point at        0001:0001638c

 Static symbols

 0000:fffb7000       .debug$S                   0000000180000000     kernel32:KERNEL32.dll
 0000:fffb7000       .debug$S                   0000000180000000     node:node.exe
 0000:fffb7000       .debug$S                   0000000180000000     node:node.exe
 0000:fffb7000       .debug$S                   0000000180000000     node:node.exe
 0000:fffb7000       .debug$S                   0000000180000000     node:node.exe
 0000:fffb7000       .debug$S                   0000000180000000     node:node.exe
 0000:fffb7000       .debug$S                   0000000180000000     node:node.exe
 0000:fffb7000       .debug$S                   0000000180000000     node:node.exe
 0000:fffb7000       .debug$S                   0000000180000000     node:node.exe
 0000:fffb7000       .debug$S                   0000000180000000     node:node.exe
 0000:fffb7000       .debug$S                   0000000180000000     node:node.exe
 0000:fffb7000       .debug$S                   0000000180000000     node:node.exe
 0000:fffb7000       .debug$S                   0000000180000000     node:node.exe
 0000:fffb7000       .debug$S                   0000000180000000     node:node.exe
 0000:fffb7000       .debug$S                   0000000180000000     node:node.exe
 0000:fffb7000       .debug$S                   0000000180000000     node:node.exe
 0000:fffb7000       .debug$S                   0000000180000000     node:node.exe
 0000:fffb7000       .debug$S                   0000000180000000     node:node.exe
 0000:fffb7000       .debug$S                   0000000180000000     node:node.exe
 0000:fffb7000       .debug$S                   0000000180000000     node:node.exe
 0000:fffb7000       .debug$S                   0000000180000000     node:node.exe
 0000:fffb7000       .debug$S                   0000000180000000     node:node.exe
 0000:fffb7000       .debug$S                   0000000180000000     node:node.exe
 0000:fffb7000       .debug$S                   0000000180000000     node:node.exe
 0000:fffb7000       .debug$S                   0000000180000000     node:node.exe
 0000:fffb7000       .debug$S                   0000000180000000     node:node.exe
 0000:fffb7000       .debug$S                   0000000180000000     node:node.exe
 0000:fffb7000       .debug$S                   0000000180000000     node:node.exe
 0000:fffb7000       .debug$S                   0000000180000000     node:node.exe
 0000:fffb7000       .debug$S                   0000000180000000     node:node.exe
 0000:fffb7000       .debug$S                   0000000180000000     node:node.exe
 0000:fffb7000       .debug$S                   0000000180000000     node:node.exe
 0000:fffb7000       .debug$S                   0000000180000000     node:node.exe
 0000:fffb7000       .debug$S                   0000000180000000     node:node.exe
 0000:fffb7000       .debug$S                   0000000180000000     node:node.exe
 0000:fffb7000       .debug$S                   0000000180000000     node:node.exe
 0000:fffb7000       .debug$S                   0000000180000000     node:node.exe
 0000:fffb7000       .debug$S                   0000000180000000     libvips-cpp:libvips-cpp.dll
 0000:fffb7000       .debug$S                   0000000180000000     node:node.exe
 0000:fffb7000       .debug$S                   0000000180000000     libvips-cpp:libvips-cpp.dll
 0000:fffb7000       .debug$S                   0000000180000000     node:node.exe
 0000:fffb7000       .debug$S                   0000000180000000     node:node.exe
 0000:fffb7000       .debug$S                   0000000180000000     libvips-cpp:libvips-cpp.dll
 0000:fffb7000       .debug$S                   0000000180000000     kernel32:KERNEL32.dll
 0000:fffb7000       .debug$S                   0000000180000000     libvips-cpp:libvips-cpp.dll
 0000:fffb7000       .debug$S                   0000000180000000     kernel32:KERNEL32.dll
 0000:fffb7000       .debug$S                   0000000180000000     kernel32:KERNEL32.dll
 0000:fffb7000       .debug$S                   0000000180000000     libvips-cpp:libvips-cpp.dll
 0000:fffb7000       .debug$S                   0000000180000000     kernel32:KERNEL32.dll
 0000:fffb7000       .debug$S                   0000000180000000     libvips-cpp:libvips-cpp.dll
 0000:fffb7000       .debug$S                   0000000180000000     kernel32:KERNEL32.dll
 0000:fffb7000       .debug$S                   0000000180000000     kernel32:KERNEL32.dll
 0000:fffb7000       .debug$S                   0000000180000000     libvips-cpp:libvips-cpp.dll
 0000:fffb7000       .debug$S                   0000000180000000     kernel32:KERNEL32.dll
 0000:fffb7000       .debug$S                   0000000180000000     libvips-cpp:libvips-cpp.dll
 0000:fffb7000       .debug$S                   0000000180000000     kernel32:KERNEL32.dll
 0000:fffb7000       .debug$S                   0000000180000000     kernel32:KERNEL32.dll
 0000:fffb7000       .debug$S                   0000000180000000     kernel32:KERNEL32.dll
 0000:fffb7000       .debug$S                   0000000180000000     libvips-cpp:libvips-cpp.dll
 0000:fffb7000       .debug$S                   0000000180000000     kernel32:KERNEL32.dll
 0000:fffb7000       .debug$S                   0000000180000000     kernel32:KERNEL32.dll
 0000:fffb7000       .debug$S                   0000000180000000     kernel32:KERNEL32.dll
 0000:fffb7000       .debug$S                   0000000180000000     kernel32:KERNEL32.dll
 0000:fffb7000       .debug$S                   0000000180000000     kernel32:KERNEL32.dll
 0000:fffb7000       .debug$S                   0000000180000000     kernel32:KERNEL32.dll
 0000:fffb7000       .debug$S                   0000000180000000     kernel32:KERNEL32.dll
 0000:fffb7000       .debug$S                   0000000180000000     kernel32:KERNEL32.dll
 0000:fffb7000       .debug$S                   0000000180000000     kernel32:KERNEL32.dll
 0000:fffb7000       .debug$S                   0000000180000000     kernel32:KERNEL32.dll
 0000:fffb7000       .debug$S                   0000000180000000     kernel32:KERNEL32.dll
 0000:fffb7000       .debug$S                   0000000180000000     kernel32:KERNEL32.dll
 0000:fffb7000       .debug$S                   0000000180000000     kernel32:KERNEL32.dll
 0000:fffb7000       .debug$S                   0000000180000000     kernel32:KERNEL32.dll
 0000:fffb7000       .debug$S                   0000000180000000     kernel32:KERNEL32.dll
 0000:fffb7000       .debug$S                   0000000180000000     kernel32:KERNEL32.dll
 0000:fffb7000       .debug$S                   0000000180000000     kernel32:KERNEL32.dll
 0000:fffb7000       .debug$S                   0000000180000000     kernel32:KERNEL32.dll
 0000:fffb7000       .debug$S                   0000000180000000     kernel32:KERNEL32.dll
 0000:fffb7000       .debug$S                   0000000180000000     kernel32:KERNEL32.dll
 0000:fffb7000       .debug$S                   0000000180000000     kernel32:KERNEL32.dll
 0000:fffb7000       .debug$S                   0000000180000000     kernel32:KERNEL32.dll
 0000:fffb7000       .debug$S                   0000000180000000     kernel32:KERNEL32.dll
 0000:fffb7000       .debug$S                   0000000180000000     kernel32:KERNEL32.dll
 0000:fffb7000       .debug$S                   0000000180000000     kernel32:KERNEL32.dll
 0000:fffb7000       .debug$S                   0000000180000000     kernel32:KERNEL32.dll
 0000:fffb7000       .debug$S                   0000000180000000     kernel32:KERNEL32.dll
 0000:fffb7000       .debug$S                   0000000180000000     kernel32:KERNEL32.dll
 0000:fffb7000       .debug$S                   0000000180000000     kernel32:KERNEL32.dll
 0000:fffb7000       .debug$S                   0000000180000000     kernel32:KERNEL32.dll
 0000:fffb7000       .debug$S                   0000000180000000     kernel32:KERNEL32.dll
 0000:fffb7000       .debug$S                   0000000180000000     kernel32:KERNEL32.dll
 0000:fffb7000       .debug$S                   0000000180000000     kernel32:KERNEL32.dll
 0000:fffb7000       .debug$S                   0000000180000000     kernel32:KERNEL32.dll
 0000:fffb7000       .debug$S                   0000000180000000     kernel32:KERNEL32.dll
 0000:fffb7000       .debug$S                   0000000180000000     kernel32:KERNEL32.dll
 0000:fffb7000       .debug$S                   0000000180000000     kernel32:KERNEL32.dll
 0000:fffb7000       .debug$S                   0000000180000000     kernel32:KERNEL32.dll
 0000:fffb7000       .debug$S                   0000000180000000     kernel32:KERNEL32.dll
 0000:fffb7000       .debug$S                   0000000180000000     kernel32:KERNEL32.dll
 0000:fffb7000       .debug$S                   0000000180000000     kernel32:KERNEL32.dll
 0000:fffb7000       .debug$S                   0000000180000000     kernel32:KERNEL32.dll
 0000:fffb7000       .debug$S                   0000000180000000     kernel32:KERNEL32.dll
 0000:fffb7000       .debug$S                   0000000180000000     kernel32:KERNEL32.dll
 0000:fffb7000       .debug$S                   0000000180000000     kernel32:KERNEL32.dll
 0000:fffb7000       .debug$S                   0000000180000000     kernel32:KERNEL32.dll
 0000:fffb7000       .debug$S                   0000000180000000     kernel32:KERNEL32.dll
 0000:fffb7000       .debug$S                   0000000180000000     kernel32:KERNEL32.dll
 0000:fffb7000       .debug$S                   0000000180000000     kernel32:KERNEL32.dll
 0000:fffb7000       .debug$S                   0000000180000000     kernel32:KERNEL32.dll
 0000:fffb7000       .debug$S                   0000000180000000     kernel32:KERNEL32.dll
 0000:fffb7000       .debug$S                   0000000180000000     kernel32:KERNEL32.dll
 0000:fffb7000       .debug$S                   0000000180000000     kernel32:KERNEL32.dll
 0000:fffb7000       .debug$S                   0000000180000000     kernel32:KERNEL32.dll
 0000:fffb7000       .debug$S                   0000000180000000     kernel32:KERNEL32.dll
 0000:fffb7000       .debug$S                   0000000180000000     kernel32:KERNEL32.dll
 0000:fffb7000       .debug$S                   0000000180000000     kernel32:KERNEL32.dll
 0000:fffb7000       .debug$S                   0000000180000000     kernel32:KERNEL32.dll
 0000:fffb7000       .debug$S                   0000000180000000     kernel32:KERNEL32.dll
 0000:fffb7000       .debug$S                   0000000180000000     kernel32:KERNEL32.dll
 0000:fffb7000       .debug$S                   0000000180000000     kernel32:KERNEL32.dll
 0000:fffb7000       .debug$S                   0000000180000000     kernel32:KERNEL32.dll
 0000:fffb7000       .debug$S                   0000000180000000     kernel32:KERNEL32.dll
 0000:fffb7000       .debug$S                   0000000180000000     kernel32:KERNEL32.dll
 0000:fffb7000       .debug$S                   0000000180000000     kernel32:KERNEL32.dll
 0000:fffb7000       .debug$S                   0000000180000000     kernel32:KERNEL32.dll
 0000:fffb7000       .debug$S                   0000000180000000     kernel32:KERNEL32.dll
 0000:fffb7000       .debug$S                   0000000180000000     kernel32:KERNEL32.dll
 0000:fffb7000       .debug$S                   0000000180000000     kernel32:KERNEL32.dll
 0000:fffb7000       .debug$S                   0000000180000000     libvips-cpp:libvips-cpp.dll
 0000:fffb7000       .debug$S                   0000000180000000     kernel32:KERNEL32.dll
 0000:fffb7000       .debug$S                   0000000180000000     node:node.exe
 0000:fffb7000       .debug$S                   0000000180000000     node:node.exe
 0000:fffb7000       .debug$S                   0000000180000000     libvips-cpp:libvips-cpp.dll
 0000:fffb7000       .debug$S                   0000000180000000     libvips-cpp:libvips-cpp.dll
 0000:fffb7000       .debug$S                   0000000180000000     node:node.exe
 0000:fffb7000       .debug$S                   0000000180000000     libvips-cpp:libvips-cpp.dll
 0000:fffb7000       .debug$S                   0000000180000000     node:node.exe
 0000:fffb7000       .debug$S                   0000000180000000     node:node.exe
 0000:fffb7000       .debug$S                   0000000180000000     libvips-cpp:libvips-cpp.dll
 0000:fffb7000       .debug$S                   0000000180000000     node:node.exe
 0000:fffb7000       .debug$S                   0000000180000000     libvips-cpp:libvips-cpp.dll
 0000:fffb7000       .debug$S                   0000000180000000     node:node.exe
 0000:fffb7000       .debug$S                   0000000180000000     node:node.exe
 0000:fffb7000       .debug$S                   0000000180000000     libvips-cpp:libvips-cpp.dll
 0000:fffb7000       .debug$S                   0000000180000000     libvips-cpp:libvips-cpp.dll
 0000:fffb7000       .debug$S                   0000000180000000     libvips-cpp:libvips-cpp.dll
 0000:fffb7000       .debug$S                   0000000180000000     node:node.exe
 0000:fffb7000       .debug$S                   0000000180000000     libvips-cpp:libvips-cpp.dll
 0000:fffb7000       .debug$S                   0000000180000000     node:node.exe
 0000:fffb7000       .debug$S                   0000000180000000     node:node.exe
 0000:fffb7000       .debug$S                   0000000180000000     libvips-cpp:libvips-cpp.dll
 0000:fffb7000       .debug$S                   0000000180000000     libvips-cpp:libvips-cpp.dll
 0000:fffb7000       .debug$S                   0000000180000000     libvips-cpp:libvips-cpp.dll
 0000:fffb7000       .debug$S                   0000000180000000     node:node.exe
 0000:fffb7000       .debug$S                   0000000180000000     libvips-cpp:libvips-cpp.dll
 0000:fffb7000       .debug$S                   0000000180000000     libvips-cpp:libvips-cpp.dll
 0000:fffb7000       .debug$S                   0000000180000000     node:node.exe
 0000:fffb7000       .debug$S                   0000000180000000     kernel32:KERNEL32.dll
 0000:fffb7000       .debug$S                   0000000180000000     kernel32:KERNEL32.dll
 0000:fffb7000       .debug$S                   0000000180000000     kernel32:KERNEL32.dll
 0000:fffb7000       .debug$S                   0000000180000000     kernel32:KERNEL32.dll
 0000:fffb7000       .debug$S                   0000000180000000     kernel32:KERNEL32.dll
 0000:fffb7000       .debug$S                   0000000180000000     libvips-cpp:libvips-cpp.dll
 0000:fffb7000       .debug$S                   0000000180000000     sharp.exp
 0000:fffb7000       .debug$S                   0000000180000000     libvips-cpp:libvips-cpp.dll
 0000:fffb7000       .debug$S                   0000000180000000     libvips-cpp:libvips-cpp.dll
 0000:fffb7000       .debug$S                   0000000180000000     libvips-cpp:libvips-cpp.dll
 0000:fffb7000       .debug$S                   0000000180000000     libvips-cpp:libvips-cpp.dll
 0000:fffb7000       .debug$S                   0000000180000000     libvips-cpp:libvips-cpp.dll
 0000:fffb7000       .debug$S                   0000000180000000     libvips-cpp:libvips-cpp.dll
 0000:fffb7000       .debug$S                   0000000180000000     libvips-cpp:libvips-cpp.dll
 0000:fffb7000       .debug$S                   0000000180000000     libvips-cpp:libvips-cpp.dll
 0000:fffb7000       .debug$S                   0000000180000000     node:node.exe
 0000:fffb7000       .debug$S                   0000000180000000     libvips-cpp:libvips-cpp.dll
 0000:fffb7000       .debug$S                   0000000180000000     node:node.exe
 0000:fffb7000       .debug$S                   0000000180000000     libvips-cpp:libvips-cpp.dll
 0000:fffb7000       .debug$S                   0000000180000000     node:node.exe
 0000:fffb7000       .debug$S                   0000000180000000     libvips-cpp:libvips-cpp.dll
 0000:fffb7000       .debug$S                   0000000180000000     libvips-cpp:libvips-cpp.dll
 0000:fffb7000       .debug$S                   0000000180000000     libvips-cpp:libvips-cpp.dll
 0000:fffb7000       .debug$S                   0000000180000000     libvips-cpp:libvips-cpp.dll
 0000:fffb7000       .debug$S                   0000000180000000     libvips-cpp:libvips-cpp.dll
 0000:fffb7000       .debug$S                   0000000180000000     libvips-cpp:libvips-cpp.dll
 0000:fffb7000       .debug$S                   0000000180000000     libvips-cpp:libvips-cpp.dll
 0000:fffb7000       .debug$S                   0000000180000000     libvips-cpp:libvips-cpp.dll
 0000:fffb7000       .debug$S                   0000000180000000     libvips-cpp:libvips-cpp.dll
 0000:fffb7000       .debug$S                   0000000180000000     libvips-cpp:libvips-cpp.dll
 0000:fffb7000       .debug$S                   0000000180000000     libvips-cpp:libvips-cpp.dll
 0000:fffb7000       .debug$S                   0000000180000000     libvips-cpp:libvips-cpp.dll
 0000:fffb7000       .debug$S                   0000000180000000     libvips-cpp:libvips-cpp.dll
 0000:fffb7000       .debug$S                   0000000180000000     libvips-cpp:libvips-cpp.dll
 0000:fffb7000       .debug$S                   0000000180000000     libvips-cpp:libvips-cpp.dll
 0000:fffb7000       .debug$S                   0000000180000000     libvips-cpp:libvips-cpp.dll
 0000:fffb7000       .debug$S                   0000000180000000     libvips-cpp:libvips-cpp.dll
 0000:fffb7000       .debug$S                   0000000180000000     libvips-cpp:libvips-cpp.dll
 0000:fffb7000       .debug$S                   0000000180000000     libvips-cpp:libvips-cpp.dll
 0000:fffb7000       .debug$S                   0000000180000000     libvips-cpp:libvips-cpp.dll
 0000:fffb7000       .debug$S                   0000000180000000     libvips-cpp:libvips-cpp.dll
 0000:fffb7000       .debug$S                   0000000180000000     libvips-cpp:libvips-cpp.dll
 0000:fffb7000       .debug$S                   0000000180000000     libvips-cpp:libvips-cpp.dll
 0000:fffb7000       .debug$S                   0000000180000000     libvips-cpp:libvips-cpp.dll
 0000:fffb7000       .debug$S                   0000000180000000     libvips-cpp:libvips-cpp.dll
 0000:fffb7000       .debug$S                   0000000180000000     libvips-cpp:libvips-cpp.dll
 0000:fffb7000       .debug$S                   0000000180000000     libvips-cpp:libvips-cpp.dll
 0000:fffb7000       .debug$S                   0000000180000000     libvips-cpp:libvips-cpp.dll
 0000:fffb7000       .debug$S                   0000000180000000     libvips-cpp:libvips-cpp.dll
 0000:fffb7000       .debug$S                   0000000180000000     node:node.exe
 0000:fffb7000       .debug$S                   0000000180000000     libvips-cpp:libvips-cpp.dll
 0000:fffb7000       .debug$S                   0000000180000000     node:node.exe
 0000:fffb7000       .debug$S                   0000000180000000     libvips-cpp:libvips-cpp.dll
 0000:fffb7000       .debug$S                   0000000180000000     node:node.exe
 0000:fffb7000       .debug$S                   0000000180000000     libvips-cpp:libvips-cpp.dll
 0000:fffb7000       .debug$S                   0000000180000000     libvips-cpp:libvips-cpp.dll
 0000:fffb7000       .debug$S                   0000000180000000     libvips-cpp:libvips-cpp.dll
 0000:fffb7000       .debug$S                   0000000180000000     libvips-cpp:libvips-cpp.dll
 0000:fffb7000       .debug$S                   0000000180000000     libvips-cpp:libvips-cpp.dll
 0000:fffb7000       .debug$S                   0000000180000000     libvips-cpp:libvips-cpp.dll
 0000:fffb7000       .debug$S                   0000000180000000     libvips-cpp:libvips-cpp.dll
 0000:fffb7000       .debug$S                   0000000180000000     libvips-cpp:libvips-cpp.dll
 0000:fffb7000       .debug$S                   0000000180000000     libvips-cpp:libvips-cpp.dll
 0000:fffb7000       .debug$S                   0000000180000000     libvips-cpp:libvips-cpp.dll
 0000:fffb7000       .debug$S                   0000000180000000     libvips-cpp:libvips-cpp.dll
 0000:fffb7000       .debug$S                   0000000180000000     libvips-cpp:libvips-cpp.dll
 0000:fffb7000       .debug$S                   0000000180000000     libvips-cpp:libvips-cpp.dll
 0000:fffb7000       .debug$S                   0000000180000000     libvips-cpp:libvips-cpp.dll
 0000:fffb7000       .debug$S                   0000000180000000     libvips-cpp:libvips-cpp.dll
 0000:fffb7000       .debug$S                   0000000180000000     libvips-cpp:libvips-cpp.dll
 0000:fffb7000       .debug$S                   0000000180000000     libvips-cpp:libvips-cpp.dll
 0000:fffb7000       .debug$S                   0000000180000000     libvips-cpp:libvips-cpp.dll
 0000:fffb7000       .debug$S                   0000000180000000     libvips-cpp:libvips-cpp.dll
 0000:fffb7000       .debug$S                   0000000180000000     libvips-cpp:libvips-cpp.dll
 0000:fffb7000       .debug$S                   0000000180000000     libvips-cpp:libvips-cpp.dll
 0000:fffb7000       .debug$S                   0000000180000000     libvips-cpp:libvips-cpp.dll
 0000:fffb7000       .debug$S                   0000000180000000     libvips-cpp:libvips-cpp.dll
 0000:fffb7000       .debug$S                   0000000180000000     libvips-cpp:libvips-cpp.dll
 0000:fffb7000       .debug$S                   0000000180000000     libvips-cpp:libvips-cpp.dll
 0000:fffb7000       .debug$S                   0000000180000000     libvips-cpp:libvips-cpp.dll
 0000:fffb7000       .debug$S                   0000000180000000     libvips-cpp:libvips-cpp.dll
 0000:fffb7000       .debug$S                   0000000180000000     node:node.exe
 0000:fffb7000       .debug$S                   0000000180000000     libvips-cpp:libvips-cpp.dll
 0000:fffb7000       .debug$S                   0000000180000000     libvips-cpp:libvips-cpp.dll
 0000:fffb7000       .debug$S                   0000000180000000     libvips-cpp:libvips-cpp.dll
 0000:fffb7000       .debug$S                   0000000180000000     libvips-cpp:libvips-cpp.dll
 0000:fffb7000       .debug$S                   0000000180000000     libvips-cpp:libvips-cpp.dll
 0000:fffb7000       .debug$S                   0000000180000000     libvips-cpp:libvips-cpp.dll
 0000:fffb7000       .debug$S                   0000000180000000     libvips-cpp:libvips-cpp.dll
 0000:fffb7000       .debug$S                   0000000180000000     libvips-cpp:libvips-cpp.dll
 0000:fffb7000       .debug$S                   0000000180000000     libvips-cpp:libvips-cpp.dll
 0000:fffb7000       .debug$S                   0000000180000000     libvips-cpp:libvips-cpp.dll
 0000:fffb7000       .debug$S                   0000000180000000     node:node.exe
 0000:fffb7000       .debug$S                   0000000180000000     libvips-cpp:libvips-cpp.dll
 0001:00000000       .text                      0000000180001000     libvips:dowls01213.o
 0001:00000008       .text                      0000000180001008     libvips:dowls01643.o
 0001:00000010       .text                      0000000180001010     libvips:dowls01158.o
 0001:00000018       .text                      0000000180001018     libvips:dowls01488.o
 0001:00000020       .text                      0000000180001020     libvips:dowls01212.o
 0001:00000028       .text                      0000000180001028     libvips:dowls00930.o
 0001:00000030       .text                      0000000180001030     libvips:dowls01169.o
 0001:00000038       .text                      0000000180001038     libvips:dowls01159.o
 0001:00000040       .text                      0000000180001040     libvips:dowls01862.o
 0001:00000048       .text                      0000000180001048     libvips:dowls01320.o
 0001:00000050       .text                      0000000180001050     libvips:dowls01447.o
 0001:00000058       .text                      0000000180001058     libvips:dowls00931.o
 0001:00000060       .text                      0000000180001060     libvips:dowls01505.o
 0001:00000068       .text                      0000000180001068     libvips:dowls00861.o
 0001:00000070       .text                      0000000180001070     libvips:dowls01468.o
 0001:00000078       .text                      0000000180001078     libvips:dowls00978.o
 0001:00000080       .text                      0000000180001080     libvips:dowls01931.o
 0001:00000088       .text                      0000000180001088     libvips:dowls00979.o
 0001:00000090       .text                      0000000180001090     libvips:dowls01925.o
 0001:00000098       .text                      0000000180001098     libvips:dowls00976.o
 0001:000000a0       .text                      00000001800010a0     libvips:dowls00987.o
 0001:000000a8       .text                      00000001800010a8     libvips:dowls00977.o
 0001:000000b0       .text                      00000001800010b0     libvips:dowls00989.o
 0001:000000b8       .text                      00000001800010b8     libvips:dowls01093.o
 0001:000000c0       .text                      00000001800010c0     libvips:dowls00988.o
 0001:000000c8       .text                      00000001800010c8     libvips:dowls01884.o
 0001:000000d0       .text                      00000001800010d0     libvips:dowls01094.o
 0001:000000d8       .text                      00000001800010d8     libvips:dowls01921.o
 0001:000000e0       .text                      00000001800010e0     libvips:dowls01880.o
 0001:000000e8       .text                      00000001800010e8     libvips:dowls01879.o
 0001:000000f0       .text                      00000001800010f0     libvips:dowls01878.o
 0001:00000100       .text                      0000000180001100     libglib-2.0:dhtls00380.o
 0001:00000108       .text                      0000000180001108     libglib-2.0:dhtls01081.o
 0001:00000110       .text                      0000000180001110     libglib-2.0:dhtls00077.o
 0001:00000118       .text                      0000000180001118     libglib-2.0:dhtls00074.o
 0001:00000120       .text                      0000000180001120     libglib-2.0:dhtls00673.o
 0001:00000128       .text                      0000000180001128     libglib-2.0:dhtls01122.o
 0001:00002108       $LN152                     0000000180003108     common.obj
 0001:00003af4       $LN46                      0000000180004af4     common.obj
 0001:0000dfd4       $LN69                      000000018000efd4     pipeline.obj
 0001:000128b0       ?FunctionCallbackWrapper@imp@Nan@@YAXAEBV?$FunctionCallbackInfo@VValue@v8@@@v8@@@Z 00000001800138b0 f   sharp.obj
 0001:00013230       _register_sharp            0000000180014230 f   sharp.obj
 0001:00015930       ?load_exe_hook@@YAP6A_JXZIPEAUDelayLoadInfo@@@Z 0000000180016930 f   win_delay_load_hook.obj
 0001:00015fb0       $$000000                   0000000180016fb0     LIBCMT:_amdsecgs_.obj
 0001:0001605c       ?dllmain_crt_dispatch@@YAHQEAUHINSTANCE__@@KQEAX@Z 000000018001705c f   LIBCMT:dll_dllmain.obj
 0001:000160ac       ?dllmain_crt_process_attach@@YAHQEAUHINSTANCE__@@QEAX@Z 00000001800170ac f   LIBCMT:dll_dllmain.obj
 0001:000161c8       ?dllmain_crt_process_detach@@YAH_N@Z 00000001800171c8 f   LIBCMT:dll_dllmain.obj
 0001:00016258       ?dllmain_dispatch@@YAHQEAUHINSTANCE__@@KQEAX@Z 0000000180017258 f   LIBCMT:dll_dllmain.obj
 0001:00016584       capture_current_context    0000000180017584 f   LIBCMT:gs_report.obj
 0001:000165f4       capture_previous_context   00000001800175f4 f   LIBCMT:gs_report.obj
 0001:00017ae0       $$000000                   0000000180018ae0     libvcruntime:memset.obj
 0001:00017bdc       MsetTab                    0000000180018bdc     libvcruntime:memset.obj
 0001:00017f7c       ??$BuildCatchObjectHelperInternal@$$CBU_s_HandlerType@@@@YAHPEAUEHExceptionRecord@@PEAXPEBU_s_HandlerType@@PEBU_s_CatchableType@@@Z 0000000180018f7c f   libvcruntime:frame.obj
 0001:0001817c       ??$BuildCatchObjectInternal@$$CBU_s_HandlerType@@@@YAXPEAUEHExceptionRecord@@PEAXPEBU_s_HandlerType@@PEBU_s_CatchableType@@@Z 000000018001917c f   libvcruntime:frame.obj
 0001:0001823c       ??$CatchIt@V__FrameHandler3@@@@YAXPEAUEHExceptionRecord@@PEA_KPEAU_CONTEXT@@PEAU_xDISPATCHER_CONTEXT@@PEBU_s_FuncInfo@@PEBU_s_HandlerType@@PEBU_s_CatchableType@@PEBU_s_TryBlockMapEntry@@H1EE@Z 000000018001923c f   libvcruntime:frame.obj
 0001:0001830c       ??$FindHandler@V__FrameHandler3@@@@YAXPEAUEHExceptionRecord@@PEA_KPEAU_CONTEXT@@PEAU_xDISPATCHER_CONTEXT@@PEBU_s_FuncInfo@@EH1@Z 000000018001930c f   libvcruntime:frame.obj
 0001:00018770       ??$FindHandlerForForeignException@V__FrameHandler3@@@@YAXPEAUEHExceptionRecord@@PEA_KPEAU_CONTEXT@@PEAU_xDISPATCHER_CONTEXT@@PEBU_s_FuncInfo@@HH1@Z 0000000180019770 f   libvcruntime:frame.obj
 0001:00018f78       ?ExFilterRethrow@@YAHPEAU_EXCEPTION_POINTERS@@PEAUEHExceptionRecord@@PEAH@Z 0000000180019f78 f   libvcruntime:frame.obj
 0001:0001922c       ?IsInExceptionSpec@@YAEPEAUEHExceptionRecord@@PEBU_s_ESTypeList@@@Z 000000018001a22c f   libvcruntime:frame.obj
 0001:00019304       ?Is_bad_exception_allowed@@YAEPEBU_s_ESTypeList@@@Z 000000018001a304 f   libvcruntime:frame.obj
 0001:000193d0       $$000000                   000000018001a3d0     libvcruntime:_notify_.obj
 0001:000194cc       ?try_get_function@@YAPEAXW4function_id@?A0xcc2f1bd3@@QEBDQEBW4module_id@2@2@Z 000000018001a4cc f   libvcruntime:winapi_downlevel.obj
 0001:000198b0       $$000000                   000000018001a8b0     libvcruntime:handlers.obj
 0001:00019960       $$000000                   000000018001a960     libvcruntime:memcpy.obj
 0001:00019a17       MoveSmall                  000000018001aa17     libvcruntime:memcpy.obj
 0001:0001a910       ??$common_assert_to_message_box@_W@@YAXQEB_W0IQEAX@Z 000000018001b910 f   libucrt:assert.obj
 0001:0001a9d4       ??$common_assert_to_message_box_build_string@_W@@YAXQEA_W_KQEB_W2IQEAX@Z 000000018001b9d4 f   libucrt:assert.obj
 0001:0001b198       ??$common_assert_to_stderr@_W@@YAXQEB_W0I@Z 000000018001c198 f   libucrt:assert.obj
 0001:0001b308       ?get_assert_format@@YAPEB_W_W@Z 000000018001c308 f   libucrt:assert.obj
 0001:0001bab8       ??$?RV<lambda_d80eeec6fff315bfe5c115232f3240e3>@@AEAV<lambda_6e4b09c48022b2350581041d5f6b0c4c>@@V<lambda_2358e3775559c9db80273638284d5e45>@@@?$__crt_seh_guarded_call@X@@QEAAX$$QEAV<lambda_d80eeec6fff315bfe5c115232f3240e3>@@AEAV<lambda_6e4b09c48022b2350581041d5f6b0c4c>@@$$QEAV<lambda_2358e3775559c9db80273638284d5e45>@@@Z 000000018001cab8 f   libucrt:exit.obj
 0001:0001baf0       ??R<lambda_6e4b09c48022b2350581041d5f6b0c4c>@@QEBA@XZ 000000018001caf0 f   libucrt:exit.obj
 0001:0001bbc8       ?atexit_exception_filter@@YAHK@Z 000000018001cbc8 f   libucrt:exit.obj
 0001:0001bbd4       ?common_exit@@YAXHW4_crt_exit_cleanup_mode@@W4_crt_exit_return_mode@@@Z 000000018001cbd4 f   libucrt:exit.obj
 0001:0001bc90       ?exit_or_terminate_process@@YAXI@Z 000000018001cc90 f   libucrt:exit.obj
 0001:0001bcdc       ?try_cor_exit_process@@YAXI@Z 000000018001ccdc f   libucrt:exit.obj
 0001:0001bd64       ??$parse_command_line@D@@YAXPEADPEAPEAD0PEA_K2@Z 000000018001cd64 f   libucrt:argv_parsing.obj
 0001:0001c110       ??$common_initialize_environment_nolock@D@@YAHXZ 000000018001d110 f   libucrt:environment_initialization.obj
 0001:0001c17c       ??$create_environment@D@@YAQEAPEADQEAD@Z 000000018001d17c f   libucrt:environment_initialization.obj
 0001:0001c284       ??$free_environment@_W@@YAXQEAPEA_W@Z 000000018001d284 f   libucrt:environment_initialization.obj
 0001:0001c284       ??$free_environment@D@@YAXQEAPEAD@Z 000000018001d284 f   libucrt:environment_initialization.obj
 0001:0001c2c8       ??$uninitialize_environment_internal@D@@YAXAEAPEAPEAD@Z 000000018001d2c8 f   libucrt:environment_initialization.obj
 0001:0001c2e4       ??$uninitialize_environment_internal@_W@@YAXAEAPEAPEA_W@Z 000000018001d2e4 f   libucrt:environment_initialization.obj
 0001:0001c340       ??$?RV<lambda_7777bce6b2f8c936911f934f8298dc43>@@AEAV<lambda_f03950bc5685219e0bcd2087efbe011e>@@V<lambda_3883c3dff614d5e0c5f61bb1ac94921c>@@@?$__crt_seh_guarded_call@H@@QEAAH$$QEAV<lambda_7777bce6b2f8c936911f934f8298dc43>@@AEAV<lambda_f03950bc5685219e0bcd2087efbe011e>@@$$QEAV<lambda_3883c3dff614d5e0c5f61bb1ac94921c>@@@Z 000000018001d340 f   libucrt:onexit.obj
 0001:0001c37c       ??R<lambda_f03950bc5685219e0bcd2087efbe011e>@@QEBAHXZ 000000018001d37c f   libucrt:onexit.obj
 0001:0001c544       initialize_global_variables 000000018001d544 f   libucrt:initialization.obj
 0001:0001c558       initialize_c               000000018001d558 f   libucrt:initialization.obj
 0001:0001c57c       uninitialize_c             000000018001d57c f   libucrt:initialization.obj
 0001:0001c57c       initialize_environment     000000018001d57c f   libucrt:initialization.obj
 0001:0001c57c       report_memory_leaks        000000018001d57c f   libucrt:initialization.obj
 0001:0001c57c       uninitialize_global_state_isolation 000000018001d57c f   libucrt:initialization.obj
 0001:0001c57c       initialize_global_state_isolation 000000018001d57c f   libucrt:initialization.obj
 0001:0001c580       uninitialize_environment   000000018001d580 f   libucrt:initialization.obj
 0001:0001c590       initialize_pointers        000000018001d590 f   libucrt:initialization.obj
 0001:0001c5e4       uninitialize_vcruntime     000000018001d5e4 f   libucrt:initialization.obj
 0001:0001c5ec       uninitialize_allocated_memory 000000018001d5ec f   libucrt:initialization.obj
 0001:0001c62c       uninitialize_allocated_io_buffers 000000018001d62c f   libucrt:initialization.obj
 0001:0001c7f8       ??$?RV<lambda_0d412022a4b28cc8a401ea49574e8ae6>@@AEAV<lambda_a775ed57af18ba8e4d5dc780aa9068fe>@@V<lambda_975a71a6baa488a08f4e15f6b0339b9e>@@@?$__crt_seh_guarded_call@H@@QEAAH$$QEAV<lambda_0d412022a4b28cc8a401ea49574e8ae6>@@AEAV<lambda_a775ed57af18ba8e4d5dc780aa9068fe>@@$$QEAV<lambda_975a71a6baa488a08f4e15f6b0339b9e>@@@Z 000000018001d7f8 f   libucrt:output.obj
 0001:0001c838       ??$common_vsprintf@Vstandard_base@__crt_stdio_output@@_W@@YAH_KQEA_W0QEB_WQEAU__crt_locale_pointers@@QEAD@Z 000000018001d838 f   libucrt:output.obj
 0001:0001cdf4       ??R<lambda_a775ed57af18ba8e4d5dc780aa9068fe>@@QEBAHXZ 000000018001ddf4 f   libucrt:output.obj
 0001:0001e8f0       $$000000                   000000018001f8f0     libucrt:strncmp.obj
 0001:0001ec78       ??$?RV<lambda_0ae27a3a962d80f24befdcbee591983d>@@AEAV<lambda_8d0ee55de4b1038c4002e0adecdf1839>@@V<lambda_dc504788e8f1664fe9b84e20bfb512f2>@@@?$__crt_seh_guarded_call@X@@QEAAX$$QEAV<lambda_0ae27a3a962d80f24befdcbee591983d>@@AEAV<lambda_8d0ee55de4b1038c4002e0adecdf1839>@@$$QEAV<lambda_dc504788e8f1664fe9b84e20bfb512f2>@@@Z 000000018001fc78 f   libucrt:per_thread_data.obj
 0001:0001ecb8       ??$?RV<lambda_2d41944a1d46af3157314b8a01080d33>@@AEAV<lambda_8f455de75cd7d7f24b4096f044d8b9e6>@@V<lambda_aa500f224e6afead328df44964fe2772>@@@?$__crt_seh_guarded_call@X@@QEAAX$$QEAV<lambda_2d41944a1d46af3157314b8a01080d33>@@AEAV<lambda_8f455de75cd7d7f24b4096f044d8b9e6>@@$$QEAV<lambda_aa500f224e6afead328df44964fe2772>@@@Z 000000018001fcb8 f   libucrt:per_thread_data.obj
 0001:0001ecf8       ??$?RV<lambda_aa87e3671a710a21b5dc78c0bdf72e11>@@AEAV<lambda_92619d2358a28f41a33ba319515a20b9>@@V<lambda_6992ecaafeb10aed2b74cb1fae11a551>@@@?$__crt_seh_guarded_call@X@@QEAAX$$QEAV<lambda_aa87e3671a710a21b5dc78c0bdf72e11>@@AEAV<lambda_92619d2358a28f41a33ba319515a20b9>@@$$QEAV<lambda_6992ecaafeb10aed2b74cb1fae11a551>@@@Z 000000018001fcf8 f   libucrt:per_thread_data.obj
 0001:0001ed40       ??$?RV<lambda_f2e299630e499de9f9a165e60fcd3db5>@@AEAV<lambda_2ae9d31cdba2644fcbeaf08da7c24588>@@V<lambda_40d01ff24d0e7b3814fdbdcee8eab3c7>@@@?$__crt_seh_guarded_call@X@@QEAAX$$QEAV<lambda_f2e299630e499de9f9a165e60fcd3db5>@@AEAV<lambda_2ae9d31cdba2644fcbeaf08da7c24588>@@$$QEAV<lambda_40d01ff24d0e7b3814fdbdcee8eab3c7>@@@Z 000000018001fd40 f   libucrt:per_thread_data.obj
 0001:0001eda0       ?construct_ptd_array@@YAXQEAU__acrt_ptd@@@Z 000000018001fda0 f   libucrt:per_thread_data.obj
 0001:0001ee70       ?destroy_fls@@YAXPEAX@Z    000000018001fe70 f   libucrt:per_thread_data.obj
 0001:0001ee90       ?destroy_ptd_array@@YAXQEAU__acrt_ptd@@@Z 000000018001fe90 f   libucrt:per_thread_data.obj
 0001:0001ef88       ?replace_current_thread_locale_nolock@@YAXQEAU__acrt_ptd@@QEAU__crt_locale_data@@@Z 000000018001ff88 f   libucrt:per_thread_data.obj
 0001:0001f320       ??$?RV<lambda_410d79af7f07d98d83a3f525b3859a53>@@AEAV<lambda_3e16ef9562a7dcce91392c22ab16ea36>@@V<lambda_38119f0e861e05405d8a144b9b982f0a>@@@?$__crt_seh_guarded_call@X@@QEAAX$$QEAV<lambda_410d79af7f07d98d83a3f525b3859a53>@@AEAV<lambda_3e16ef9562a7dcce91392c22ab16ea36>@@$$QEAV<lambda_38119f0e861e05405d8a144b9b982f0a>@@@Z 0000000180020320 f   libucrt:wsetlocale.obj
 0001:0001f4ec       ??$common_xtox@K_W@@YAHKQEA_W_KI_N@Z 00000001800204ec f   libucrt:xtoa.obj
 0001:0001f5b0       ??$common_xtox_s@K_W@@YAHKQEA_W_KI_N@Z 00000001800205b0 f   libucrt:xtoa.obj
 0001:0001fb5c       ??$?RV<lambda_842d9ff0dc9ef11c61343bbaebe7f885>@@AEAV<lambda_c5860995281e5c4ce005b3de8f5874ee>@@V<lambda_d90129c13df834fdcbf8d2b88dafcf2d>@@@?$__crt_seh_guarded_call@X@@QEAAX$$QEAV<lambda_842d9ff0dc9ef11c61343bbaebe7f885>@@AEAV<lambda_c5860995281e5c4ce005b3de8f5874ee>@@$$QEAV<lambda_d90129c13df834fdcbf8d2b88dafcf2d>@@@Z 0000000180020b5c f   libucrt:fflush.obj
 0001:0001fbf8       ??$?RV<lambda_886d6c58226a84441f68b9f2b8217b83>@@AEAV<lambda_ab61a845afdef5b7c387490eaf3616ee>@@V<lambda_f7f22ab5edc0698d5f6905b0d3f44752>@@@?$__crt_seh_guarded_call@X@@QEAAX$$QEAV<lambda_886d6c58226a84441f68b9f2b8217b83>@@AEAV<lambda_ab61a845afdef5b7c387490eaf3616ee>@@$$QEAV<lambda_f7f22ab5edc0698d5f6905b0d3f44752>@@@Z 0000000180020bf8 f   libucrt:fflush.obj
 0001:0001fcd8       ??$?RV<lambda_c376a267cfb53b6959b3b692ec76b120>@@AEAV<lambda_9a32fed5bf61b6b509b2d3f6003082a1>@@V<lambda_572fbb9fa0ab338edf41edfd4b5fcc8d>@@@?$__crt_seh_guarded_call@H@@QEAAH$$QEAV<lambda_c376a267cfb53b6959b3b692ec76b120>@@AEAV<lambda_9a32fed5bf61b6b509b2d3f6003082a1>@@$$QEAV<lambda_572fbb9fa0ab338edf41edfd4b5fcc8d>@@@Z 0000000180020cd8 f   libucrt:fflush.obj
 0001:0001fd18       ?common_flush_all@@YAH_N@Z 0000000180020d18 f   libucrt:fflush.obj
 0001:0001feb0       ??$?RV<lambda_84ec643ea9557e2f7dc01bb0e9624395>@@AEAV<lambda_ca71763b3c0644891230e4f79ea54fa6>@@V<lambda_439a761618c59b0600e24586724d733b>@@@?$__crt_seh_guarded_call@H@@QEAAH$$QEAV<lambda_84ec643ea9557e2f7dc01bb0e9624395>@@AEAV<lambda_ca71763b3c0644891230e4f79ea54fa6>@@$$QEAV<lambda_439a761618c59b0600e24586724d733b>@@@Z 0000000180020eb0 f   libucrt:setvbuf.obj
 0001:0001fef0       ??R<lambda_ca71763b3c0644891230e4f79ea54fa6>@@QEBAHXZ 0000000180020ef0 f   libucrt:setvbuf.obj
 0001:0002007c       ??$?RV<lambda_450d765d439847d4c735a33c368b5fc0>@@AEAV<lambda_44731a7d0e6d81c3e6aa82d741081786>@@V<lambda_601a2a7da3b7a96e9554ac7215c4b07c>@@@?$__crt_seh_guarded_call@P6AXH@Z@@QEAAP6AXH@Z$$QEAV<lambda_450d765d439847d4c735a33c368b5fc0>@@AEAV<lambda_44731a7d0e6d81c3e6aa82d741081786>@@$$QEAV<lambda_601a2a7da3b7a96e9554ac7215c4b07c>@@@Z 000000018002107c f   libucrt:signal.obj
 0001:000203f4       ?internal_isupper_l@@YA_NHQEAU__crt_locale_pointers@@@Z 00000001800213f4 f   libucrt:tolower_toupper.obj
 0001:000207dc       ?<lambda_invoker_cdecl>@<lambda_c2303d2482d7c3675ea2e24c4cfb6115>@@CAHPEBX0@Z 00000001800217dc f   libucrt:argv_wildcards.obj
 0001:000207f0       ??$common_expand_argv_wildcards@D@@YAHQEAPEADQEAPEAPEAD@Z 00000001800217f0 f   libucrt:argv_wildcards.obj
 0001:000209fc       ??$copy_and_add_argument_to_buffer@D@@YAHQEBD0_KAEAV?$argument_list@D@?A0x5f5c8891@@@Z 00000001800219fc f   libucrt:argv_wildcards.obj
 0001:00020b98       ??$expand_argument_wildcards@D@@YAHQEAD0AEAV?$argument_list@D@?A0x5f5c8891@@@Z 0000000180021b98 f   libucrt:argv_wildcards.obj
 0001:00020d4c       ??$?RV<lambda_efdfa57d1f175319df784efa44bb7b81>@@AEAV<lambda_5f0a4c1567f8adc6734073e5d1e1b35c>@@V<lambda_2e8a7d3640ea6ccb4c2413664c2db6fd>@@@?$__crt_seh_guarded_call@X@@QEAAX$$QEAV<lambda_efdfa57d1f175319df784efa44bb7b81>@@AEAV<lambda_5f0a4c1567f8adc6734073e5d1e1b35c>@@$$QEAV<lambda_2e8a7d3640ea6ccb4c2413664c2db6fd>@@@Z 0000000180021d4c f   libucrt:mbctype.obj
 0001:00020f08       ?getSystemCP@@YAHH@Z       0000000180021f08 f   libucrt:mbctype.obj
 0001:00020f88       ?setSBCS@@YAXPEAU__crt_multibyte_data@@@Z 0000000180021f88 f   libucrt:mbctype.obj
 0001:00021018       ?setSBUpLow@@YAXPEAU__crt_multibyte_data@@@Z 0000000180022018 f   libucrt:mbctype.obj
 0001:000211fc       ?setmbcp_internal@@YAHH_NQEAU__acrt_ptd@@QEAPEAU__crt_multibyte_data@@@Z 00000001800221fc f   libucrt:mbctype.obj
 0001:000213c0       ?update_thread_multibyte_data_internal@@YAPEAU__crt_multibyte_data@@QEAU__acrt_ptd@@QEAPEAU1@@Z 00000001800223c0 f   libucrt:mbctype.obj
 0001:000217ac       ?x_ismbbtype_l@@YAHPEAU__crt_locale_pointers@@IHH@Z 00000001800227ac f   libucrt:ismbbyte.obj
 0001:00021af8       ?try_get_function@@YAPEAXW4function_id@?A0x391cf84c@@QEBDQEBW4module_id@2@2@Z 0000000180022af8 f   libucrt:winapi_thunks.obj
 0001:00022358       ?initialize_inherited_file_handles_nolock@@YAXXZ 0000000180023358 f   libucrt:ioinit.obj
 0001:00022444       ?initialize_stdio_handles_nolock@@YAXXZ 0000000180023444 f   libucrt:ioinit.obj
 0001:00022d74       ?fp_format_a@@YAHQEBNPEAD_KQEAD2H_NIQEAU__crt_locale_pointers@@@Z 0000000180023d74 f   libucrt:cvt.obj
 0001:000230dc       ?fp_format_e@@YAHQEBNQEAD_K12H_NIQEAU__crt_locale_pointers@@@Z 00000001800240dc f   libucrt:cvt.obj
 0001:000231b8       ?fp_format_e_internal@@YAHQEAD_KH_NIQEAU_strflt@@2QEAU__crt_locale_pointers@@@Z 00000001800241b8 f   libucrt:cvt.obj
 0001:0002338c       ?fp_format_f_internal@@YAHQEAD_KHQEAU_strflt@@_NQEAU__crt_locale_pointers@@@Z 000000018002438c f   libucrt:cvt.obj
 0001:000234d0       ?fp_format_g@@YAHQEBNQEAD_K12H_NIQEAU__crt_locale_pointers@@@Z 00000001800244d0 f   libucrt:cvt.obj
 0001:00023604       ?fp_format_nan_or_infinity@@YAHW4__acrt_fp_class@@_NPEAD_K1@Z 0000000180024604 f   libucrt:cvt.obj
 0001:000242f8       ?free_crt_array_internal@@YAXQEAPEBX_K@Z 00000001800252f8 f   libucrt:inittime.obj
 0001:00024778       ?_mbstowcs_l_helper@@YA_KPEA_WPEBD_KPEAU__crt_locale_pointers@@@Z 0000000180025778 f   libucrt:mbstowcs.obj
 0001:00024a94       ??$?RV<lambda_a37b2b86f63e897a80ea819b0eb08c01>@@AEAV<lambda_38ce7e780aa69e748d6df282ebc68efe>@@V<lambda_99fb1378e971ab6e7edea83e3a7a83a2>@@@?$__crt_seh_guarded_call@H@@QEAAH$$QEAV<lambda_a37b2b86f63e897a80ea819b0eb08c01>@@AEAV<lambda_38ce7e780aa69e748d6df282ebc68efe>@@$$QEAV<lambda_99fb1378e971ab6e7edea83e3a7a83a2>@@@Z 0000000180025a94 f   libucrt:commit.obj
 0001:00024bb4       ?write_double_translated_ansi_nolock@@YA?AUwrite_result@?A0x17268360@@HQEBDI@Z 0000000180025bb4 f   libucrt:write.obj
 0001:00024dcc       ?write_text_ansi_nolock@@YA?AUwrite_result@?A0x17268360@@HQEBDI@Z 0000000180025dcc f   libucrt:write.obj
 0001:00024ed0       ?write_text_utf16le_nolock@@YA?AUwrite_result@?A0x17268360@@HQEBDI@Z 0000000180025ed0 f   libucrt:write.obj
 0001:00024fec       ?write_text_utf8_nolock@@YA?AUwrite_result@?A0x17268360@@HQEBDI@Z 0000000180025fec f   libucrt:write.obj
 0001:00025530       ?__acrt_LCMapStringA_stat@@YAHPEAU__crt_locale_pointers@@PEB_WKPEBDHPEADHHH@Z 0000000180026530 f   libucrt:lcmapstringa.obj
 0001:00025d78       fallbackMethod             0000000180026d78 f   libucrt:strpbrk.obj
 0001:00026144       $LN78                      0000000180027144     libucrt:strpbrk.obj
 0001:00026180       $LN77                      0000000180027180     libucrt:strpbrk.obj
 0001:000261c0       $LN76                      00000001800271c0     libucrt:strpbrk.obj
 0001:00026648       ?initialize_multibyte@@YAHXZ 0000000180027648 f   libucrt:multibyte_initializer.obj
 0001:00026720       ?GetTableIndexFromLocaleName@@YAHPEB_W@Z 0000000180027720 f   libucrt:lcidtoname_downlevel.obj
 0001:000285a8       memcpy_s                   00000001800295a8 f   libucrt:cfout.obj
 0001:00028630       ??$write_buffer_nolock@D@@YA_NDV__crt_stdio_stream@@@Z 0000000180029630 f   libucrt:_flsbuf.obj
 0001:00028710       ??$write_buffer_nolock@_W@@YA_N_WV__crt_stdio_stream@@@Z 0000000180029710 f   libucrt:_flsbuf.obj
 0001:00028ab0       ??$common_lseek@_J@@YA_JH_JH@Z 0000000180029ab0 f   libucrt:lseek.obj
 0001:00028ba0       ??$common_lseek_nolock@_J@@YA_JH_JH@Z 0000000180029ba0 f   libucrt:lseek.obj
 0001:00028ca0       ?_wcstombs_l_helper@@YA_KPEADPEB_W_KPEAU__crt_locale_pointers@@@Z 0000000180029ca0 f   libucrt:wcstombs.obj
 0001:00029370       $$000000                   000000018002a370     libucrt:log10.obj
 0001:00029984       ??$?RV<lambda_751a882b2c74d4b022dec766aa51a29a>@@AEAV<lambda_628dfdc04ba53c8bfc02c9951375f3f5>@@V<lambda_f6c7be5f7998530c34de24c7437d6b54>@@@?$__crt_seh_guarded_call@H@@QEAAH$$QEAV<lambda_751a882b2c74d4b022dec766aa51a29a>@@AEAV<lambda_628dfdc04ba53c8bfc02c9951375f3f5>@@$$QEAV<lambda_f6c7be5f7998530c34de24c7437d6b54>@@@Z 000000018002a984 f   libucrt:close.obj
 0001:00029e30       _call_matherr              000000018002ae30 f   libucrt:libm_error.obj
 0001:00029e98       _exception_enabled         000000018002ae98 f   libucrt:libm_error.obj
 0001:0002a130       _log_special_common        000000018002b130 f   libucrt:log_special.obj
 0001:0002a270       $$000000                   000000018002b270     libucrt:fpsr.obj
 0001:0002af80       $$000000                   000000018002bf80     LIBCMT:_chkstk_.obj
 0001:0002b070       $$000000                   000000018002c070     libvcruntime:memcmp.obj
 0001:0002b350       $$000000                   000000018002c350     LIBCMT:_guard_dispatch_.obj
 0001:0002b370       ?dtor$0@?0???0Utf8String@Nan@@QEAA@V?$Local@VValue@v8@@@v8@@@Z@4HA 000000018002c370 f   common.obj
 0001:0002b370       ?dtor$0@?0??ThrowError@Nan@@YAXPEBD@Z@4HA 000000018002c370 f   utilities.obj
 0001:0002b380       ?dtor$0@?0??HasAttr@sharp@@YA_NV?$Local@VObject@v8@@@v8@@V?$basic_string@DU?$char_traits@D@std@@V?$allocator@D@2@@std@@@Z@4HA 000000018002c380 f   common.obj
 0001:0002b38c       ?dtor$2@?0??HasAttr@sharp@@YA_NV?$Local@VObject@v8@@@v8@@V?$basic_string@DU?$char_traits@D@std@@V?$allocator@D@2@@std@@@Z@4HA 000000018002c38c f   common.obj
 0001:0002b3a0       ?dtor$0@?0??AttrAsStr@sharp@@YA?AV?$basic_string@DU?$char_traits@D@std@@V?$allocator@D@2@@std@@V?$Local@VObject@v8@@@v8@@V23@@Z@4HA 000000018002c3a0 f   common.obj
 0001:0002b3ac       ?dtor$4@?0??AttrAsStr@sharp@@YA?AV?$basic_string@DU?$char_traits@D@std@@V?$allocator@D@2@@std@@V?$Local@VObject@v8@@@v8@@V23@@Z@4HA 000000018002c3ac f   common.obj
 0001:0002b3ba       ?dtor$1@?0??AttrAsStr@sharp@@YA?AV?$basic_string@DU?$char_traits@D@std@@V?$allocator@D@2@@std@@V?$Local@VObject@v8@@@v8@@V23@@Z@4HA 000000018002c3ba f   common.obj
 0001:0002b3d0       ?dtor$0@?0??CreateInputDescriptor@sharp@@YAPEAUInputDescriptor@1@V?$Local@VObject@v8@@@v8@@V?$vector@V?$Local@VObject@v8@@@v8@@V?$allocator@V?$Local@VObject@v8@@@v8@@@std@@@std@@@Z@4HA 000000018002c3d0 f   common.obj
 0001:0002b3e0       ?dtor$0@?0??IsDzZip@sharp@@YA_NAEBV?$basic_string@DU?$char_traits@D@std@@V?$allocator@D@2@@std@@@Z@4HA 000000018002c3e0 f   common.obj
 0001:0002b3e0       ?dtor$0@?0??IsTiff@sharp@@YA_NAEBV?$basic_string@DU?$char_traits@D@std@@V?$allocator@D@2@@std@@@Z@4HA 000000018002c3e0 f   common.obj
 0001:0002b3e0       ?dtor$0@?0??IsJpeg@sharp@@YA_NAEBV?$basic_string@DU?$char_traits@D@std@@V?$allocator@D@2@@std@@@Z@4HA 000000018002c3e0 f   common.obj
 0001:0002b3e0       ?dtor$0@?0??IsV@sharp@@YA_NAEBV?$basic_string@DU?$char_traits@D@std@@V?$allocator@D@2@@std@@@Z@4HA 000000018002c3e0 f   common.obj
 0001:0002b409       ?dtor$1@?0??IsDzZip@sharp@@YA_NAEBV?$basic_string@DU?$char_traits@D@std@@V?$allocator@D@2@@std@@@Z@4HA 000000018002c409 f   common.obj
 0001:0002b409       ?dtor$1@?0??IsTiff@sharp@@YA_NAEBV?$basic_string@DU?$char_traits@D@std@@V?$allocator@D@2@@std@@@Z@4HA 000000018002c409 f   common.obj
 0001:0002b409       ?dtor$1@?0??IsV@sharp@@YA_NAEBV?$basic_string@DU?$char_traits@D@std@@V?$allocator@D@2@@std@@@Z@4HA 000000018002c409 f   common.obj
 0001:0002b409       ?dtor$1@?0??IsJpeg@sharp@@YA_NAEBV?$basic_string@DU?$char_traits@D@std@@V?$allocator@D@2@@std@@@Z@4HA 000000018002c409 f   common.obj
 0001:0002b42f       ?dtor$2@?0??IsTiff@sharp@@YA_NAEBV?$basic_string@DU?$char_traits@D@std@@V?$allocator@D@2@@std@@@Z@4HA 000000018002c42f f   common.obj
 0001:0002b42f       ?dtor$2@?0??IsV@sharp@@YA_NAEBV?$basic_string@DU?$char_traits@D@std@@V?$allocator@D@2@@std@@@Z@4HA 000000018002c42f f   common.obj
 0001:0002b42f       ?dtor$2@?0??IsJpeg@sharp@@YA_NAEBV?$basic_string@DU?$char_traits@D@std@@V?$allocator@D@2@@std@@@Z@4HA 000000018002c42f f   common.obj
 0001:0002b42f       ?dtor$2@?0??IsDzZip@sharp@@YA_NAEBV?$basic_string@DU?$char_traits@D@std@@V?$allocator@D@2@@std@@@Z@4HA 000000018002c42f f   common.obj
 0001:0002b455       ?dtor$3@?0??IsV@sharp@@YA_NAEBV?$basic_string@DU?$char_traits@D@std@@V?$allocator@D@2@@std@@@Z@4HA 000000018002c455 f   common.obj
 0001:0002b455       ?dtor$3@?0??IsDzZip@sharp@@YA_NAEBV?$basic_string@DU?$char_traits@D@std@@V?$allocator@D@2@@std@@@Z@4HA 000000018002c455 f   common.obj
 0001:0002b455       ?dtor$3@?0??IsJpeg@sharp@@YA_NAEBV?$basic_string@DU?$char_traits@D@std@@V?$allocator@D@2@@std@@@Z@4HA 000000018002c455 f   common.obj
 0001:0002b455       ?dtor$3@?0??IsTiff@sharp@@YA_NAEBV?$basic_string@DU?$char_traits@D@std@@V?$allocator@D@2@@std@@@Z@4HA 000000018002c455 f   common.obj
 0001:0002b480       ?dtor$0@?0??IsDz@sharp@@YA_NAEBV?$basic_string@DU?$char_traits@D@std@@V?$allocator@D@2@@std@@@Z@4HA 000000018002c480 f   common.obj
 0001:0002b480       ?dtor$0@?0??IsWebp@sharp@@YA_NAEBV?$basic_string@DU?$char_traits@D@std@@V?$allocator@D@2@@std@@@Z@4HA 000000018002c480 f   common.obj
 0001:0002b480       ?dtor$0@?0??IsPng@sharp@@YA_NAEBV?$basic_string@DU?$char_traits@D@std@@V?$allocator@D@2@@std@@@Z@4HA 000000018002c480 f   common.obj
 0001:0002b4a6       ?dtor$1@?0??IsPng@sharp@@YA_NAEBV?$basic_string@DU?$char_traits@D@std@@V?$allocator@D@2@@std@@@Z@4HA 000000018002c4a6 f   common.obj
 0001:0002b4a6       ?dtor$1@?0??IsWebp@sharp@@YA_NAEBV?$basic_string@DU?$char_traits@D@std@@V?$allocator@D@2@@std@@@Z@4HA 000000018002c4a6 f   common.obj
 0001:0002b4a6       ?dtor$1@?0??IsDz@sharp@@YA_NAEBV?$basic_string@DU?$char_traits@D@std@@V?$allocator@D@2@@std@@@Z@4HA 000000018002c4a6 f   common.obj
 0001:0002b4d0       ?dtor$0@?0??ImageTypeId@sharp@@YA?AV?$basic_string@DU?$char_traits@D@std@@V?$allocator@D@2@@std@@W4ImageType@1@@Z@4HA 000000018002c4d0 f   common.obj
 0001:0002b4d0       ?dtor$0@?0???$?HDU?$char_traits@D@std@@V?$allocator@D@1@@std@@YA?AV?$basic_string@DU?$char_traits@D@std@@V?$allocator@D@2@@0@QEBDAEBV10@@Z@4HA 000000018002c4d0 f   pipeline.obj
 0001:0002b500       ?dtor$0@?0??DetermineImageType@sharp@@YA?AW4ImageType@1@PEAX_K@Z@4HA 000000018002c500 f   common.obj
 0001:0002b50c       ?dtor$1@?0??DetermineImageType@sharp@@YA?AW4ImageType@1@PEAX_K@Z@4HA 000000018002c50c f   common.obj
 0001:0002b518       ?dtor$2@?0??DetermineImageType@sharp@@YA?AW4ImageType@1@PEAX_K@Z@4HA 000000018002c518 f   common.obj
 0001:0002b524       ?dtor$3@?0??DetermineImageType@sharp@@YA?AW4ImageType@1@PEAX_K@Z@4HA 000000018002c524 f   common.obj
 0001:0002b530       ?dtor$4@?0??DetermineImageType@sharp@@YA?AW4ImageType@1@PEAX_K@Z@4HA 000000018002c530 f   common.obj
 0001:0002b53c       ?dtor$5@?0??DetermineImageType@sharp@@YA?AW4ImageType@1@PEAX_K@Z@4HA 000000018002c53c f   common.obj
 0001:0002b548       ?dtor$6@?0??DetermineImageType@sharp@@YA?AW4ImageType@1@PEAX_K@Z@4HA 000000018002c548 f   common.obj
 0001:0002b554       ?dtor$7@?0??DetermineImageType@sharp@@YA?AW4ImageType@1@PEAX_K@Z@4HA 000000018002c554 f   common.obj
 0001:0002b560       ?dtor$8@?0??DetermineImageType@sharp@@YA?AW4ImageType@1@PEAX_K@Z@4HA 000000018002c560 f   common.obj
 0001:0002b570       ?dtor$0@?0??DetermineImageType@sharp@@YA?AW4ImageType@1@PEBD@Z@4HA 000000018002c570 f   common.obj
 0001:0002b57c       ?dtor$1@?0??DetermineImageType@sharp@@YA?AW4ImageType@1@PEBD@Z@4HA 000000018002c57c f   common.obj
 0001:0002b588       ?dtor$2@?0??DetermineImageType@sharp@@YA?AW4ImageType@1@PEBD@Z@4HA 000000018002c588 f   common.obj
 0001:0002b594       ?dtor$3@?0??DetermineImageType@sharp@@YA?AW4ImageType@1@PEBD@Z@4HA 000000018002c594 f   common.obj
 0001:0002b5a0       ?dtor$4@?0??DetermineImageType@sharp@@YA?AW4ImageType@1@PEBD@Z@4HA 000000018002c5a0 f   common.obj
 0001:0002b5ac       ?dtor$5@?0??DetermineImageType@sharp@@YA?AW4ImageType@1@PEBD@Z@4HA 000000018002c5ac f   common.obj
 0001:0002b5b8       ?dtor$6@?0??DetermineImageType@sharp@@YA?AW4ImageType@1@PEBD@Z@4HA 000000018002c5b8 f   common.obj
 0001:0002b5c4       ?dtor$7@?0??DetermineImageType@sharp@@YA?AW4ImageType@1@PEBD@Z@4HA 000000018002c5c4 f   common.obj
 0001:0002b5d0       ?dtor$8@?0??DetermineImageType@sharp@@YA?AW4ImageType@1@PEBD@Z@4HA 000000018002c5d0 f   common.obj
 0001:0002b5dc       ?dtor$9@?0??DetermineImageType@sharp@@YA?AW4ImageType@1@PEBD@Z@4HA 000000018002c5dc f   common.obj
 0001:0002b5e8       ?dtor$10@?0??DetermineImageType@sharp@@YA?AW4ImageType@1@PEBD@Z@4HA 000000018002c5e8 f   common.obj
 0001:0002b5f4       ?dtor$11@?0??DetermineImageType@sharp@@YA?AW4ImageType@1@PEBD@Z@4HA 000000018002c5f4 f   common.obj
 0001:0002b600       ?dtor$12@?0??DetermineImageType@sharp@@YA?AW4ImageType@1@PEBD@Z@4HA 000000018002c600 f   common.obj
 0001:0002b626       ?dtor$13@?0??DetermineImageType@sharp@@YA?AW4ImageType@1@PEBD@Z@4HA 000000018002c626 f   common.obj
 0001:0002b650       ?dtor$0@?0??OpenInput@sharp@@YA?AV?$tuple@VVImage@vips@@W4ImageType@sharp@@@std@@PEAUInputDescriptor@1@W4VipsAccess@@@Z@4HA 000000018002c650 f   common.obj
 0001:0002b65e       ?dtor$1@?0??OpenInput@sharp@@YA?AV?$tuple@VVImage@vips@@W4ImageType@sharp@@@std@@PEAUInputDescriptor@1@W4VipsAccess@@@Z@4HA 000000018002c65e f   common.obj
 0001:0002b66c       ?dtor$2@?0??OpenInput@sharp@@YA?AV?$tuple@VVImage@vips@@W4ImageType@sharp@@@std@@PEAUInputDescriptor@1@W4VipsAccess@@@Z@4HA 000000018002c66c f   common.obj
 0001:0002b678       ?dtor$3@?0??OpenInput@sharp@@YA?AV?$tuple@VVImage@vips@@W4ImageType@sharp@@@std@@PEAUInputDescriptor@1@W4VipsAccess@@@Z@4HA 000000018002c678 f   common.obj
 0001:0002b686       ?catch$24@?0??OpenInput@sharp@@YA?AV?$tuple@VVImage@vips@@W4ImageType@sharp@@@std@@PEAUInputDescriptor@1@W4VipsAccess@@@Z@4HA 000000018002c686 f   common.obj
 0001:0002b693       __catch$?OpenInput@sharp@@YA?AV?$tuple@VVImage@vips@@W4ImageType@sharp@@@std@@PEAUInputDescriptor@1@W4VipsAccess@@@Z$0 000000018002c693 f   common.obj
 0001:0002b6c1       ?dtor$7@?0??OpenInput@sharp@@YA?AV?$tuple@VVImage@vips@@W4ImageType@sharp@@@std@@PEAUInputDescriptor@1@W4VipsAccess@@@Z@4HA 000000018002c6c1 f   common.obj
 0001:0002b6cd       ?dtor$8@?0??OpenInput@sharp@@YA?AV?$tuple@VVImage@vips@@W4ImageType@sharp@@@std@@PEAUInputDescriptor@1@W4VipsAccess@@@Z@4HA 000000018002c6cd f   common.obj
 0001:0002b6db       ?catch$25@?0??OpenInput@sharp@@YA?AV?$tuple@VVImage@vips@@W4ImageType@sharp@@@std@@PEAUInputDescriptor@1@W4VipsAccess@@@Z@4HA 000000018002c6db f   common.obj
 0001:0002b6e8       __catch$?OpenInput@sharp@@YA?AV?$tuple@VVImage@vips@@W4ImageType@sharp@@@std@@PEAUInputDescriptor@1@W4VipsAccess@@@Z$2 000000018002c6e8 f   common.obj
 0001:0002b720       ?dtor$0@?0??HasProfile@sharp@@YA_NVVImage@vips@@@Z@4HA 000000018002c720 f   common.obj
 0001:0002b720       ?dtor$0@?0??HasAlpha@sharp@@YA_NVVImage@vips@@@Z@4HA 000000018002c720 f   common.obj
 0001:0002b720       ?dtor$0@?0??ExifOrientation@sharp@@YAHVVImage@vips@@@Z@4HA 000000018002c720 f   common.obj
 0001:0002b720       ?dtor$0@?0??SetExifOrientation@sharp@@YAXVVImage@vips@@H@Z@4HA 000000018002c720 f   common.obj
 0001:0002b730       ?dtor$0@?0??RemoveExifOrientation@sharp@@YAXVVImage@vips@@@Z@4HA 000000018002c730 f   common.obj
 0001:0002b73e       ?dtor$2@?0??RemoveExifOrientation@sharp@@YAXVVImage@vips@@@Z@4HA 000000018002c73e f   common.obj
 0001:0002b750       ?dtor$0@?0??SetDensity@sharp@@YAXVVImage@vips@@H@Z@4HA 000000018002c750 f   common.obj
 0001:0002b760       ?dtor$0@?0???$New@VString@v8@@V?$basic_string@DU?$char_traits@D@std@@V?$allocator@D@2@@std@@@Nan@@YA?AV?$MaybeLocal@VString@v8@@@v8@@V?$basic_string@DU?$char_traits@D@std@@V?$allocator@D@2@@std@@@Z@4HA 000000018002c760 f   common.obj
 0001:0002b770       ?dtor$0@?0???$AttrAs@VObject@v8@@@sharp@@YA?AV?$Local@VObject@v8@@@v8@@V12@V?$basic_string@DU?$char_traits@D@std@@V?$allocator@D@2@@std@@@Z@4HA 000000018002c770 f   common.obj
 0001:0002b770       ?dtor$0@?0???$AttrAs@VFunction@v8@@@sharp@@YA?AV?$Local@VFunction@v8@@@v8@@V?$Local@VObject@v8@@@2@V?$basic_string@DU?$char_traits@D@std@@V?$allocator@D@2@@std@@@Z@4HA 000000018002c770 f   pipeline.obj
 0001:0002b77c       ?dtor$2@?0???$AttrAs@VObject@v8@@@sharp@@YA?AV?$Local@VObject@v8@@@v8@@V12@V?$basic_string@DU?$char_traits@D@std@@V?$allocator@D@2@@std@@@Z@4HA 000000018002c77c f   common.obj
 0001:0002b77c       ?dtor$2@?0???$AttrAs@VFunction@v8@@@sharp@@YA?AV?$Local@VFunction@v8@@@v8@@V?$Local@VObject@v8@@@2@V?$basic_string@DU?$char_traits@D@std@@V?$allocator@D@2@@std@@@Z@4HA 000000018002c77c f   pipeline.obj
 0001:0002b790       ?dtor$0@?0???$AttrTo@I@sharp@@YAIV?$Local@VObject@v8@@@v8@@V?$basic_string@DU?$char_traits@D@std@@V?$allocator@D@2@@std@@@Z@4HA 000000018002c790 f   common.obj
 0001:0002b790       ?dtor$0@?0???$AttrTo@_N@sharp@@YA_NV?$Local@VObject@v8@@@v8@@V?$basic_string@DU?$char_traits@D@std@@V?$allocator@D@2@@std@@@Z@4HA 000000018002c790 f   pipeline.obj
 0001:0002b790       ?dtor$0@?0???$AttrTo@H@sharp@@YAHV?$Local@VObject@v8@@@v8@@V?$basic_string@DU?$char_traits@D@std@@V?$allocator@D@2@@std@@@Z@4HA 000000018002c790 f   pipeline.obj
 0001:0002b79c       ?dtor$2@?0???$AttrTo@I@sharp@@YAIV?$Local@VObject@v8@@@v8@@V?$basic_string@DU?$char_traits@D@std@@V?$allocator@D@2@@std@@@Z@4HA 000000018002c79c f   common.obj
 0001:0002b79c       ?dtor$2@?0???$AttrTo@_N@sharp@@YA_NV?$Local@VObject@v8@@@v8@@V?$basic_string@DU?$char_traits@D@std@@V?$allocator@D@2@@std@@@Z@4HA 000000018002c79c f   pipeline.obj
 0001:0002b79c       ?dtor$2@?0???$AttrTo@H@sharp@@YAHV?$Local@VObject@v8@@@v8@@V?$basic_string@DU?$char_traits@D@std@@V?$allocator@D@2@@std@@@Z@4HA 000000018002c79c f   pipeline.obj
 0001:0002b7aa       ?dtor$4@?0???$AttrTo@I@sharp@@YAIV?$Local@VObject@v8@@@v8@@V?$basic_string@DU?$char_traits@D@std@@V?$allocator@D@2@@std@@@Z@4HA 000000018002c7aa f   common.obj
 0001:0002b7aa       ?dtor$4@?0???$AttrTo@H@sharp@@YAHV?$Local@VObject@v8@@@v8@@V?$basic_string@DU?$char_traits@D@std@@V?$allocator@D@2@@std@@@Z@4HA 000000018002c7aa f   pipeline.obj
 0001:0002b7aa       ?dtor$4@?0???$AttrTo@_N@sharp@@YA_NV?$Local@VObject@v8@@@v8@@V?$basic_string@DU?$char_traits@D@std@@V?$allocator@D@2@@std@@@Z@4HA 000000018002c7aa f   pipeline.obj
 0001:0002b7c0       ?dtor$0@?0??Set@Nan@@YA?AV?$Maybe@_N@1@V?$Local@VObject@v8@@@v8@@V?$Local@VValue@v8@@@4@1@Z@4HA 000000018002c7c0 f   metadata.obj
 0001:0002b7d0       ?dtor$0@?0??New@?$Factory@VUint32@v8@@@imp@Nan@@SA?AV?$Local@VUint32@v8@@@v8@@H@Z@4HA 000000018002c7d0 f   metadata.obj
 0001:0002b7e0       ?dtor$0@?0??Call@Callback@Nan@@QEBA?AV?$Local@VValue@v8@@@v8@@HQEAV34@@Z@4HA 000000018002c7e0 f   metadata.obj
 0001:0002b7ee       ?dtor$1@?0??Call@Callback@Nan@@QEBA?AV?$Local@VValue@v8@@@v8@@HQEAV34@@Z@4HA 000000018002c7ee f   metadata.obj
 0001:0002b7fa       ?dtor$2@?0??Call@Callback@Nan@@QEBA?AV?$Local@VValue@v8@@@v8@@HQEAV34@@Z@4HA 000000018002c7fa f   metadata.obj
 0001:0002b810       ?dtor$0@?0??Call_@Callback@Nan@@AEBA?AV?$MaybeLocal@VValue@v8@@@v8@@PEAVIsolate@4@V?$Local@VObject@v8@@@4@HQEAV?$Local@VValue@v8@@@4@PEAVAsyncResource@2@@Z@4HA 000000018002c810 f   metadata.obj
 0001:0002b820       ?dtor$0@?0???0AsyncWorker@Nan@@QEAA@PEAVCallback@1@PEBD@Z@4HA 000000018002c820 f   metadata.obj
 0001:0002b833       ?dtor$1@?0???0AsyncWorker@Nan@@QEAA@PEAVCallback@1@PEBD@Z@4HA 000000018002c833 f   metadata.obj
 0001:0002b83f       ?dtor$2@?0???0AsyncWorker@Nan@@QEAA@PEAVCallback@1@PEBD@Z@4HA 000000018002c83f f   metadata.obj
 0001:0002b860       ?dtor$0@?0??WorkComplete@AsyncWorker@Nan@@UEAAXXZ@4HA 000000018002c860 f   metadata.obj
 0001:0002b870       ?dtor$0@?0??GetFromPersistent@AsyncWorker@Nan@@QEBA?AV?$Local@VValue@v8@@@v8@@I@Z@4HA 000000018002c870 f   metadata.obj
 0001:0002b87c       ?dtor$2@?0??GetFromPersistent@AsyncWorker@Nan@@QEBA?AV?$Local@VValue@v8@@@v8@@I@Z@4HA 000000018002c87c f   metadata.obj
 0001:0002b890       ?dtor$0@?0??HandleOKCallback@AsyncWorker@Nan@@MEAAXXZ@4HA 000000018002c890 f   metadata.obj
 0001:0002b890       ?dtor$0@?0??HandleErrorCallback@AsyncWorker@Nan@@MEAAXXZ@4HA 000000018002c890 f   metadata.obj
 0001:0002b8a0       ?dtor$0@?0???0MetadataWorker@@QEAA@PEAVCallback@Nan@@PEAUMetadataBaton@@V?$vector@V?$Local@VObject@v8@@@v8@@V?$allocator@V?$Local@VObject@v8@@@v8@@@std@@@std@@@Z@4HA 000000018002c8a0 f   metadata.obj
 0001:0002b8ac       ?dtor$1@?0???0MetadataWorker@@QEAA@PEAVCallback@Nan@@PEAUMetadataBaton@@V?$vector@V?$Local@VObject@v8@@@v8@@V?$allocator@V?$Local@VObject@v8@@@v8@@@std@@@std@@@Z@4HA 000000018002c8ac f   metadata.obj
 0001:0002b8b8       ?dtor$2@?0???0MetadataWorker@@QEAA@PEAVCallback@Nan@@PEAUMetadataBaton@@V?$vector@V?$Local@VObject@v8@@@v8@@V?$allocator@V?$Local@VObject@v8@@@v8@@@std@@@std@@@Z@4HA 000000018002c8b8 f   metadata.obj
 0001:0002b8cb       ?dtor$3@?0???0MetadataWorker@@QEAA@PEAVCallback@Nan@@PEAUMetadataBaton@@V?$vector@V?$Local@VObject@v8@@@v8@@V?$allocator@V?$Local@VObject@v8@@@v8@@@std@@@std@@@Z@4HA 000000018002c8cb f   metadata.obj
 0001:0002b8d7       ?dtor$5@?0???0MetadataWorker@@QEAA@PEAVCallback@Nan@@PEAUMetadataBaton@@V?$vector@V?$Local@VObject@v8@@@v8@@V?$allocator@V?$Local@VObject@v8@@@v8@@@std@@@std@@@Z@4HA 000000018002c8d7 f   metadata.obj
 0001:0002b8f0       ?dtor$0@?0??Execute@MetadataWorker@@UEAAXXZ@4HA 000000018002c8f0 f   metadata.obj
 0001:0002b8fe       ?catch$18@?0??Execute@MetadataWorker@@UEAAXXZ@4HA 000000018002c8fe f   metadata.obj
 0001:0002b90b       __catch$?Execute@MetadataWorker@@UEAAXXZ$0 000000018002c90b f   metadata.obj
 0001:0002b951       ?dtor$15@?0??Execute@MetadataWorker@@UEAAXXZ@4HA 000000018002c951 f   metadata.obj
 0001:0002b95f       ?dtor$16@?0??Execute@MetadataWorker@@UEAAXXZ@4HA 000000018002c95f f   metadata.obj
 0001:0002b96d       ?dtor$17@?0??Execute@MetadataWorker@@UEAAXXZ@4HA 000000018002c96d f   metadata.obj
 0001:0002b980       ?dtor$5@?0??HandleOKCallback@MetadataWorker@@UEAAXXZ@4HA 000000018002c980 f   metadata.obj
 0001:0002b98c       ?dtor$9@?0??HandleOKCallback@MetadataWorker@@UEAAXXZ@4HA 000000018002c98c f   metadata.obj
 0001:0002b99a       ?dtor$10@?0??HandleOKCallback@MetadataWorker@@UEAAXXZ@4HA 000000018002c99a f   metadata.obj
 0001:0002b9a8       ?dtor$12@?0??HandleOKCallback@MetadataWorker@@UEAAXXZ@4HA 000000018002c9a8 f   metadata.obj
 0001:0002b9b6       ?dtor$13@?0??HandleOKCallback@MetadataWorker@@UEAAXXZ@4HA 000000018002c9b6 f   metadata.obj
 0001:0002b9c4       ?dtor$15@?0??HandleOKCallback@MetadataWorker@@UEAAXXZ@4HA 000000018002c9c4 f   metadata.obj
 0001:0002b9d2       ?dtor$16@?0??HandleOKCallback@MetadataWorker@@UEAAXXZ@4HA 000000018002c9d2 f   metadata.obj
 0001:0002b9e0       ?dtor$17@?0??HandleOKCallback@MetadataWorker@@UEAAXXZ@4HA 000000018002c9e0 f   metadata.obj
 0001:0002b9ee       ?dtor$19@?0??HandleOKCallback@MetadataWorker@@UEAAXXZ@4HA 000000018002c9ee f   metadata.obj
 0001:0002b9fc       ?dtor$20@?0??HandleOKCallback@MetadataWorker@@UEAAXXZ@4HA 000000018002c9fc f   metadata.obj
 0001:0002ba0a       ?dtor$22@?0??HandleOKCallback@MetadataWorker@@UEAAXXZ@4HA 000000018002ca0a f   metadata.obj
 0001:0002ba18       ?dtor$23@?0??HandleOKCallback@MetadataWorker@@UEAAXXZ@4HA 000000018002ca18 f   metadata.obj
 0001:0002ba26       ?dtor$24@?0??HandleOKCallback@MetadataWorker@@UEAAXXZ@4HA 000000018002ca26 f   metadata.obj
 0001:0002ba34       ?dtor$25@?0??HandleOKCallback@MetadataWorker@@UEAAXXZ@4HA 000000018002ca34 f   metadata.obj
 0001:0002ba42       ?dtor$27@?0??HandleOKCallback@MetadataWorker@@UEAAXXZ@4HA 000000018002ca42 f   metadata.obj
 0001:0002ba50       ?dtor$28@?0??HandleOKCallback@MetadataWorker@@UEAAXXZ@4HA 000000018002ca50 f   metadata.obj
 0001:0002ba5e       ?dtor$29@?0??HandleOKCallback@MetadataWorker@@UEAAXXZ@4HA 000000018002ca5e f   metadata.obj
 0001:0002ba70       ?dtor$0@?0??metadata@@YAXAEBV?$FunctionCallbackInfo@VValue@v8@@@Nan@@@Z@4HA 000000018002ca70 f   metadata.obj
 0001:0002ba7c       ?dtor$2@?0??metadata@@YAXAEBV?$FunctionCallbackInfo@VValue@v8@@@Nan@@@Z@4HA 000000018002ca7c f   metadata.obj
 0001:0002ba88       ?dtor$4@?0??metadata@@YAXAEBV?$FunctionCallbackInfo@VValue@v8@@@Nan@@@Z@4HA 000000018002ca88 f   metadata.obj
 0001:0002baa8       ?dtor$5@?0??metadata@@YAXAEBV?$FunctionCallbackInfo@VValue@v8@@@Nan@@@Z@4HA 000000018002caa8 f   metadata.obj
 0001:0002bad0       ?dtor$0@?0??Composite@sharp@@YA?AVVImage@vips@@V23@0H@Z@4HA 000000018002cad0 f   operations.obj
 0001:0002bade       ?dtor$1@?0??Composite@sharp@@YA?AVVImage@vips@@V23@0H@Z@4HA 000000018002cade f   operations.obj
 0001:0002baec       ?dtor$2@?0??Composite@sharp@@YA?AVVImage@vips@@V23@0H@Z@4HA 000000018002caec f   operations.obj
 0001:0002bafa       ?dtor$4@?0??Composite@sharp@@YA?AVVImage@vips@@V23@0H@Z@4HA 000000018002cafa f   operations.obj
 0001:0002bb06       ?dtor$5@?0??Composite@sharp@@YA?AVVImage@vips@@V23@0H@Z@4HA 000000018002cb06 f   operations.obj
 0001:0002bb12       ?dtor$6@?0??Composite@sharp@@YA?AVVImage@vips@@V23@0H@Z@4HA 000000018002cb12 f   operations.obj
 0001:0002bb20       ?dtor$7@?0??Composite@sharp@@YA?AVVImage@vips@@V23@0H@Z@4HA 000000018002cb20 f   operations.obj
 0001:0002bb30       ?dtor$0@?0??Composite@sharp@@YA?AVVImage@vips@@V23@0HH@Z@4HA 000000018002cb30 f   operations.obj
 0001:0002bb3e       ?dtor$1@?0??Composite@sharp@@YA?AVVImage@vips@@V23@0HH@Z@4HA 000000018002cb3e f   operations.obj
 0001:0002bb4c       ?dtor$2@?0??Composite@sharp@@YA?AVVImage@vips@@V23@0HH@Z@4HA 000000018002cb4c f   operations.obj
 0001:0002bb5a       ?dtor$4@?0??Composite@sharp@@YA?AVVImage@vips@@V23@0HH@Z@4HA 000000018002cb5a f   operations.obj
 0001:0002bb66       ?dtor$5@?0??Composite@sharp@@YA?AVVImage@vips@@V23@0HH@Z@4HA 000000018002cb66 f   operations.obj
 0001:0002bb72       ?dtor$6@?0??Composite@sharp@@YA?AVVImage@vips@@V23@0HH@Z@4HA 000000018002cb72 f   operations.obj
 0001:0002bb80       ?dtor$7@?0??Composite@sharp@@YA?AVVImage@vips@@V23@0HH@Z@4HA 000000018002cb80 f   operations.obj
 0001:0002bb90       ?dtor$0@?0??IsInputValidForComposition@sharp@@YA_NVVImage@vips@@0@Z@4HA 000000018002cb90 f   operations.obj
 0001:0002bb9e       ?dtor$1@?0??IsInputValidForComposition@sharp@@YA_NVVImage@vips@@0@Z@4HA 000000018002cb9e f   operations.obj
 0001:0002bbb0       ?dtor$0@?0??CompositeImage@sharp@@YA?AVVImage@vips@@V23@0@Z@4HA 000000018002cbb0 f   operations.obj
 0001:0002bbbe       ?dtor$1@?0??CompositeImage@sharp@@YA?AVVImage@vips@@V23@0@Z@4HA 000000018002cbbe f   operations.obj
 0001:0002bbcc       ?dtor$2@?0??CompositeImage@sharp@@YA?AVVImage@vips@@V23@0@Z@4HA 000000018002cbcc f   operations.obj
 0001:0002bbda       ?dtor$4@?0??CompositeImage@sharp@@YA?AVVImage@vips@@V23@0@Z@4HA 000000018002cbda f   operations.obj
 0001:0002bbe8       ?dtor$5@?0??CompositeImage@sharp@@YA?AVVImage@vips@@V23@0@Z@4HA 000000018002cbe8 f   operations.obj
 0001:0002bbf6       ?dtor$7@?0??CompositeImage@sharp@@YA?AVVImage@vips@@V23@0@Z@4HA 000000018002cbf6 f   operations.obj
 0001:0002bc04       ?dtor$8@?0??CompositeImage@sharp@@YA?AVVImage@vips@@V23@0@Z@4HA 000000018002cc04 f   operations.obj
 0001:0002bc12       ?dtor$9@?0??CompositeImage@sharp@@YA?AVVImage@vips@@V23@0@Z@4HA 000000018002cc12 f   operations.obj
 0001:0002bc20       ?dtor$11@?0??CompositeImage@sharp@@YA?AVVImage@vips@@V23@0@Z@4HA 000000018002cc20 f   operations.obj
 0001:0002bc2e       ?dtor$13@?0??CompositeImage@sharp@@YA?AVVImage@vips@@V23@0@Z@4HA 000000018002cc2e f   operations.obj
 0001:0002bc3c       ?dtor$14@?0??CompositeImage@sharp@@YA?AVVImage@vips@@V23@0@Z@4HA 000000018002cc3c f   operations.obj
 0001:0002bc4a       ?dtor$16@?0??CompositeImage@sharp@@YA?AVVImage@vips@@V23@0@Z@4HA 000000018002cc4a f   operations.obj
 0001:0002bc58       ?dtor$18@?0??CompositeImage@sharp@@YA?AVVImage@vips@@V23@0@Z@4HA 000000018002cc58 f   operations.obj
 0001:0002bc70       ?dtor$0@?0??Cutout@sharp@@YA?AVVImage@vips@@V23@0H@Z@4HA 000000018002cc70 f   operations.obj
 0001:0002bc7e       ?dtor$1@?0??Cutout@sharp@@YA?AVVImage@vips@@V23@0H@Z@4HA 000000018002cc7e f   operations.obj
 0001:0002bc8c       ?dtor$7@?0??Cutout@sharp@@YA?AVVImage@vips@@V23@0H@Z@4HA 000000018002cc8c f   operations.obj
 0001:0002bc98       ?dtor$8@?0??Cutout@sharp@@YA?AVVImage@vips@@V23@0H@Z@4HA 000000018002cc98 f   operations.obj
 0001:0002bca4       ?dtor$9@?0??Cutout@sharp@@YA?AVVImage@vips@@V23@0H@Z@4HA 000000018002cca4 f   operations.obj
 0001:0002bcb2       ?dtor$10@?0??Cutout@sharp@@YA?AVVImage@vips@@V23@0H@Z@4HA 000000018002ccb2 f   operations.obj
 0001:0002bcc0       ?dtor$11@?0??Cutout@sharp@@YA?AVVImage@vips@@V23@0H@Z@4HA 000000018002ccc0 f   operations.obj
 0001:0002bcce       ?dtor$12@?0??Cutout@sharp@@YA?AVVImage@vips@@V23@0H@Z@4HA 000000018002ccce f   operations.obj
 0001:0002bcdc       ?dtor$14@?0??Cutout@sharp@@YA?AVVImage@vips@@V23@0H@Z@4HA 000000018002ccdc f   operations.obj
 0001:0002bcea       ?dtor$18@?0??Cutout@sharp@@YA?AVVImage@vips@@V23@0H@Z@4HA 000000018002ccea f   operations.obj
 0001:0002bd00       ?dtor$0@?0??Normalize@sharp@@YA?AVVImage@vips@@V23@@Z@4HA 000000018002cd00 f   operations.obj
 0001:0002bd0e       ?dtor$1@?0??Normalize@sharp@@YA?AVVImage@vips@@V23@@Z@4HA 000000018002cd0e f   operations.obj
 0001:0002bd1c       ?dtor$2@?0??Normalize@sharp@@YA?AVVImage@vips@@V23@@Z@4HA 000000018002cd1c f   operations.obj
 0001:0002bd2a       ?dtor$3@?0??Normalize@sharp@@YA?AVVImage@vips@@V23@@Z@4HA 000000018002cd2a f   operations.obj
 0001:0002bd38       ?dtor$6@?0??Normalize@sharp@@YA?AVVImage@vips@@V23@@Z@4HA 000000018002cd38 f   operations.obj
 0001:0002bd46       ?dtor$7@?0??Normalize@sharp@@YA?AVVImage@vips@@V23@@Z@4HA 000000018002cd46 f   operations.obj
 0001:0002bd54       ?dtor$8@?0??Normalize@sharp@@YA?AVVImage@vips@@V23@@Z@4HA 000000018002cd54 f   operations.obj
 0001:0002bd62       ?dtor$9@?0??Normalize@sharp@@YA?AVVImage@vips@@V23@@Z@4HA 000000018002cd62 f   operations.obj
 0001:0002bd70       ?dtor$10@?0??Normalize@sharp@@YA?AVVImage@vips@@V23@@Z@4HA 000000018002cd70 f   operations.obj
 0001:0002bd7e       ?dtor$12@?0??Normalize@sharp@@YA?AVVImage@vips@@V23@@Z@4HA 000000018002cd7e f   operations.obj
 0001:0002bd90       ?dtor$0@?0??Gamma@sharp@@YA?AVVImage@vips@@V23@N@Z@4HA 000000018002cd90 f   operations.obj
 0001:0002bd9e       ?dtor$2@?0??Gamma@sharp@@YA?AVVImage@vips@@V23@N@Z@4HA 000000018002cd9e f   operations.obj
 0001:0002bdac       ?dtor$3@?0??Gamma@sharp@@YA?AVVImage@vips@@V23@N@Z@4HA 000000018002cdac f   operations.obj
 0001:0002bdba       ?dtor$4@?0??Gamma@sharp@@YA?AVVImage@vips@@V23@N@Z@4HA 000000018002cdba f   operations.obj
 0001:0002bdc8       ?dtor$5@?0??Gamma@sharp@@YA?AVVImage@vips@@V23@N@Z@4HA 000000018002cdc8 f   operations.obj
 0001:0002bde0       ?dtor$0@?0??Blur@sharp@@YA?AVVImage@vips@@V23@N@Z@4HA 000000018002cde0 f   operations.obj
 0001:0002bdee       ?dtor$1@?0??Blur@sharp@@YA?AVVImage@vips@@V23@N@Z@4HA 000000018002cdee f   operations.obj
 0001:0002be00       ?dtor$0@?0??Convolve@sharp@@YA?AVVImage@vips@@V23@HHNNAEBV?$unique_ptr@$$BY0A@NU?$default_delete@$$BY0A@N@std@@@std@@@Z@4HA 000000018002ce00 f   operations.obj
 0001:0002be0e       ?dtor$1@?0??Convolve@sharp@@YA?AVVImage@vips@@V23@HHNNAEBV?$unique_ptr@$$BY0A@NU?$default_delete@$$BY0A@N@std@@@std@@@Z@4HA 000000018002ce0e f   operations.obj
 0001:0002be20       ?dtor$0@?0??Sharpen@sharp@@YA?AVVImage@vips@@V23@NNN@Z@4HA 000000018002ce20 f   operations.obj
 0001:0002be2e       ?dtor$1@?0??Sharpen@sharp@@YA?AVVImage@vips@@V23@NNN@Z@4HA 000000018002ce2e f   operations.obj
 0001:0002be3c       ?dtor$4@?0??Sharpen@sharp@@YA?AVVImage@vips@@V23@NNN@Z@4HA 000000018002ce3c f   operations.obj
 0001:0002be50       ?dtor$0@?0???RAttentionStrategy@sharp@@QEAANVVImage@vips@@@Z@4HA 000000018002ce50 f   operations.obj
 0001:0002be5e       ?dtor$1@?0???RAttentionStrategy@sharp@@QEAANVVImage@vips@@@Z@4HA 000000018002ce5e f   operations.obj
 0001:0002be6c       ?dtor$2@?0???RAttentionStrategy@sharp@@QEAANVVImage@vips@@@Z@4HA 000000018002ce6c f   operations.obj
 0001:0002be7a       ?dtor$3@?0???RAttentionStrategy@sharp@@QEAANVVImage@vips@@@Z@4HA 000000018002ce7a f   operations.obj
 0001:0002be88       ?dtor$4@?0???RAttentionStrategy@sharp@@QEAANVVImage@vips@@@Z@4HA 000000018002ce88 f   operations.obj
 0001:0002be96       ?dtor$5@?0???RAttentionStrategy@sharp@@QEAANVVImage@vips@@@Z@4HA 000000018002ce96 f   operations.obj
 0001:0002bea4       ?dtor$7@?0???RAttentionStrategy@sharp@@QEAANVVImage@vips@@@Z@4HA 000000018002cea4 f   operations.obj
 0001:0002beb2       ?dtor$8@?0???RAttentionStrategy@sharp@@QEAANVVImage@vips@@@Z@4HA 000000018002ceb2 f   operations.obj
 0001:0002bec0       ?dtor$10@?0???RAttentionStrategy@sharp@@QEAANVVImage@vips@@@Z@4HA 000000018002cec0 f   operations.obj
 0001:0002bece       ?dtor$12@?0???RAttentionStrategy@sharp@@QEAANVVImage@vips@@@Z@4HA 000000018002cece f   operations.obj
 0001:0002bedc       ?dtor$14@?0???RAttentionStrategy@sharp@@QEAANVVImage@vips@@@Z@4HA 000000018002cedc f   operations.obj
 0001:0002beea       ?dtor$16@?0???RAttentionStrategy@sharp@@QEAANVVImage@vips@@@Z@4HA 000000018002ceea f   operations.obj
 0001:0002bef8       ?dtor$18@?0???RAttentionStrategy@sharp@@QEAANVVImage@vips@@@Z@4HA 000000018002cef8 f   operations.obj
 0001:0002bf06       ?dtor$23@?0???RAttentionStrategy@sharp@@QEAANVVImage@vips@@@Z@4HA 000000018002cf06 f   operations.obj
 0001:0002bf14       ?dtor$24@?0???RAttentionStrategy@sharp@@QEAANVVImage@vips@@@Z@4HA 000000018002cf14 f   operations.obj
 0001:0002bf22       ?dtor$25@?0???RAttentionStrategy@sharp@@QEAANVVImage@vips@@@Z@4HA 000000018002cf22 f   operations.obj
 0001:0002bf30       ?dtor$27@?0???RAttentionStrategy@sharp@@QEAANVVImage@vips@@@Z@4HA 000000018002cf30 f   operations.obj
 0001:0002bf3e       ?dtor$28@?0???RAttentionStrategy@sharp@@QEAANVVImage@vips@@@Z@4HA 000000018002cf3e f   operations.obj
 0001:0002bf4c       ?dtor$29@?0???RAttentionStrategy@sharp@@QEAANVVImage@vips@@@Z@4HA 000000018002cf4c f   operations.obj
 0001:0002bf5a       ?dtor$32@?0???RAttentionStrategy@sharp@@QEAANVVImage@vips@@@Z@4HA 000000018002cf5a f   operations.obj
 0001:0002bf70       ?dtor$0@?0??Crop@sharp@@YA?AV?$tuple@HH@std@@VVImage@vips@@HHV?$function@$$A6ANVVImage@vips@@@Z@3@@Z@4HA 000000018002cf70 f   operations.obj
 0001:0002bf7c       ?dtor$1@?0??Crop@sharp@@YA?AV?$tuple@HH@std@@VVImage@vips@@HHV?$function@$$A6ANVVImage@vips@@@Z@3@@Z@4HA 000000018002cf7c f   operations.obj
 0001:0002bf8a       ?dtor$6@?0??Crop@sharp@@YA?AV?$tuple@HH@std@@VVImage@vips@@HHV?$function@$$A6ANVVImage@vips@@@Z@3@@Z@4HA 000000018002cf8a f   operations.obj
 0001:0002bf98       ?dtor$7@?0??Crop@sharp@@YA?AV?$tuple@HH@std@@VVImage@vips@@HHV?$function@$$A6ANVVImage@vips@@@Z@3@@Z@4HA 000000018002cf98 f   operations.obj
 0001:0002bfa6       ?dtor$8@?0??Crop@sharp@@YA?AV?$tuple@HH@std@@VVImage@vips@@HHV?$function@$$A6ANVVImage@vips@@@Z@3@@Z@4HA 000000018002cfa6 f   operations.obj
 0001:0002bfb4       ?dtor$9@?0??Crop@sharp@@YA?AV?$tuple@HH@std@@VVImage@vips@@HHV?$function@$$A6ANVVImage@vips@@@Z@3@@Z@4HA 000000018002cfb4 f   operations.obj
 0001:0002bfd0       ?dtor$0@?0??TileCache@sharp@@YA?AVVImage@vips@@V23@N@Z@4HA 000000018002cfd0 f   operations.obj
 0001:0002bfe0       ?dtor$0@?0??Threshold@sharp@@YA?AVVImage@vips@@V23@N_N@Z@4HA 000000018002cfe0 f   operations.obj
 0001:0002bff0       ?dtor$0@?0??Bandbool@sharp@@YA?AVVImage@vips@@V23@W4VipsOperationBoolean@@@Z@4HA 000000018002cff0 f   operations.obj
 0001:0002bffe       ?dtor$1@?0??Bandbool@sharp@@YA?AVVImage@vips@@V23@W4VipsOperationBoolean@@@Z@4HA 000000018002cffe f   operations.obj
 0001:0002c010       ?dtor$0@?0??Boolean@sharp@@YA?AVVImage@vips@@V23@0W4VipsOperationBoolean@@@Z@4HA 000000018002d010 f   operations.obj
 0001:0002c01e       ?dtor$1@?0??Boolean@sharp@@YA?AVVImage@vips@@V23@0W4VipsOperationBoolean@@@Z@4HA 000000018002d01e f   operations.obj
 0001:0002c030       ?dtor$0@?0??Trim@sharp@@YA?AVVImage@vips@@V23@H@Z@4HA 000000018002d030 f   operations.obj
 0001:0002c03e       ?dtor$1@?0??Trim@sharp@@YA?AVVImage@vips@@V23@H@Z@4HA 000000018002d03e f   operations.obj
 0001:0002c04a       ?dtor$2@?0??Trim@sharp@@YA?AVVImage@vips@@V23@H@Z@4HA 000000018002d04a f   operations.obj
 0001:0002c056       ?dtor$4@?0??Trim@sharp@@YA?AVVImage@vips@@V23@H@Z@4HA 000000018002d056 f   operations.obj
 0001:0002c064       ?dtor$6@?0??Trim@sharp@@YA?AVVImage@vips@@V23@H@Z@4HA 000000018002d064 f   operations.obj
 0001:0002c072       ?dtor$7@?0??Trim@sharp@@YA?AVVImage@vips@@V23@H@Z@4HA 000000018002d072 f   operations.obj
 0001:0002c080       ?dtor$8@?0??Trim@sharp@@YA?AVVImage@vips@@V23@H@Z@4HA 000000018002d080 f   operations.obj
 0001:0002c08e       ?dtor$9@?0??Trim@sharp@@YA?AVVImage@vips@@V23@H@Z@4HA 000000018002d08e f   operations.obj
 0001:0002c09c       ?dtor$10@?0??Trim@sharp@@YA?AVVImage@vips@@V23@H@Z@4HA 000000018002d09c f   operations.obj
 0001:0002c0aa       ?dtor$11@?0??Trim@sharp@@YA?AVVImage@vips@@V23@H@Z@4HA 000000018002d0aa f   operations.obj
 0001:0002c0b8       ?dtor$12@?0??Trim@sharp@@YA?AVVImage@vips@@V23@H@Z@4HA 000000018002d0b8 f   operations.obj
 0001:0002c0c6       ?dtor$13@?0??Trim@sharp@@YA?AVVImage@vips@@V23@H@Z@4HA 000000018002d0c6 f   operations.obj
 0001:0002c0d4       ?dtor$14@?0??Trim@sharp@@YA?AVVImage@vips@@V23@H@Z@4HA 000000018002d0d4 f   operations.obj
 0001:0002c0e2       ?dtor$15@?0??Trim@sharp@@YA?AVVImage@vips@@V23@H@Z@4HA 000000018002d0e2 f   operations.obj
 0001:0002c0f0       ?dtor$16@?0??Trim@sharp@@YA?AVVImage@vips@@V23@H@Z@4HA 000000018002d0f0 f   operations.obj
 0001:0002c0fe       ?dtor$17@?0??Trim@sharp@@YA?AVVImage@vips@@V23@H@Z@4HA 000000018002d0fe f   operations.obj
 0001:0002c10c       ?dtor$18@?0??Trim@sharp@@YA?AVVImage@vips@@V23@H@Z@4HA 000000018002d10c f   operations.obj
 0001:0002c120       ?dtor$0@?0???0PipelineWorker@@QEAA@PEAVCallback@Nan@@PEAUPipelineBaton@@0V?$vector@V?$Local@VObject@v8@@@v8@@V?$allocator@V?$Local@VObject@v8@@@v8@@@std@@@std@@@Z@4HA 000000018002d120 f   pipeline.obj
 0001:0002c12c       ?dtor$1@?0???0PipelineWorker@@QEAA@PEAVCallback@Nan@@PEAUPipelineBaton@@0V?$vector@V?$Local@VObject@v8@@@v8@@V?$allocator@V?$Local@VObject@v8@@@v8@@@std@@@std@@@Z@4HA 000000018002d12c f   pipeline.obj
 0001:0002c138       ?dtor$2@?0???0PipelineWorker@@QEAA@PEAVCallback@Nan@@PEAUPipelineBaton@@0V?$vector@V?$Local@VObject@v8@@@v8@@V?$allocator@V?$Local@VObject@v8@@@v8@@@std@@@std@@@Z@4HA 000000018002d138 f   pipeline.obj
 0001:0002c14b       ?dtor$3@?0???0PipelineWorker@@QEAA@PEAVCallback@Nan@@PEAUPipelineBaton@@0V?$vector@V?$Local@VObject@v8@@@v8@@V?$allocator@V?$Local@VObject@v8@@@v8@@@std@@@std@@@Z@4HA 000000018002d14b f   pipeline.obj
 0001:0002c157       ?dtor$5@?0???0PipelineWorker@@QEAA@PEAVCallback@Nan@@PEAUPipelineBaton@@0V?$vector@V?$Local@VObject@v8@@@v8@@V?$allocator@V?$Local@VObject@v8@@@v8@@@std@@@std@@@Z@4HA 000000018002d157 f   pipeline.obj
 0001:0002c170       ?dtor$0@?0??Execute@PipelineWorker@@UEAAXXZ@4HA 000000018002d170 f   pipeline.obj
 0001:0002c17c       ?dtor$1@?0??Execute@PipelineWorker@@UEAAXXZ@4HA 000000018002d17c f   pipeline.obj
 0001:0002c188       ?dtor$2@?0??Execute@PipelineWorker@@UEAAXXZ@4HA 000000018002d188 f   pipeline.obj
 0001:0002c194       ?dtor$3@?0??Execute@PipelineWorker@@UEAAXXZ@4HA 000000018002d194 f   pipeline.obj
 0001:0002c1a0       ?dtor$4@?0??Execute@PipelineWorker@@UEAAXXZ@4HA 000000018002d1a0 f   pipeline.obj
 0001:0002c1ac       ?dtor$5@?0??Execute@PipelineWorker@@UEAAXXZ@4HA 000000018002d1ac f   pipeline.obj
 0001:0002c1ba       ?dtor$8@?0??Execute@PipelineWorker@@UEAAXXZ@4HA 000000018002d1ba f   pipeline.obj
 0001:0002c1c8       ?dtor$11@?0??Execute@PipelineWorker@@UEAAXXZ@4HA 000000018002d1c8 f   pipeline.obj
 0001:0002c1d6       ?dtor$12@?0??Execute@PipelineWorker@@UEAAXXZ@4HA 000000018002d1d6 f   pipeline.obj
 0001:0002c1e4       ?dtor$13@?0??Execute@PipelineWorker@@UEAAXXZ@4HA 000000018002d1e4 f   pipeline.obj
 0001:0002c1f2       ?dtor$14@?0??Execute@PipelineWorker@@UEAAXXZ@4HA 000000018002d1f2 f   pipeline.obj
 0001:0002c200       ?dtor$15@?0??Execute@PipelineWorker@@UEAAXXZ@4HA 000000018002d200 f   pipeline.obj
 0001:0002c20e       ?dtor$16@?0??Execute@PipelineWorker@@UEAAXXZ@4HA 000000018002d20e f   pipeline.obj
 0001:0002c21c       ?dtor$308@?0??Execute@PipelineWorker@@UEAAXXZ@4HA 000000018002d21c f   pipeline.obj
 0001:0002c22a       ?dtor$18@?0??Execute@PipelineWorker@@UEAAXXZ@4HA 000000018002d22a f   pipeline.obj
 0001:0002c238       ?catch$868@?0??Execute@PipelineWorker@@UEAAXXZ@4HA 000000018002d238 f   pipeline.obj
 0001:0002c245       __catch$?Execute@PipelineWorker@@UEAAXXZ$0 000000018002d245 f   pipeline.obj
 0001:0002c253       ?dtor$19@?0??Execute@PipelineWorker@@UEAAXXZ@4HA 000000018002d253 f   pipeline.obj
 0001:0002c261       ?dtor$21@?0??Execute@PipelineWorker@@UEAAXXZ@4HA 000000018002d261 f   pipeline.obj
 0001:0002c26d       ?dtor$22@?0??Execute@PipelineWorker@@UEAAXXZ@4HA 000000018002d26d f   pipeline.obj
 0001:0002c279       ?dtor$23@?0??Execute@PipelineWorker@@UEAAXXZ@4HA 000000018002d279 f   pipeline.obj
 0001:0002c287       ?dtor$24@?0??Execute@PipelineWorker@@UEAAXXZ@4HA 000000018002d287 f   pipeline.obj
 0001:0002c295       ?dtor$26@?0??Execute@PipelineWorker@@UEAAXXZ@4HA 000000018002d295 f   pipeline.obj
 0001:0002c2a3       ?dtor$27@?0??Execute@PipelineWorker@@UEAAXXZ@4HA 000000018002d2a3 f   pipeline.obj
 0001:0002c2b1       ?dtor$28@?0??Execute@PipelineWorker@@UEAAXXZ@4HA 000000018002d2b1 f   pipeline.obj
 0001:0002c2bf       ?dtor$29@?0??Execute@PipelineWorker@@UEAAXXZ@4HA 000000018002d2bf f   pipeline.obj
 0001:0002c2cd       ?dtor$31@?0??Execute@PipelineWorker@@UEAAXXZ@4HA 000000018002d2cd f   pipeline.obj
 0001:0002c2db       ?dtor$33@?0??Execute@PipelineWorker@@UEAAXXZ@4HA 000000018002d2db f   pipeline.obj
 0001:0002c2e9       ?dtor$35@?0??Execute@PipelineWorker@@UEAAXXZ@4HA 000000018002d2e9 f   pipeline.obj
 0001:0002c2f7       ?dtor$37@?0??Execute@PipelineWorker@@UEAAXXZ@4HA 000000018002d2f7 f   pipeline.obj
 0001:0002c305       ?dtor$39@?0??Execute@PipelineWorker@@UEAAXXZ@4HA 000000018002d305 f   pipeline.obj
 0001:0002c313       ?dtor$40@?0??Execute@PipelineWorker@@UEAAXXZ@4HA 000000018002d313 f   pipeline.obj
 0001:0002c321       ?dtor$41@?0??Execute@PipelineWorker@@UEAAXXZ@4HA 000000018002d321 f   pipeline.obj
 0001:0002c32f       ?dtor$42@?0??Execute@PipelineWorker@@UEAAXXZ@4HA 000000018002d32f f   pipeline.obj
 0001:0002c33d       ?dtor$44@?0??Execute@PipelineWorker@@UEAAXXZ@4HA 000000018002d33d f   pipeline.obj
 0001:0002c34b       ?dtor$45@?0??Execute@PipelineWorker@@UEAAXXZ@4HA 000000018002d34b f   pipeline.obj
 0001:0002c359       ?dtor$47@?0??Execute@PipelineWorker@@UEAAXXZ@4HA 000000018002d359 f   pipeline.obj
 0001:0002c367       ?dtor$48@?0??Execute@PipelineWorker@@UEAAXXZ@4HA 000000018002d367 f   pipeline.obj
 0001:0002c375       ?dtor$50@?0??Execute@PipelineWorker@@UEAAXXZ@4HA 000000018002d375 f   pipeline.obj
 0001:0002c383       ?dtor$52@?0??Execute@PipelineWorker@@UEAAXXZ@4HA 000000018002d383 f   pipeline.obj
 0001:0002c391       ?dtor$54@?0??Execute@PipelineWorker@@UEAAXXZ@4HA 000000018002d391 f   pipeline.obj
 0001:0002c39f       ?dtor$57@?0??Execute@PipelineWorker@@UEAAXXZ@4HA 000000018002d39f f   pipeline.obj
 0001:0002c3ad       ?dtor$58@?0??Execute@PipelineWorker@@UEAAXXZ@4HA 000000018002d3ad f   pipeline.obj
 0001:0002c3bb       ?dtor$59@?0??Execute@PipelineWorker@@UEAAXXZ@4HA 000000018002d3bb f   pipeline.obj
 0001:0002c3c7       ?dtor$62@?0??Execute@PipelineWorker@@UEAAXXZ@4HA 000000018002d3c7 f   pipeline.obj
 0001:0002c3d5       ?dtor$64@?0??Execute@PipelineWorker@@UEAAXXZ@4HA 000000018002d3d5 f   pipeline.obj
 0001:0002c3e3       ?dtor$65@?0??Execute@PipelineWorker@@UEAAXXZ@4HA 000000018002d3e3 f   pipeline.obj
 0001:0002c3ef       ?dtor$66@?0??Execute@PipelineWorker@@UEAAXXZ@4HA 000000018002d3ef f   pipeline.obj
 0001:0002c3fd       ?dtor$537@?0??Execute@PipelineWorker@@UEAAXXZ@4HA 000000018002d3fd f   pipeline.obj
 0001:0002c409       ?dtor$67@?0??Execute@PipelineWorker@@UEAAXXZ@4HA 000000018002d409 f   pipeline.obj
 0001:0002c415       ?dtor$585@?0??Execute@PipelineWorker@@UEAAXXZ@4HA 000000018002d415 f   pipeline.obj
 0001:0002c421       ?dtor$69@?0??Execute@PipelineWorker@@UEAAXXZ@4HA 000000018002d421 f   pipeline.obj
 0001:0002c42d       ?dtor$71@?0??Execute@PipelineWorker@@UEAAXXZ@4HA 000000018002d42d f   pipeline.obj
 0001:0002c43b       ?dtor$72@?0??Execute@PipelineWorker@@UEAAXXZ@4HA 000000018002d43b f   pipeline.obj
 0001:0002c449       ?dtor$73@?0??Execute@PipelineWorker@@UEAAXXZ@4HA 000000018002d449 f   pipeline.obj
 0001:0002c455       ?dtor$76@?0??Execute@PipelineWorker@@UEAAXXZ@4HA 000000018002d455 f   pipeline.obj
 0001:0002c463       ?dtor$78@?0??Execute@PipelineWorker@@UEAAXXZ@4HA 000000018002d463 f   pipeline.obj
 0001:0002c471       ?dtor$79@?0??Execute@PipelineWorker@@UEAAXXZ@4HA 000000018002d471 f   pipeline.obj
 0001:0002c47d       ?dtor$80@?0??Execute@PipelineWorker@@UEAAXXZ@4HA 000000018002d47d f   pipeline.obj
 0001:0002c48b       ?dtor$82@?0??Execute@PipelineWorker@@UEAAXXZ@4HA 000000018002d48b f   pipeline.obj
 0001:0002c499       ?dtor$84@?0??Execute@PipelineWorker@@UEAAXXZ@4HA 000000018002d499 f   pipeline.obj
 0001:0002c4a7       ?dtor$86@?0??Execute@PipelineWorker@@UEAAXXZ@4HA 000000018002d4a7 f   pipeline.obj
 0001:0002c4b5       ?dtor$88@?0??Execute@PipelineWorker@@UEAAXXZ@4HA 000000018002d4b5 f   pipeline.obj
 0001:0002c4c3       ?dtor$89@?0??Execute@PipelineWorker@@UEAAXXZ@4HA 000000018002d4c3 f   pipeline.obj
 0001:0002c4d1       ?dtor$91@?0??Execute@PipelineWorker@@UEAAXXZ@4HA 000000018002d4d1 f   pipeline.obj
 0001:0002c4df       ?dtor$92@?0??Execute@PipelineWorker@@UEAAXXZ@4HA 000000018002d4df f   pipeline.obj
 0001:0002c4ed       ?dtor$93@?0??Execute@PipelineWorker@@UEAAXXZ@4HA 000000018002d4ed f   pipeline.obj
 0001:0002c4fb       ?dtor$95@?0??Execute@PipelineWorker@@UEAAXXZ@4HA 000000018002d4fb f   pipeline.obj
 0001:0002c509       ?dtor$97@?0??Execute@PipelineWorker@@UEAAXXZ@4HA 000000018002d509 f   pipeline.obj
 0001:0002c517       ?dtor$99@?0??Execute@PipelineWorker@@UEAAXXZ@4HA 000000018002d517 f   pipeline.obj
 0001:0002c525       ?dtor$101@?0??Execute@PipelineWorker@@UEAAXXZ@4HA 000000018002d525 f   pipeline.obj
 0001:0002c533       ?dtor$103@?0??Execute@PipelineWorker@@UEAAXXZ@4HA 000000018002d533 f   pipeline.obj
 0001:0002c541       ?dtor$104@?0??Execute@PipelineWorker@@UEAAXXZ@4HA 000000018002d541 f   pipeline.obj
 0001:0002c54f       ?dtor$105@?0??Execute@PipelineWorker@@UEAAXXZ@4HA 000000018002d54f f   pipeline.obj
 0001:0002c55d       ?dtor$106@?0??Execute@PipelineWorker@@UEAAXXZ@4HA 000000018002d55d f   pipeline.obj
 0001:0002c56b       ?dtor$108@?0??Execute@PipelineWorker@@UEAAXXZ@4HA 000000018002d56b f   pipeline.obj
 0001:0002c579       ?dtor$109@?0??Execute@PipelineWorker@@UEAAXXZ@4HA 000000018002d579 f   pipeline.obj
 0001:0002c587       ?dtor$111@?0??Execute@PipelineWorker@@UEAAXXZ@4HA 000000018002d587 f   pipeline.obj
 0001:0002c595       ?dtor$112@?0??Execute@PipelineWorker@@UEAAXXZ@4HA 000000018002d595 f   pipeline.obj
 0001:0002c5a3       ?dtor$113@?0??Execute@PipelineWorker@@UEAAXXZ@4HA 000000018002d5a3 f   pipeline.obj
 0001:0002c5b1       ?dtor$114@?0??Execute@PipelineWorker@@UEAAXXZ@4HA 000000018002d5b1 f   pipeline.obj
 0001:0002c5bf       ?dtor$116@?0??Execute@PipelineWorker@@UEAAXXZ@4HA 000000018002d5bf f   pipeline.obj
 0001:0002c5cd       ?dtor$118@?0??Execute@PipelineWorker@@UEAAXXZ@4HA 000000018002d5cd f   pipeline.obj
 0001:0002c5db       ?dtor$119@?0??Execute@PipelineWorker@@UEAAXXZ@4HA 000000018002d5db f   pipeline.obj
 0001:0002c5e9       ?dtor$121@?0??Execute@PipelineWorker@@UEAAXXZ@4HA 000000018002d5e9 f   pipeline.obj
 0001:0002c5f7       ?dtor$123@?0??Execute@PipelineWorker@@UEAAXXZ@4HA 000000018002d5f7 f   pipeline.obj
 0001:0002c605       ?dtor$125@?0??Execute@PipelineWorker@@UEAAXXZ@4HA 000000018002d605 f   pipeline.obj
 0001:0002c613       ?dtor$126@?0??Execute@PipelineWorker@@UEAAXXZ@4HA 000000018002d613 f   pipeline.obj
 0001:0002c621       ?dtor$127@?0??Execute@PipelineWorker@@UEAAXXZ@4HA 000000018002d621 f   pipeline.obj
 0001:0002c62f       ?dtor$128@?0??Execute@PipelineWorker@@UEAAXXZ@4HA 000000018002d62f f   pipeline.obj
 0001:0002c63d       ?dtor$130@?0??Execute@PipelineWorker@@UEAAXXZ@4HA 000000018002d63d f   pipeline.obj
 0001:0002c66c       ?dtor$131@?0??Execute@PipelineWorker@@UEAAXXZ@4HA 000000018002d66c f   pipeline.obj
 0001:0002c67a       ?dtor$133@?0??Execute@PipelineWorker@@UEAAXXZ@4HA 000000018002d67a f   pipeline.obj
 0001:0002c688       ?dtor$134@?0??Execute@PipelineWorker@@UEAAXXZ@4HA 000000018002d688 f   pipeline.obj
 0001:0002c696       ?dtor$135@?0??Execute@PipelineWorker@@UEAAXXZ@4HA 000000018002d696 f   pipeline.obj
 0001:0002c6a2       ?dtor$136@?0??Execute@PipelineWorker@@UEAAXXZ@4HA 000000018002d6a2 f   pipeline.obj
 0001:0002c6ae       ?catch$869@?0??Execute@PipelineWorker@@UEAAXXZ@4HA 000000018002d6ae f   pipeline.obj
 0001:0002c6bb       __catch$?Execute@PipelineWorker@@UEAAXXZ$2 000000018002d6bb f   pipeline.obj
 0001:0002c700       ?dtor$4@?0??HandleOKCallback@PipelineWorker@@UEAAXXZ@4HA 000000018002d700 f   pipeline.obj
 0001:0002c70c       ?dtor$8@?0??HandleOKCallback@PipelineWorker@@UEAAXXZ@4HA 000000018002d70c f   pipeline.obj
 0001:0002c71a       ?dtor$9@?0??HandleOKCallback@PipelineWorker@@UEAAXXZ@4HA 000000018002d71a f   pipeline.obj
 0001:0002c728       ?dtor$11@?0??HandleOKCallback@PipelineWorker@@UEAAXXZ@4HA 000000018002d728 f   pipeline.obj
 0001:0002c736       ?dtor$12@?0??HandleOKCallback@PipelineWorker@@UEAAXXZ@4HA 000000018002d736 f   pipeline.obj
 0001:0002c744       ?dtor$14@?0??HandleOKCallback@PipelineWorker@@UEAAXXZ@4HA 000000018002d744 f   pipeline.obj
 0001:0002c752       ?dtor$15@?0??HandleOKCallback@PipelineWorker@@UEAAXXZ@4HA 000000018002d752 f   pipeline.obj
 0001:0002c760       ?dtor$17@?0??HandleOKCallback@PipelineWorker@@UEAAXXZ@4HA 000000018002d760 f   pipeline.obj
 0001:0002c76e       ?dtor$18@?0??HandleOKCallback@PipelineWorker@@UEAAXXZ@4HA 000000018002d76e f   pipeline.obj
 0001:0002c77c       ?dtor$20@?0??HandleOKCallback@PipelineWorker@@UEAAXXZ@4HA 000000018002d77c f   pipeline.obj
 0001:0002c78a       ?dtor$22@?0??HandleOKCallback@PipelineWorker@@UEAAXXZ@4HA 000000018002d78a f   pipeline.obj
 0001:0002c798       ?dtor$24@?0??HandleOKCallback@PipelineWorker@@UEAAXXZ@4HA 000000018002d798 f   pipeline.obj
 0001:0002c7a6       ?dtor$25@?0??HandleOKCallback@PipelineWorker@@UEAAXXZ@4HA 000000018002d7a6 f   pipeline.obj
 0001:0002c7b4       ?dtor$27@?0??HandleOKCallback@PipelineWorker@@UEAAXXZ@4HA 000000018002d7b4 f   pipeline.obj
 0001:0002c7c2       ?dtor$28@?0??HandleOKCallback@PipelineWorker@@UEAAXXZ@4HA 000000018002d7c2 f   pipeline.obj
 0001:0002c7d0       ?dtor$0@?0??CalculateRotationAndFlip@PipelineWorker@@AEAA?AV?$tuple@W4VipsAngle@@_N_N@std@@HVVImage@vips@@@Z@4HA 000000018002d7d0 f   pipeline.obj
 0001:0002c7e0       ?dtor$0@?0??pipeline@@YAXAEBV?$FunctionCallbackInfo@VValue@v8@@@Nan@@@Z@4HA 000000018002d7e0 f   pipeline.obj
 0001:0002c7ec       ?dtor$2@?0??pipeline@@YAXAEBV?$FunctionCallbackInfo@VValue@v8@@@Nan@@@Z@4HA 000000018002d7ec f   pipeline.obj
 0001:0002c7f8       ?dtor$19@?0??pipeline@@YAXAEBV?$FunctionCallbackInfo@VValue@v8@@@Nan@@@Z@4HA 000000018002d7f8 f   pipeline.obj
 0001:0002c804       ?dtor$112@?0??pipeline@@YAXAEBV?$FunctionCallbackInfo@VValue@v8@@@Nan@@@Z@4HA 000000018002d804 f   pipeline.obj
 0001:0002c812       ?dtor$114@?0??pipeline@@YAXAEBV?$FunctionCallbackInfo@VValue@v8@@@Nan@@@Z@4HA 000000018002d812 f   pipeline.obj
 0001:0002c820       ?dtor$22@?0??pipeline@@YAXAEBV?$FunctionCallbackInfo@VValue@v8@@@Nan@@@Z@4HA 000000018002d820 f   pipeline.obj
 0001:0002c82c       ?dtor$123@?0??pipeline@@YAXAEBV?$FunctionCallbackInfo@VValue@v8@@@Nan@@@Z@4HA 000000018002d82c f   pipeline.obj
 0001:0002c83a       ?dtor$37@?0??pipeline@@YAXAEBV?$FunctionCallbackInfo@VValue@v8@@@Nan@@@Z@4HA 000000018002d83a f   pipeline.obj
 0001:0002c846       ?dtor$125@?0??pipeline@@YAXAEBV?$FunctionCallbackInfo@VValue@v8@@@Nan@@@Z@4HA 000000018002d846 f   pipeline.obj
 0001:0002c854       ?dtor$60@?0??pipeline@@YAXAEBV?$FunctionCallbackInfo@VValue@v8@@@Nan@@@Z@4HA 000000018002d854 f   pipeline.obj
 0001:0002c860       ?dtor$135@?0??pipeline@@YAXAEBV?$FunctionCallbackInfo@VValue@v8@@@Nan@@@Z@4HA 000000018002d860 f   pipeline.obj
 0001:0002c86c       ?dtor$137@?0??pipeline@@YAXAEBV?$FunctionCallbackInfo@VValue@v8@@@Nan@@@Z@4HA 000000018002d86c f   pipeline.obj
 0001:0002c87a       ?dtor$143@?0??pipeline@@YAXAEBV?$FunctionCallbackInfo@VValue@v8@@@Nan@@@Z@4HA 000000018002d87a f   pipeline.obj
 0001:0002c888       ?dtor$145@?0??pipeline@@YAXAEBV?$FunctionCallbackInfo@VValue@v8@@@Nan@@@Z@4HA 000000018002d888 f   pipeline.obj
 0001:0002c896       ?dtor$94@?0??pipeline@@YAXAEBV?$FunctionCallbackInfo@VValue@v8@@@Nan@@@Z@4HA 000000018002d896 f   pipeline.obj
 0001:0002c8a2       ?dtor$96@?0??pipeline@@YAXAEBV?$FunctionCallbackInfo@VValue@v8@@@Nan@@@Z@4HA 000000018002d8a2 f   pipeline.obj
 0001:0002c8ae       ?dtor$97@?0??pipeline@@YAXAEBV?$FunctionCallbackInfo@VValue@v8@@@Nan@@@Z@4HA 000000018002d8ae f   pipeline.obj
 0001:0002c8cb       ?dtor$99@?0??pipeline@@YAXAEBV?$FunctionCallbackInfo@VValue@v8@@@Nan@@@Z@4HA 000000018002d8cb f   pipeline.obj
 0001:0002c8e8       ?dtor$100@?0??pipeline@@YAXAEBV?$FunctionCallbackInfo@VValue@v8@@@Nan@@@Z@4HA 000000018002d8e8 f   pipeline.obj
 0001:0002c910       ?dtor$0@?0???$?HDU?$char_traits@D@std@@V?$allocator@D@1@@std@@YA?AV?$basic_string@DU?$char_traits@D@std@@V?$allocator@D@2@@0@AEBV10@QEBD@Z@4HA 000000018002d910 f   pipeline.obj
 0001:0002c940       ?dtor$0@?0???$AttrTo@N@sharp@@YANV?$Local@VObject@v8@@@v8@@V?$basic_string@DU?$char_traits@D@std@@V?$allocator@D@2@@std@@@Z@4HA 000000018002d940 f   pipeline.obj
 0001:0002c94c       ?dtor$2@?0???$AttrTo@N@sharp@@YANV?$Local@VObject@v8@@@v8@@V?$basic_string@DU?$char_traits@D@std@@V?$allocator@D@2@@std@@@Z@4HA 000000018002d94c f   pipeline.obj
 0001:0002c95a       ?dtor$4@?0???$AttrTo@N@sharp@@YANV?$Local@VObject@v8@@@v8@@V?$basic_string@DU?$char_traits@D@std@@V?$allocator@D@2@@std@@@Z@4HA 000000018002d95a f   pipeline.obj
 0001:0002c970       ?dtor$0@?0??init@@YAXV?$Local@VObject@v8@@@v8@@@Z@4HA 000000018002d970 f   sharp.obj
 0001:0002c97e       ?dtor$2@?0??init@@YAXV?$Local@VObject@v8@@@v8@@@Z@4HA 000000018002d97e f   sharp.obj
 0001:0002c98c       ?dtor$3@?0??init@@YAXV?$Local@VObject@v8@@@v8@@@Z@4HA 000000018002d98c f   sharp.obj
 0001:0002c99a       ?dtor$5@?0??init@@YAXV?$Local@VObject@v8@@@v8@@@Z@4HA 000000018002d99a f   sharp.obj
 0001:0002c9a8       ?dtor$6@?0??init@@YAXV?$Local@VObject@v8@@@v8@@@Z@4HA 000000018002d9a8 f   sharp.obj
 0001:0002c9b6       ?dtor$8@?0??init@@YAXV?$Local@VObject@v8@@@v8@@@Z@4HA 000000018002d9b6 f   sharp.obj
 0001:0002c9c4       ?dtor$9@?0??init@@YAXV?$Local@VObject@v8@@@v8@@@Z@4HA 000000018002d9c4 f   sharp.obj
 0001:0002c9d2       ?dtor$11@?0??init@@YAXV?$Local@VObject@v8@@@v8@@@Z@4HA 000000018002d9d2 f   sharp.obj
 0001:0002c9e0       ?dtor$12@?0??init@@YAXV?$Local@VObject@v8@@@v8@@@Z@4HA 000000018002d9e0 f   sharp.obj
 0001:0002c9ee       ?dtor$14@?0??init@@YAXV?$Local@VObject@v8@@@v8@@@Z@4HA 000000018002d9ee f   sharp.obj
 0001:0002c9fc       ?dtor$15@?0??init@@YAXV?$Local@VObject@v8@@@v8@@@Z@4HA 000000018002d9fc f   sharp.obj
 0001:0002ca0a       ?dtor$17@?0??init@@YAXV?$Local@VObject@v8@@@v8@@@Z@4HA 000000018002da0a f   sharp.obj
 0001:0002ca18       ?dtor$18@?0??init@@YAXV?$Local@VObject@v8@@@v8@@@Z@4HA 000000018002da18 f   sharp.obj
 0001:0002ca26       ?dtor$20@?0??init@@YAXV?$Local@VObject@v8@@@v8@@@Z@4HA 000000018002da26 f   sharp.obj
 0001:0002ca34       ?dtor$21@?0??init@@YAXV?$Local@VObject@v8@@@v8@@@Z@4HA 000000018002da34 f   sharp.obj
 0001:0002ca42       ?dtor$23@?0??init@@YAXV?$Local@VObject@v8@@@v8@@@Z@4HA 000000018002da42 f   sharp.obj
 0001:0002ca50       ?dtor$24@?0??init@@YAXV?$Local@VObject@v8@@@v8@@@Z@4HA 000000018002da50 f   sharp.obj
 0001:0002ca5e       ?dtor$26@?0??init@@YAXV?$Local@VObject@v8@@@v8@@@Z@4HA 000000018002da5e f   sharp.obj
 0001:0002ca70       ?dtor$0@?0???$New@VFunctionTemplate@v8@@@Nan@@YA?AV?$Local@VFunctionTemplate@v8@@@v8@@P6AXAEBV?$FunctionCallbackInfo@VValue@v8@@@0@@ZV?$Local@VValue@v8@@@2@@Z@4HA 000000018002da70 f   sharp.obj
 0001:0002ca7e       ?dtor$1@?0???$New@VFunctionTemplate@v8@@@Nan@@YA?AV?$Local@VFunctionTemplate@v8@@@v8@@P6AXAEBV?$FunctionCallbackInfo@VValue@v8@@@0@@ZV?$Local@VValue@v8@@@2@@Z@4HA 000000018002da7e f   sharp.obj
 0001:0002ca90       ?dtor$3@?0??cache@@YAXAEBV?$FunctionCallbackInfo@VValue@v8@@@Nan@@@Z@4HA 000000018002da90 f   utilities.obj
 0001:0002ca9e       ?dtor$4@?0??cache@@YAXAEBV?$FunctionCallbackInfo@VValue@v8@@@Nan@@@Z@4HA 000000018002da9e f   utilities.obj
 0001:0002caac       ?dtor$5@?0??cache@@YAXAEBV?$FunctionCallbackInfo@VValue@v8@@@Nan@@@Z@4HA 000000018002daac f   utilities.obj
 0001:0002caba       ?dtor$6@?0??cache@@YAXAEBV?$FunctionCallbackInfo@VValue@v8@@@Nan@@@Z@4HA 000000018002daba f   utilities.obj
 0001:0002cac8       ?dtor$8@?0??cache@@YAXAEBV?$FunctionCallbackInfo@VValue@v8@@@Nan@@@Z@4HA 000000018002dac8 f   utilities.obj
 0001:0002cad6       ?dtor$9@?0??cache@@YAXAEBV?$FunctionCallbackInfo@VValue@v8@@@Nan@@@Z@4HA 000000018002dad6 f   utilities.obj
 0001:0002cae4       ?dtor$11@?0??cache@@YAXAEBV?$FunctionCallbackInfo@VValue@v8@@@Nan@@@Z@4HA 000000018002dae4 f   utilities.obj
 0001:0002caf2       ?dtor$12@?0??cache@@YAXAEBV?$FunctionCallbackInfo@VValue@v8@@@Nan@@@Z@4HA 000000018002daf2 f   utilities.obj
 0001:0002cb00       ?dtor$14@?0??cache@@YAXAEBV?$FunctionCallbackInfo@VValue@v8@@@Nan@@@Z@4HA 000000018002db00 f   utilities.obj
 0001:0002cb0e       ?dtor$15@?0??cache@@YAXAEBV?$FunctionCallbackInfo@VValue@v8@@@Nan@@@Z@4HA 000000018002db0e f   utilities.obj
 0001:0002cb1c       ?dtor$17@?0??cache@@YAXAEBV?$FunctionCallbackInfo@VValue@v8@@@Nan@@@Z@4HA 000000018002db1c f   utilities.obj
 0001:0002cb2a       ?dtor$18@?0??cache@@YAXAEBV?$FunctionCallbackInfo@VValue@v8@@@Nan@@@Z@4HA 000000018002db2a f   utilities.obj
 0001:0002cb38       ?dtor$20@?0??cache@@YAXAEBV?$FunctionCallbackInfo@VValue@v8@@@Nan@@@Z@4HA 000000018002db38 f   utilities.obj
 0001:0002cb46       ?dtor$21@?0??cache@@YAXAEBV?$FunctionCallbackInfo@VValue@v8@@@Nan@@@Z@4HA 000000018002db46 f   utilities.obj
 0001:0002cb54       ?dtor$23@?0??cache@@YAXAEBV?$FunctionCallbackInfo@VValue@v8@@@Nan@@@Z@4HA 000000018002db54 f   utilities.obj
 0001:0002cb62       ?dtor$24@?0??cache@@YAXAEBV?$FunctionCallbackInfo@VValue@v8@@@Nan@@@Z@4HA 000000018002db62 f   utilities.obj
 0001:0002cb70       ?dtor$26@?0??cache@@YAXAEBV?$FunctionCallbackInfo@VValue@v8@@@Nan@@@Z@4HA 000000018002db70 f   utilities.obj
 0001:0002cb7e       ?dtor$27@?0??cache@@YAXAEBV?$FunctionCallbackInfo@VValue@v8@@@Nan@@@Z@4HA 000000018002db7e f   utilities.obj
 0001:0002cb8c       ?dtor$28@?0??cache@@YAXAEBV?$FunctionCallbackInfo@VValue@v8@@@Nan@@@Z@4HA 000000018002db8c f   utilities.obj
 0001:0002cb9a       ?dtor$29@?0??cache@@YAXAEBV?$FunctionCallbackInfo@VValue@v8@@@Nan@@@Z@4HA 000000018002db9a f   utilities.obj
 0001:0002cbb0       ?dtor$3@?0??concurrency@@YAXAEBV?$FunctionCallbackInfo@VValue@v8@@@Nan@@@Z@4HA 000000018002dbb0 f   utilities.obj
 0001:0002cbbe       ?dtor$4@?0??concurrency@@YAXAEBV?$FunctionCallbackInfo@VValue@v8@@@Nan@@@Z@4HA 000000018002dbbe f   utilities.obj
 0001:0002cbd0       ?dtor$3@?0??counters@@YAXAEBV?$FunctionCallbackInfo@VValue@v8@@@Nan@@@Z@4HA 000000018002dbd0 f   utilities.obj
 0001:0002cbde       ?dtor$5@?0??counters@@YAXAEBV?$FunctionCallbackInfo@VValue@v8@@@Nan@@@Z@4HA 000000018002dbde f   utilities.obj
 0001:0002cbec       ?dtor$6@?0??counters@@YAXAEBV?$FunctionCallbackInfo@VValue@v8@@@Nan@@@Z@4HA 000000018002dbec f   utilities.obj
 0001:0002cbfa       ?dtor$8@?0??counters@@YAXAEBV?$FunctionCallbackInfo@VValue@v8@@@Nan@@@Z@4HA 000000018002dbfa f   utilities.obj
 0001:0002cc10       ?dtor$3@?0??simd@@YAXAEBV?$FunctionCallbackInfo@VValue@v8@@@Nan@@@Z@4HA 000000018002dc10 f   utilities.obj
 0001:0002cc20       ?dtor$1@?0??format@@YAXAEBV?$FunctionCallbackInfo@VValue@v8@@@Nan@@@Z@4HA 000000018002dc20 f   utilities.obj
 0001:0002cc2c       ?dtor$8@?0??format@@YAXAEBV?$FunctionCallbackInfo@VValue@v8@@@Nan@@@Z@4HA 000000018002dc2c f   utilities.obj
 0001:0002cc55       ?dtor$14@?0??format@@YAXAEBV?$FunctionCallbackInfo@VValue@v8@@@Nan@@@Z@4HA 000000018002dc55 f   utilities.obj
 0001:0002cc7e       ?dtor$20@?0??format@@YAXAEBV?$FunctionCallbackInfo@VValue@v8@@@Nan@@@Z@4HA 000000018002dc7e f   utilities.obj
 0001:0002cc8c       ?dtor$21@?0??format@@YAXAEBV?$FunctionCallbackInfo@VValue@v8@@@Nan@@@Z@4HA 000000018002dc8c f   utilities.obj
 0001:0002cc9a       ?dtor$22@?0??format@@YAXAEBV?$FunctionCallbackInfo@VValue@v8@@@Nan@@@Z@4HA 000000018002dc9a f   utilities.obj
 0001:0002cca8       ?dtor$23@?0??format@@YAXAEBV?$FunctionCallbackInfo@VValue@v8@@@Nan@@@Z@4HA 000000018002dca8 f   utilities.obj
 0001:0002ccd1       ?dtor$29@?0??format@@YAXAEBV?$FunctionCallbackInfo@VValue@v8@@@Nan@@@Z@4HA 000000018002dcd1 f   utilities.obj
 0001:0002ccfa       ?dtor$35@?0??format@@YAXAEBV?$FunctionCallbackInfo@VValue@v8@@@Nan@@@Z@4HA 000000018002dcfa f   utilities.obj
 0001:0002cd08       ?dtor$36@?0??format@@YAXAEBV?$FunctionCallbackInfo@VValue@v8@@@Nan@@@Z@4HA 000000018002dd08 f   utilities.obj
 0001:0002cd16       ?dtor$37@?0??format@@YAXAEBV?$FunctionCallbackInfo@VValue@v8@@@Nan@@@Z@4HA 000000018002dd16 f   utilities.obj
 0001:0002cd24       ?dtor$39@?0??format@@YAXAEBV?$FunctionCallbackInfo@VValue@v8@@@Nan@@@Z@4HA 000000018002dd24 f   utilities.obj
 0001:0002cd32       ?dtor$40@?0??format@@YAXAEBV?$FunctionCallbackInfo@VValue@v8@@@Nan@@@Z@4HA 000000018002dd32 f   utilities.obj
 0001:0002cd40       ?dtor$41@?0??format@@YAXAEBV?$FunctionCallbackInfo@VValue@v8@@@Nan@@@Z@4HA 000000018002dd40 f   utilities.obj
 0001:0002cd4e       ?dtor$42@?0??format@@YAXAEBV?$FunctionCallbackInfo@VValue@v8@@@Nan@@@Z@4HA 000000018002dd4e f   utilities.obj
 0001:0002cd5c       ?dtor$47@?0??format@@YAXAEBV?$FunctionCallbackInfo@VValue@v8@@@Nan@@@Z@4HA 000000018002dd5c f   utilities.obj
 0001:0002cd6a       ?dtor$48@?0??format@@YAXAEBV?$FunctionCallbackInfo@VValue@v8@@@Nan@@@Z@4HA 000000018002dd6a f   utilities.obj
 0001:0002cd78       ?dtor$49@?0??format@@YAXAEBV?$FunctionCallbackInfo@VValue@v8@@@Nan@@@Z@4HA 000000018002dd78 f   utilities.obj
 0001:0002cd86       ?dtor$50@?0??format@@YAXAEBV?$FunctionCallbackInfo@VValue@v8@@@Nan@@@Z@4HA 000000018002dd86 f   utilities.obj
 0001:0002cd94       ?dtor$51@?0??format@@YAXAEBV?$FunctionCallbackInfo@VValue@v8@@@Nan@@@Z@4HA 000000018002dd94 f   utilities.obj
 0001:0002cda2       ?dtor$52@?0??format@@YAXAEBV?$FunctionCallbackInfo@VValue@v8@@@Nan@@@Z@4HA 000000018002dda2 f   utilities.obj
 0001:0002cdb0       ?dtor$53@?0??format@@YAXAEBV?$FunctionCallbackInfo@VValue@v8@@@Nan@@@Z@4HA 000000018002ddb0 f   utilities.obj
 0001:0002cdbe       ?dtor$54@?0??format@@YAXAEBV?$FunctionCallbackInfo@VValue@v8@@@Nan@@@Z@4HA 000000018002ddbe f   utilities.obj
 0001:0002cdcc       ?dtor$55@?0??format@@YAXAEBV?$FunctionCallbackInfo@VValue@v8@@@Nan@@@Z@4HA 000000018002ddcc f   utilities.obj
 0001:0002cdda       ?dtor$56@?0??format@@YAXAEBV?$FunctionCallbackInfo@VValue@v8@@@Nan@@@Z@4HA 000000018002ddda f   utilities.obj
 0001:0002cdf0       ?dtor$1@?0??_maxColourDistance@@YAXAEBV?$FunctionCallbackInfo@VValue@v8@@@Nan@@@Z@4HA 000000018002ddf0 f   utilities.obj
 0001:0002cdfe       ?dtor$2@?0??_maxColourDistance@@YAXAEBV?$FunctionCallbackInfo@VValue@v8@@@Nan@@@Z@4HA 000000018002ddfe f   utilities.obj
 0001:0002ce0a       ?dtor$3@?0??_maxColourDistance@@YAXAEBV?$FunctionCallbackInfo@VValue@v8@@@Nan@@@Z@4HA 000000018002de0a f   utilities.obj
 0001:0002ce16       ?dtor$4@?0??_maxColourDistance@@YAXAEBV?$FunctionCallbackInfo@VValue@v8@@@Nan@@@Z@4HA 000000018002de16 f   utilities.obj
 0001:0002ce24       ?catch$22@?0??_maxColourDistance@@YAXAEBV?$FunctionCallbackInfo@VValue@v8@@@Nan@@@Z@4HA 000000018002de24 f   utilities.obj
 0001:0002ce31       __catch$?_maxColourDistance@@YAXAEBV?$FunctionCallbackInfo@VValue@v8@@@Nan@@@Z$0 000000018002de31 f   utilities.obj
 0001:0002ce4c       ?dtor$5@?0??_maxColourDistance@@YAXAEBV?$FunctionCallbackInfo@VValue@v8@@@Nan@@@Z@4HA 000000018002de4c f   utilities.obj
 0001:0002ce5a       ?dtor$6@?0??_maxColourDistance@@YAXAEBV?$FunctionCallbackInfo@VValue@v8@@@Nan@@@Z@4HA 000000018002de5a f   utilities.obj
 0001:0002ce66       ?dtor$7@?0??_maxColourDistance@@YAXAEBV?$FunctionCallbackInfo@VValue@v8@@@Nan@@@Z@4HA 000000018002de66 f   utilities.obj
 0001:0002ce72       ?dtor$8@?0??_maxColourDistance@@YAXAEBV?$FunctionCallbackInfo@VValue@v8@@@Nan@@@Z@4HA 000000018002de72 f   utilities.obj
 0001:0002ce80       ?catch$21@?0??_maxColourDistance@@YAXAEBV?$FunctionCallbackInfo@VValue@v8@@@Nan@@@Z@4HA 000000018002de80 f   utilities.obj
 0001:0002ce8d       __catch$?_maxColourDistance@@YAXAEBV?$FunctionCallbackInfo@VValue@v8@@@Nan@@@Z$2 000000018002de8d f   utilities.obj
 0001:0002cea8       ?dtor$10@?0??_maxColourDistance@@YAXAEBV?$FunctionCallbackInfo@VValue@v8@@@Nan@@@Z@4HA 000000018002dea8 f   utilities.obj
 0001:0002ceb6       ?dtor$11@?0??_maxColourDistance@@YAXAEBV?$FunctionCallbackInfo@VValue@v8@@@Nan@@@Z@4HA 000000018002deb6 f   utilities.obj
 0001:0002cec4       ?dtor$13@?0??_maxColourDistance@@YAXAEBV?$FunctionCallbackInfo@VValue@v8@@@Nan@@@Z@4HA 000000018002dec4 f   utilities.obj
 0001:0002ced2       ?dtor$14@?0??_maxColourDistance@@YAXAEBV?$FunctionCallbackInfo@VValue@v8@@@Nan@@@Z@4HA 000000018002ded2 f   utilities.obj
 0001:0002cee0       ?dtor$16@?0??_maxColourDistance@@YAXAEBV?$FunctionCallbackInfo@VValue@v8@@@Nan@@@Z@4HA 000000018002dee0 f   utilities.obj
 0001:0002ceee       ?catch$20@?0??_maxColourDistance@@YAXAEBV?$FunctionCallbackInfo@VValue@v8@@@Nan@@@Z@4HA 000000018002deee f   utilities.obj
 0001:0002cefb       __catch$?_maxColourDistance@@YAXAEBV?$FunctionCallbackInfo@VValue@v8@@@Nan@@@Z$4 000000018002defb f   utilities.obj
 0001:0002cf27       ?dtor$17@?0??_maxColourDistance@@YAXAEBV?$FunctionCallbackInfo@VValue@v8@@@Nan@@@Z@4HA 000000018002df27 f   utilities.obj
 0001:0002cf35       ?fin$0@?0??dllmain_crt_process_attach@@YAHQEAUHINSTANCE__@@QEAX@Z@4HA 000000018002df35 f   LIBCMT:dll_dllmain.obj
 0001:0002cf4c       ?fin$0@?0??dllmain_crt_process_detach@@YAH_N@Z@4HA 000000018002df4c f   LIBCMT:dll_dllmain.obj
 0001:0002cf68       ?filt$0@?0??dllmain_dispatch@@YAHQEAUHINSTANCE__@@KQEAX@Z@4HA 000000018002df68 f   LIBCMT:dll_dllmain.obj
 0001:0002cf9e       __scrt_is_nonwritable_in_current_image$filt$0 000000018002df9e f   LIBCMT:utility.obj
 0001:0002cfb6       ?filt$0@?0???$_CallSETranslator@V__FrameHandler3@@@@YAHPEAUEHExceptionRecord@@PEA_KPEAU_CONTEXT@@PEAU_xDISPATCHER_CONTEXT@@PEBU_s_FuncInfo@@K1@Z@4HA 000000018002dfb6 f   libvcruntime:risctrnsctrl.obj
 0001:0002d047       __DestructExceptionObject$filt$0 000000018002e047 f   libvcruntime:ehhelpers.obj
 0001:0002d05f       ?filt$0@?0??CxxCallCatchBlock@__FrameHandler3@@SAPEAXPEAU_EXCEPTION_RECORD@@@Z@4HA 000000018002e05f f   libvcruntime:frame.obj
 0001:0002d084       ?fin$1@?0??CxxCallCatchBlock@__FrameHandler3@@SAPEAXPEAU_EXCEPTION_RECORD@@@Z@4HA 000000018002e084 f   libvcruntime:frame.obj
 0001:0002d0fc       ?filt$0@?0??FrameUnwindToState@__FrameHandler3@@SAXPEA_KPEAU_xDISPATCHER_CONTEXT@@PEBU_s_FuncInfo@@H@Z@4HA 000000018002e0fc f   libvcruntime:frame.obj
 0001:0002d112       ?fin$1@?0??FrameUnwindToState@__FrameHandler3@@SAXPEA_KPEAU_xDISPATCHER_CONTEXT@@PEBU_s_FuncInfo@@H@Z@4HA 000000018002e112 f   libvcruntime:frame.obj
 0001:0002d135       _query_new_handler$fin$0   000000018002e135 f   libucrt:new_handler.obj
 0001:0002d14b       ?fin$0@?0???$?RV<lambda_450d765d439847d4c735a33c368b5fc0>@@AEAV<lambda_44731a7d0e6d81c3e6aa82d741081786>@@V<lambda_601a2a7da3b7a96e9554ac7215c4b07c>@@@?$__crt_seh_guarded_call@P6AXH@Z@@QEAAP6AXH@Z$$QEAV<lambda_450d765d439847d4c735a33c368b5fc0>@@AEAV<lambda_44731a7d0e6d81c3e6aa82d741081786>@@$$QEAV<lambda_601a2a7da3b7a96e9554ac7215c4b07c>@@@Z@4HA 000000018002e14b f   libucrt:signal.obj
 0001:0002d14b       ?fin$0@?0???$?RV<lambda_aa87e3671a710a21b5dc78c0bdf72e11>@@AEAV<lambda_92619d2358a28f41a33ba319515a20b9>@@V<lambda_6992ecaafeb10aed2b74cb1fae11a551>@@@?$__crt_seh_guarded_call@X@@QEAAX$$QEAV<lambda_aa87e3671a710a21b5dc78c0bdf72e11>@@AEAV<lambda_92619d2358a28f41a33ba319515a20b9>@@$$QEAV<lambda_6992ecaafeb10aed2b74cb1fae11a551>@@@Z@4HA 000000018002e14b f   libucrt:per_thread_data.obj
 0001:0002d14b       ?fin$0@?0???$?RV<lambda_efdfa57d1f175319df784efa44bb7b81>@@AEAV<lambda_5f0a4c1567f8adc6734073e5d1e1b35c>@@V<lambda_2e8a7d3640ea6ccb4c2413664c2db6fd>@@@?$__crt_seh_guarded_call@X@@QEAAX$$QEAV<lambda_efdfa57d1f175319df784efa44bb7b81>@@AEAV<lambda_5f0a4c1567f8adc6734073e5d1e1b35c>@@$$QEAV<lambda_2e8a7d3640ea6ccb4c2413664c2db6fd>@@@Z@4HA 000000018002e14b f   libucrt:mbctype.obj
 0001:0002d14b       ?fin$0@?0???$?RV<lambda_f2e299630e499de9f9a165e60fcd3db5>@@AEAV<lambda_2ae9d31cdba2644fcbeaf08da7c24588>@@V<lambda_40d01ff24d0e7b3814fdbdcee8eab3c7>@@@?$__crt_seh_guarded_call@X@@QEAAX$$QEAV<lambda_f2e299630e499de9f9a165e60fcd3db5>@@AEAV<lambda_2ae9d31cdba2644fcbeaf08da7c24588>@@$$QEAV<lambda_40d01ff24d0e7b3814fdbdcee8eab3c7>@@@Z@4HA 000000018002e14b f   libucrt:per_thread_data.obj
 0001:0002d14b       ?fin$0@?0???$?RV<lambda_d80eeec6fff315bfe5c115232f3240e3>@@AEAV<lambda_6e4b09c48022b2350581041d5f6b0c4c>@@V<lambda_2358e3775559c9db80273638284d5e45>@@@?$__crt_seh_guarded_call@X@@QEAAX$$QEAV<lambda_d80eeec6fff315bfe5c115232f3240e3>@@AEAV<lambda_6e4b09c48022b2350581041d5f6b0c4c>@@$$QEAV<lambda_2358e3775559c9db80273638284d5e45>@@@Z@4HA 000000018002e14b f   libucrt:exit.obj
 0001:0002d14b       ?fin$0@?0???$?RV<lambda_7777bce6b2f8c936911f934f8298dc43>@@AEAV<lambda_f03950bc5685219e0bcd2087efbe011e>@@V<lambda_3883c3dff614d5e0c5f61bb1ac94921c>@@@?$__crt_seh_guarded_call@H@@QEAAH$$QEAV<lambda_7777bce6b2f8c936911f934f8298dc43>@@AEAV<lambda_f03950bc5685219e0bcd2087efbe011e>@@$$QEAV<lambda_3883c3dff614d5e0c5f61bb1ac94921c>@@@Z@4HA 000000018002e14b f   libucrt:onexit.obj
 0001:0002d14b       ?fin$0@?0???$?RV<lambda_2d41944a1d46af3157314b8a01080d33>@@AEAV<lambda_8f455de75cd7d7f24b4096f044d8b9e6>@@V<lambda_aa500f224e6afead328df44964fe2772>@@@?$__crt_seh_guarded_call@X@@QEAAX$$QEAV<lambda_2d41944a1d46af3157314b8a01080d33>@@AEAV<lambda_8f455de75cd7d7f24b4096f044d8b9e6>@@$$QEAV<lambda_aa500f224e6afead328df44964fe2772>@@@Z@4HA 000000018002e14b f   libucrt:per_thread_data.obj
 0001:0002d14b       ?fin$0@?0???$?RV<lambda_0ae27a3a962d80f24befdcbee591983d>@@AEAV<lambda_8d0ee55de4b1038c4002e0adecdf1839>@@V<lambda_dc504788e8f1664fe9b84e20bfb512f2>@@@?$__crt_seh_guarded_call@X@@QEAAX$$QEAV<lambda_0ae27a3a962d80f24befdcbee591983d>@@AEAV<lambda_8d0ee55de4b1038c4002e0adecdf1839>@@$$QEAV<lambda_dc504788e8f1664fe9b84e20bfb512f2>@@@Z@4HA 000000018002e14b f   libucrt:per_thread_data.obj
 0001:0002d165       ?filt$0@?0???R<lambda_6e4b09c48022b2350581041d5f6b0c4c>@@QEBA@XZ@4HA 000000018002e165 f   libucrt:exit.obj
 0001:0002d180       ?fin$0@?0???$?RV<lambda_842d9ff0dc9ef11c61343bbaebe7f885>@@AEAV<lambda_c5860995281e5c4ce005b3de8f5874ee>@@V<lambda_d90129c13df834fdcbf8d2b88dafcf2d>@@@?$__crt_seh_guarded_call@X@@QEAAX$$QEAV<lambda_842d9ff0dc9ef11c61343bbaebe7f885>@@AEAV<lambda_c5860995281e5c4ce005b3de8f5874ee>@@$$QEAV<lambda_d90129c13df834fdcbf8d2b88dafcf2d>@@@Z@4HA 000000018002e180 f   libucrt:fflush.obj
 0001:0002d180       ?fin$0@?0???$?RV<lambda_0d412022a4b28cc8a401ea49574e8ae6>@@AEAV<lambda_a775ed57af18ba8e4d5dc780aa9068fe>@@V<lambda_975a71a6baa488a08f4e15f6b0339b9e>@@@?$__crt_seh_guarded_call@H@@QEAAH$$QEAV<lambda_0d412022a4b28cc8a401ea49574e8ae6>@@AEAV<lambda_a775ed57af18ba8e4d5dc780aa9068fe>@@$$QEAV<lambda_975a71a6baa488a08f4e15f6b0339b9e>@@@Z@4HA 000000018002e180 f   libucrt:output.obj
 0001:0002d180       ?fin$0@?0???$?RV<lambda_c376a267cfb53b6959b3b692ec76b120>@@AEAV<lambda_9a32fed5bf61b6b509b2d3f6003082a1>@@V<lambda_572fbb9fa0ab338edf41edfd4b5fcc8d>@@@?$__crt_seh_guarded_call@H@@QEAAH$$QEAV<lambda_c376a267cfb53b6959b3b692ec76b120>@@AEAV<lambda_9a32fed5bf61b6b509b2d3f6003082a1>@@$$QEAV<lambda_572fbb9fa0ab338edf41edfd4b5fcc8d>@@@Z@4HA 000000018002e180 f   libucrt:fflush.obj
 0001:0002d180       ?fin$0@?0???$?RV<lambda_84ec643ea9557e2f7dc01bb0e9624395>@@AEAV<lambda_ca71763b3c0644891230e4f79ea54fa6>@@V<lambda_439a761618c59b0600e24586724d733b>@@@?$__crt_seh_guarded_call@H@@QEAAH$$QEAV<lambda_84ec643ea9557e2f7dc01bb0e9624395>@@AEAV<lambda_ca71763b3c0644891230e4f79ea54fa6>@@$$QEAV<lambda_439a761618c59b0600e24586724d733b>@@@Z@4HA 000000018002e180 f   libucrt:setvbuf.obj
 0001:0002d19b       ?fin$0@?0???$?RV<lambda_410d79af7f07d98d83a3f525b3859a53>@@AEAV<lambda_3e16ef9562a7dcce91392c22ab16ea36>@@V<lambda_38119f0e861e05405d8a144b9b982f0a>@@@?$__crt_seh_guarded_call@X@@QEAAX$$QEAV<lambda_410d79af7f07d98d83a3f525b3859a53>@@AEAV<lambda_3e16ef9562a7dcce91392c22ab16ea36>@@$$QEAV<lambda_38119f0e861e05405d8a144b9b982f0a>@@@Z@4HA 000000018002e19b f   libucrt:wsetlocale.obj
 0001:0002d1b5       ?fin$0@?0???$?RV<lambda_886d6c58226a84441f68b9f2b8217b83>@@AEAV<lambda_ab61a845afdef5b7c387490eaf3616ee>@@V<lambda_f7f22ab5edc0698d5f6905b0d3f44752>@@@?$__crt_seh_guarded_call@X@@QEAAX$$QEAV<lambda_886d6c58226a84441f68b9f2b8217b83>@@AEAV<lambda_ab61a845afdef5b7c387490eaf3616ee>@@$$QEAV<lambda_f7f22ab5edc0698d5f6905b0d3f44752>@@@Z@4HA 000000018002e1b5 f   libucrt:fflush.obj
 0001:0002d1d2       raise$fin$0                000000018002e1d2 f   libucrt:signal.obj
 0001:0002d1f3       ?fin$0@?0??update_thread_multibyte_data_internal@@YAPEAU__crt_multibyte_data@@QEAU__acrt_ptd@@QEAPEAU1@@Z@4HA 000000018002e1f3 f   libucrt:mbctype.obj
 0001:0002d20c       __acrt_lowio_ensure_fh_exists$fin$0 000000018002e20c f   libucrt:osfinfo.obj
 0001:0002d20c       __acrt_initialize_lowio$fin$0 000000018002e20c f   libucrt:ioinit.obj
 0001:0002d225       __acrt_update_thread_locale_data$fin$0 000000018002e225 f   libucrt:locale_refcounting.obj
 0001:0002d23e       _fcloseall$fin$0           000000018002e23e f   libucrt:closeall.obj
 0001:0002d257       ?fin$0@?0???$?RV<lambda_751a882b2c74d4b022dec766aa51a29a>@@AEAV<lambda_628dfdc04ba53c8bfc02c9951375f3f5>@@V<lambda_f6c7be5f7998530c34de24c7437d6b54>@@@?$__crt_seh_guarded_call@H@@QEAAH$$QEAV<lambda_751a882b2c74d4b022dec766aa51a29a>@@AEAV<lambda_628dfdc04ba53c8bfc02c9951375f3f5>@@$$QEAV<lambda_f6c7be5f7998530c34de24c7437d6b54>@@@Z@4HA 000000018002e257 f   libucrt:close.obj
 0001:0002d257       ?fin$0@?0???$?RV<lambda_a37b2b86f63e897a80ea819b0eb08c01>@@AEAV<lambda_38ce7e780aa69e748d6df282ebc68efe>@@V<lambda_99fb1378e971ab6e7edea83e3a7a83a2>@@@?$__crt_seh_guarded_call@H@@QEAAH$$QEAV<lambda_a37b2b86f63e897a80ea819b0eb08c01>@@AEAV<lambda_38ce7e780aa69e748d6df282ebc68efe>@@$$QEAV<lambda_99fb1378e971ab6e7edea83e3a7a83a2>@@@Z@4HA 000000018002e257 f   libucrt:commit.obj
 0001:0002d271       _write$fin$0               000000018002e271 f   libucrt:write.obj
 0001:0002d271       ?fin$0@?0???$common_lseek@_J@@YA_JH_JH@Z@4HA 000000018002e271 f   libucrt:lseek.obj
 0001:0002d288       fclose$fin$0               000000018002e288 f   libucrt:fclose.obj
 0001:0002d2a0       ?dtor$0@?0??_wcstombs_l_helper@@YA_KPEADPEB_W_KPEAU__crt_locale_pointers@@@Z@4HA 000000018002e2a0 f   libucrt:wcstombs.obj
 0001:0002d2ac       _ctrlfp$filt$0             000000018002e2ac f   libucrt:fpctrl.obj
 0001:0002d2e0       _IsNonwritableInCurrentImage$filt$0 000000018002e2e0 f   LIBCMT:pesect.obj
 0002:00000258       .idata$5                   000000018002f258     libglib-2.0:dhtls00074.o
 0002:00000260       .idata$5                   000000018002f260     libglib-2.0:dhtls00077.o
 0002:00000268       .idata$5                   000000018002f268     libglib-2.0:dhtls00380.o
 0002:00000270       .idata$5                   000000018002f270     libglib-2.0:dhtls00673.o
 0002:00000278       .idata$5                   000000018002f278     libglib-2.0:dhtls01081.o
 0002:00000280       .idata$5                   000000018002f280     libglib-2.0:dhtls01122.o
 0002:00000290       .idata$5                   000000018002f290     libvips:dowls00861.o
 0002:00000298       .idata$5                   000000018002f298     libvips:dowls00930.o
 0002:000002a0       .idata$5                   000000018002f2a0     libvips:dowls00931.o
 0002:000002a8       .idata$5                   000000018002f2a8     libvips:dowls00976.o
 0002:000002b0       .idata$5                   000000018002f2b0     libvips:dowls00977.o
 0002:000002b8       .idata$5                   000000018002f2b8     libvips:dowls00978.o
 0002:000002c0       .idata$5                   000000018002f2c0     libvips:dowls00979.o
 0002:000002c8       .idata$5                   000000018002f2c8     libvips:dowls00987.o
 0002:000002d0       .idata$5                   000000018002f2d0     libvips:dowls00988.o
 0002:000002d8       .idata$5                   000000018002f2d8     libvips:dowls00989.o
 0002:000002e0       .idata$5                   000000018002f2e0     libvips:dowls01093.o
 0002:000002e8       .idata$5                   000000018002f2e8     libvips:dowls01094.o
 0002:000002f0       .idata$5                   000000018002f2f0     libvips:dowls01158.o
 0002:000002f8       .idata$5                   000000018002f2f8     libvips:dowls01159.o
 0002:00000300       .idata$5                   000000018002f300     libvips:dowls01169.o
 0002:00000308       .idata$5                   000000018002f308     libvips:dowls01212.o
 0002:00000310       .idata$5                   000000018002f310     libvips:dowls01213.o
 0002:00000318       .idata$5                   000000018002f318     libvips:dowls01320.o
 0002:00000320       .idata$5                   000000018002f320     libvips:dowls01447.o
 0002:00000328       .idata$5                   000000018002f328     libvips:dowls01468.o
 0002:00000330       .idata$5                   000000018002f330     libvips:dowls01488.o
 0002:00000338       .idata$5                   000000018002f338     libvips:dowls01505.o
 0002:00000340       .idata$5                   000000018002f340     libvips:dowls01643.o
 0002:00000348       .idata$5                   000000018002f348     libvips:dowls01862.o
 0002:00000350       .idata$5                   000000018002f350     libvips:dowls01878.o
 0002:00000358       .idata$5                   000000018002f358     libvips:dowls01879.o
 0002:00000360       .idata$5                   000000018002f360     libvips:dowls01880.o
 0002:00000368       .idata$5                   000000018002f368     libvips:dowls01884.o
 0002:00000370       .idata$5                   000000018002f370     libvips:dowls01921.o
 0002:00000378       .idata$5                   000000018002f378     libvips:dowls01925.o
 0002:00000380       .idata$5                   000000018002f380     libvips:dowls01931.o
 0002:00000858       GS_ExceptionPointers       000000018002f858     LIBCMT:gs_report.obj
 0002:000008a0       ?ExceptionTemplate@?1??UnwindNestedFrames@__FrameHandler3@@SAXPEA_KPEAUEHExceptionRecord@@PEAU_CONTEXT@@0PEAXPEBU_s_FuncInfo@@HHPEBU_s_HandlerType@@PEAU_xDISPATCHER_CONTEXT@@E@Z@4U_EXCEPTION_RECORD@@B 000000018002f8a0     libvcruntime:risctrnsctrl.obj
 0002:00000940       ?ExceptionTemplate@?1??_CxxThrowException@@9@4UEHExceptionRecord@@B 000000018002f940     libvcruntime:throw.obj
 0002:000009b0       ?tokenTable@@3QBQEBDB      000000018002f9b0     libvcruntime:undname.obj
 0002:00000a30       ?nameTable@@3QBQEBDB       000000018002fa30     libvcruntime:undname.obj
 0002:00000cc0       ?rttiTable@@3QBQEBDB       000000018002fcc0     libvcruntime:undname.obj
 0002:00001378       ?module_names@?A0xcc2f1bd3@@3QBQEB_WB 0000000180030378     libvcruntime:winapi_downlevel.obj
 0002:00001448       ?candidate_modules@?1??try_get_FlsAlloc@@YAP6AKP6AXPEAX@Z@ZXZ@4QBW4module_id@?A0xcc2f1bd3@@B 0000000180030448     libvcruntime:winapi_downlevel.obj
 0002:00001460       ?candidate_modules@?1??try_get_FlsFree@@YAP6AHK@ZXZ@4QBW4module_id@?A0xcc2f1bd3@@B 0000000180030460     libvcruntime:winapi_downlevel.obj
 0002:00001470       ?candidate_modules@?1??try_get_FlsGetValue@@YAP6APEAXK@ZXZ@4QBW4module_id@?A0xcc2f1bd3@@B 0000000180030470     libvcruntime:winapi_downlevel.obj
 0002:00001488       ?candidate_modules@?1??try_get_FlsSetValue@@YAP6AHKPEAX@ZXZ@4QBW4module_id@?A0xcc2f1bd3@@B 0000000180030488     libvcruntime:winapi_downlevel.obj
 0002:000014a0       ?candidate_modules@?1??try_get_InitializeCriticalSectionEx@@YAP6AHPEAU_RTL_CRITICAL_SECTION@@KK@ZXZ@4QBW4module_id@?A0xcc2f1bd3@@B 00000001800304a0     libvcruntime:winapi_downlevel.obj
 0002:000018b0       __acrt_initializers        00000001800308b0     libucrt:initialization.obj
 0002:00001a30       ?errtable@@3QBUerrentry@?A0x31fdb9ec@@B 0000000180030a30     libucrt:errno.obj
 0002:00002a20       ?mask@?P@??_d_int@@9@4QBGB 0000000180031a20     libucrt:_test.obj
 0002:00002a40       ?sub@?P@??_d_int@@9@4QB_KB 0000000180031a40     libucrt:_test.obj
 0002:00002a60       ?_mb_locale_names@@3QBQEB_WB 0000000180031a60     libucrt:mbctype.obj
 0002:00002ac0       ?module_names@?A0x391cf84c@@3QBQEB_WB 0000000180031ac0     libucrt:winapi_thunks.obj
 0002:00003068       ?candidate_modules@?1??try_get_FlsAlloc@@YAP6AKP6AXPEAX@Z@ZXZ@4QBW4module_id@?A0x391cf84c@@B 0000000180032068     libucrt:winapi_thunks.obj
 0002:00003080       ?candidate_modules@?1??try_get_FlsFree@@YAP6AHK@ZXZ@4QBW4module_id@?A0x391cf84c@@B 0000000180032080     libucrt:winapi_thunks.obj
 0002:00003090       ?candidate_modules@?1??try_get_FlsGetValue@@YAP6APEAXK@ZXZ@4QBW4module_id@?A0x391cf84c@@B 0000000180032090     libucrt:winapi_thunks.obj
 0002:000030a8       ?candidate_modules@?1??try_get_FlsSetValue@@YAP6AHKPEAX@ZXZ@4QBW4module_id@?A0x391cf84c@@B 00000001800320a8     libucrt:winapi_thunks.obj
 0002:000030c0       ?candidate_modules@?1??try_get_GetActiveWindow@@YAP6APEAUHWND__@@XZXZ@4QBW4module_id@?A0x391cf84c@@B 00000001800320c0     libucrt:winapi_thunks.obj
 0002:000030d8       ?candidate_modules@?1??try_get_GetLastActivePopup@@YAP6APEAUHWND__@@PEAU2@@ZXZ@4QBW4module_id@?A0x391cf84c@@B 00000001800320d8     libucrt:winapi_thunks.obj
 0002:000030f8       ?candidate_modules@?1??try_get_GetProcessWindowStation@@YAP6APEAUHWINSTA__@@XZXZ@4QBW4module_id@?A0x391cf84c@@B 00000001800320f8     libucrt:winapi_thunks.obj
 0002:00003118       ?candidate_modules@?1??try_get_GetUserObjectInformationW@@YAP6AHPEAXH0KPEAK@ZXZ@4QBW4module_id@?A0x391cf84c@@B 0000000180032118     libucrt:winapi_thunks.obj
 0002:00003140       ?candidate_modules@?1??try_get_InitializeCriticalSectionEx@@YAP6AHPEAU_RTL_CRITICAL_SECTION@@KK@ZXZ@4QBW4module_id@?A0x391cf84c@@B 0000000180032140     libucrt:winapi_thunks.obj
 0002:00003168       ?candidate_modules@?1??try_get_LCMapStringEx@@YAP6AHPEB_WK0HPEA_WHPEAU_nlsversioninfo@@PEAX_J@ZXZ@4QBW4module_id@?A0x391cf84c@@B 0000000180032168     libucrt:winapi_thunks.obj
 0002:00003180       ?candidate_modules@?1??try_get_LocaleNameToLCID@@YAP6AKPEB_WK@ZXZ@4QBW4module_id@?A0x391cf84c@@B 0000000180032180     libucrt:winapi_thunks.obj
 0002:000031a0       ?candidate_modules@?1??try_get_MessageBoxA@@YAP6AHPEAUHWND__@@PEBD1I@ZXZ@4QBW4module_id@?A0x391cf84c@@B 00000001800321a0     libucrt:winapi_thunks.obj
 0002:000031b8       ?candidate_modules@?1??try_get_MessageBoxW@@YAP6AHPEAUHWND__@@PEB_W1I@ZXZ@4QBW4module_id@?A0x391cf84c@@B 00000001800321b8     libucrt:winapi_thunks.obj
 0002:000031cc       ?candidate_modules@?1??try_get_AppPolicyGetProcessTerminationMethod@@YAP6AJPEAXPEAW4AppPolicyProcessTerminationMethod@@@ZXZ@4QBW4module_id@?A0x391cf84c@@B 00000001800321cc     libucrt:winapi_thunks.obj
 0002:000031f8       ?candidate_modules@?1??try_get_AppPolicyGetShowDeveloperDiagnostic@@YAP6AJPEAXPEAW4AppPolicyShowDeveloperDiagnostic@@@ZXZ@4QBW4module_id@?A0x391cf84c@@B 00000001800321f8     libucrt:winapi_thunks.obj
 0002:00003224       ?candidate_modules@?1??try_get_AppPolicyGetWindowingModel@@YAP6AJPEAXPEAW4AppPolicyWindowingModel@@@ZXZ@4QBW4module_id@?A0x391cf84c@@B 0000000180032224     libucrt:winapi_thunks.obj
 0002:000032b0       ?LcidToLocaleNameTable@?A0x881e4c05@@3QBULcidToLocaleName@1@B 00000001800322b0     libucrt:lcidtoname_downlevel.obj
 0002:00004d10       ?LocaleNameToIndexTable@?A0x881e4c05@@3QBULocaleNameIndex@1@B 0000000180033d10     libucrt:lcidtoname_downlevel.obj
 0002:00006fa0       $cppxdata$?_wcstombs_l_helper@@YA_KPEADPEB_W_KPEAU__crt_locale_pointers@@@Z 0000000180035fa0     libucrt:wcstombs.obj
 0002:00006fd0       __real_ninf                0000000180035fd0     libucrt:log10.obj
 0002:00006fe0       __real_inf                 0000000180035fe0     libucrt:log10.obj
 0002:00006ff0       __real_neg_qnan            0000000180035ff0     libucrt:log10.obj
 0002:00007000       __real_qnanbit             0000000180036000     libucrt:log10.obj
 0002:00007010       __int_1023                 0000000180036010     libucrt:log10.obj
 0002:00007020       __mask_001                 0000000180036020     libucrt:log10.obj
 0002:00007030       __mask_mant                0000000180036030     libucrt:log10.obj
 0002:00007040       __mask_mant_top8           0000000180036040     libucrt:log10.obj
 0002:00007050       __mask_mant9               0000000180036050     libucrt:log10.obj
 0002:00007060       __real_log10_e             0000000180036060     libucrt:log10.obj
 0002:00007070       __real_log10_e_lead        0000000180036070     libucrt:log10.obj
 0002:00007080       __real_log10_e_tail        0000000180036080     libucrt:log10.obj
 0002:00007090       __real_log10_2_lead        0000000180036090     libucrt:log10.obj
 0002:000070a0       __real_log10_2_tail        00000001800360a0     libucrt:log10.obj
 0002:000070b0       __real_two                 00000001800360b0     libucrt:log10.obj
 0002:000070c0       __real_one                 00000001800360c0     libucrt:log10.obj
 0002:000070d0       __real_half                00000001800360d0     libucrt:log10.obj
 0002:000070e0       __mask_100                 00000001800360e0     libucrt:log10.obj
 0002:000070f0       __real_1_over_512          00000001800360f0     libucrt:log10.obj
 0002:00007100       __real_1_over_2            0000000180036100     libucrt:log10.obj
 0002:00007110       __real_1_over_3            0000000180036110     libucrt:log10.obj
 0002:00007120       __real_1_over_4            0000000180036120     libucrt:log10.obj
 0002:00007130       __real_1_over_5            0000000180036130     libucrt:log10.obj
 0002:00007140       __real_1_over_6            0000000180036140     libucrt:log10.obj
 0002:00007150       __real_neg_1023            0000000180036150     libucrt:log10.obj
 0002:00007160       __mask_2045                0000000180036160     libucrt:log10.obj
 0002:00007170       __real_threshold           0000000180036170     libucrt:log10.obj
 0002:00007180       __real_near_one_lt         0000000180036180     libucrt:log10.obj
 0002:00007190       __real_near_one_gt         0000000180036190     libucrt:log10.obj
 0002:000071a0       __real_min_norm            00000001800361a0     libucrt:log10.obj
 0002:000071b0       __real_notsign             00000001800361b0     libucrt:log10.obj
 0002:000071c0       __real_ca1                 00000001800361c0     libucrt:log10.obj
 0002:000071d0       __real_ca2                 00000001800361d0     libucrt:log10.obj
 0002:000071e0       __real_ca3                 00000001800361e0     libucrt:log10.obj
 0002:000071f0       __real_ca4                 00000001800361f0     libucrt:log10.obj
 0002:00007200       __mask_lower               0000000180036200     libucrt:log10.obj
 0002:00007210       __flag_x_zero              0000000180036210     libucrt:log10.obj
 0002:00007214       __flag_x_neg               0000000180036214     libucrt:log10.obj
 0002:00007218       __flag_x_nan               0000000180036218     libucrt:log10.obj
 0002:00008a70       __real@433fffffffffffff    0000000180037a70     libucrt:fpsr.obj
 0002:00008a78       __real@c33fffffffffffff    0000000180037a78     libucrt:fpsr.obj
 0002:00009b98       ?piecewise_construct@std@@3Upiecewise_construct_t@1@B 0000000180038b98     pipeline.obj
 0002:00009e70       $cppxdata$??$AttrTo@I@sharp@@YAIV?$Local@VObject@v8@@@v8@@V?$basic_string@DU?$char_traits@D@std@@V?$allocator@D@2@@std@@@Z 0000000180038e70     common.obj
 0002:00009e98       $cppxdata$??$AttrAs@VObject@v8@@@sharp@@YA?AV?$Local@VObject@v8@@@v8@@V12@V?$basic_string@DU?$char_traits@D@std@@V?$allocator@D@2@@std@@@Z 0000000180038e98     common.obj
 0002:00009e98       $cppxdata$??$AttrAs@VFunction@v8@@@sharp@@YA?AV?$Local@VFunction@v8@@@v8@@V?$Local@VObject@v8@@@2@V?$basic_string@DU?$char_traits@D@std@@V?$allocator@D@2@@std@@@Z 0000000180038e98     pipeline.obj
 0002:00009ec0       $cppxdata$??$New@VString@v8@@V?$basic_string@DU?$char_traits@D@std@@V?$allocator@D@2@@std@@@Nan@@YA?AV?$MaybeLocal@VString@v8@@@v8@@V?$basic_string@DU?$char_traits@D@std@@V?$allocator@D@2@@std@@@Z 0000000180038ec0     common.obj
 0002:00009ee8       $cppxdata$?SetDensity@sharp@@YAXVVImage@vips@@H@Z 0000000180038ee8     common.obj
 0002:00009f10       $cppxdata$?RemoveExifOrientation@sharp@@YAXVVImage@vips@@@Z 0000000180038f10     common.obj
 0002:00009f38       $cppxdata$?SetExifOrientation@sharp@@YAXVVImage@vips@@H@Z 0000000180038f38     common.obj
 0002:00009f60       $cppxdata$?ExifOrientation@sharp@@YAHVVImage@vips@@@Z 0000000180038f60     common.obj
 0002:00009f88       $cppxdata$?HasAlpha@sharp@@YA_NVVImage@vips@@@Z 0000000180038f88     common.obj
 0002:00009fb0       $cppxdata$?HasProfile@sharp@@YA_NVVImage@vips@@@Z 0000000180038fb0     common.obj
 0002:00009fd8       $cppxdata$?OpenInput@sharp@@YA?AV?$tuple@VVImage@vips@@W4ImageType@sharp@@@std@@PEAUInputDescriptor@1@W4VipsAccess@@@Z 0000000180038fd8     common.obj
 0002:0000a000       $cppxdata$?DetermineImageType@sharp@@YA?AW4ImageType@1@PEBD@Z 0000000180039000     common.obj
 0002:0000a028       $cppxdata$?DetermineImageType@sharp@@YA?AW4ImageType@1@PEAX_K@Z 0000000180039028     common.obj
 0002:0000a050       $cppxdata$?ImageTypeId@sharp@@YA?AV?$basic_string@DU?$char_traits@D@std@@V?$allocator@D@2@@std@@W4ImageType@1@@Z 0000000180039050     common.obj
 0002:0000a078       $cppxdata$?IsV@sharp@@YA_NAEBV?$basic_string@DU?$char_traits@D@std@@V?$allocator@D@2@@std@@@Z 0000000180039078     common.obj
 0002:0000a0a0       $cppxdata$?IsDzZip@sharp@@YA_NAEBV?$basic_string@DU?$char_traits@D@std@@V?$allocator@D@2@@std@@@Z 00000001800390a0     common.obj
 0002:0000a0c8       $cppxdata$?IsDz@sharp@@YA_NAEBV?$basic_string@DU?$char_traits@D@std@@V?$allocator@D@2@@std@@@Z 00000001800390c8     common.obj
 0002:0000a0f0       $cppxdata$?IsTiff@sharp@@YA_NAEBV?$basic_string@DU?$char_traits@D@std@@V?$allocator@D@2@@std@@@Z 00000001800390f0     common.obj
 0002:0000a118       $cppxdata$?IsWebp@sharp@@YA_NAEBV?$basic_string@DU?$char_traits@D@std@@V?$allocator@D@2@@std@@@Z 0000000180039118     common.obj
 0002:0000a140       $cppxdata$?IsPng@sharp@@YA_NAEBV?$basic_string@DU?$char_traits@D@std@@V?$allocator@D@2@@std@@@Z 0000000180039140     common.obj
 0002:0000a168       $cppxdata$?IsJpeg@sharp@@YA_NAEBV?$basic_string@DU?$char_traits@D@std@@V?$allocator@D@2@@std@@@Z 0000000180039168     common.obj
 0002:0000a190       $cppxdata$?CreateInputDescriptor@sharp@@YAPEAUInputDescriptor@1@V?$Local@VObject@v8@@@v8@@V?$vector@V?$Local@VObject@v8@@@v8@@V?$allocator@V?$Local@VObject@v8@@@v8@@@std@@@std@@@Z 0000000180039190     common.obj
 0002:0000a1b8       $cppxdata$?AttrAsStr@sharp@@YA?AV?$basic_string@DU?$char_traits@D@std@@V?$allocator@D@2@@std@@V?$Local@VObject@v8@@@v8@@V23@@Z 00000001800391b8     common.obj
 0002:0000a1e0       $cppxdata$?HasAttr@sharp@@YA_NV?$Local@VObject@v8@@@v8@@V?$basic_string@DU?$char_traits@D@std@@V?$allocator@D@2@@std@@@Z 00000001800391e0     common.obj
 0002:0000a208       $cppxdata$??0Utf8String@Nan@@QEAA@V?$Local@VValue@v8@@@v8@@@Z 0000000180039208     common.obj
 0002:0000a340       $cppxdata$??$?4VVImage@vips@@W4ImageType@sharp@@$0A@@?$tuple@AEAVVImage@vips@@AEAW4ImageType@sharp@@@std@@QEAAAEAV01@$$QEAV?$tuple@VVImage@vips@@W4ImageType@sharp@@@1@@Z 0000000180039340     metadata.obj
 0002:0000a368       $cppxdata$?metadata@@YAXAEBV?$FunctionCallbackInfo@VValue@v8@@@Nan@@@Z 0000000180039368     metadata.obj
 0002:0000a390       $cppxdata$?HandleOKCallback@MetadataWorker@@UEAAXXZ 0000000180039390     metadata.obj
 0002:0000a3b8       $cppxdata$?Execute@MetadataWorker@@UEAAXXZ 00000001800393b8     metadata.obj
 0002:0000a3e0       $cppxdata$??0MetadataWorker@@QEAA@PEAVCallback@Nan@@PEAUMetadataBaton@@V?$vector@V?$Local@VObject@v8@@@v8@@V?$allocator@V?$Local@VObject@v8@@@v8@@@std@@@std@@@Z 00000001800393e0     metadata.obj
 0002:0000a408       $cppxdata$??1?$Persistent@VObject@v8@@V?$NonCopyablePersistentTraits@VObject@v8@@@2@@Nan@@QEAA@XZ 0000000180039408     metadata.obj
 0002:0000a430       $cppxdata$?HandleErrorCallback@AsyncWorker@Nan@@MEAAXXZ 0000000180039430     metadata.obj
 0002:0000a458       $cppxdata$?HandleOKCallback@AsyncWorker@Nan@@MEAAXXZ 0000000180039458     metadata.obj
 0002:0000a480       $cppxdata$?GetFromPersistent@AsyncWorker@Nan@@QEBA?AV?$Local@VValue@v8@@@v8@@I@Z 0000000180039480     metadata.obj
 0002:0000a4a8       $cppxdata$?WorkComplete@AsyncWorker@Nan@@UEAAXXZ 00000001800394a8     metadata.obj
 0002:0000a4d0       $cppxdata$??1AsyncWorker@Nan@@UEAA@XZ 00000001800394d0     metadata.obj
 0002:0000a4f8       $cppxdata$??0AsyncWorker@Nan@@QEAA@PEAVCallback@1@PEBD@Z 00000001800394f8     metadata.obj
 0002:0000a520       $cppxdata$?Call_@Callback@Nan@@AEBA?AV?$MaybeLocal@VValue@v8@@@v8@@PEAVIsolate@4@V?$Local@VObject@v8@@@4@HQEAV?$Local@VValue@v8@@@4@PEAVAsyncResource@2@@Z 0000000180039520     metadata.obj
 0002:0000a548       $cppxdata$?Call@Callback@Nan@@QEBA?AV?$Local@VValue@v8@@@v8@@HQEAV34@@Z 0000000180039548     metadata.obj
 0002:0000a570       $cppxdata$??1AsyncResource@Nan@@QEAA@XZ 0000000180039570     metadata.obj
 0002:0000a598       $cppxdata$?New@?$Factory@VUint32@v8@@@imp@Nan@@SA?AV?$Local@VUint32@v8@@@v8@@H@Z 0000000180039598     metadata.obj
 0002:0000a5c0       $cppxdata$?Set@Nan@@YA?AV?$Maybe@_N@1@V?$Local@VObject@v8@@@v8@@V?$Local@VValue@v8@@@4@1@Z 00000001800395c0     metadata.obj
 0002:0000a5e8       $cppxdata$??1?$function@$$A6ANVVImage@vips@@@Z@std@@QEAA@XZ 00000001800395e8     operations.obj
 0002:0000a5e8       $cppxdata$??1?$_Func_class@NVVImage@vips@@@std@@QEAA@XZ 00000001800395e8     operations.obj
 0002:0000a610       $cppxdata$?Trim@sharp@@YA?AVVImage@vips@@V23@H@Z 0000000180039610     operations.obj
 0002:0000a638       $cppxdata$?Boolean@sharp@@YA?AVVImage@vips@@V23@0W4VipsOperationBoolean@@@Z 0000000180039638     operations.obj
 0002:0000a660       $cppxdata$?Bandbool@sharp@@YA?AVVImage@vips@@V23@W4VipsOperationBoolean@@@Z 0000000180039660     operations.obj
 0002:0000a688       $cppxdata$?Threshold@sharp@@YA?AVVImage@vips@@V23@N_N@Z 0000000180039688     operations.obj
 0002:0000a6b0       $cppxdata$?TileCache@sharp@@YA?AVVImage@vips@@V23@N@Z 00000001800396b0     operations.obj
 0002:0000a6d8       $cppxdata$?Crop@sharp@@YA?AV?$tuple@HH@std@@VVImage@vips@@HHV?$function@$$A6ANVVImage@vips@@@Z@3@@Z 00000001800396d8     operations.obj
 0002:0000a700       $cppxdata$??RAttentionStrategy@sharp@@QEAANVVImage@vips@@@Z 0000000180039700     operations.obj
 0002:0000a728       $cppxdata$?Sharpen@sharp@@YA?AVVImage@vips@@V23@NNN@Z 0000000180039728     operations.obj
 0002:0000a750       $cppxdata$?Convolve@sharp@@YA?AVVImage@vips@@V23@HHNNAEBV?$unique_ptr@$$BY0A@NU?$default_delete@$$BY0A@N@std@@@std@@@Z 0000000180039750     operations.obj
 0002:0000a778       $cppxdata$?Blur@sharp@@YA?AVVImage@vips@@V23@N@Z 0000000180039778     operations.obj
 0002:0000a7a0       $cppxdata$?Gamma@sharp@@YA?AVVImage@vips@@V23@N@Z 00000001800397a0     operations.obj
 0002:0000a7c8       $cppxdata$?Normalize@sharp@@YA?AVVImage@vips@@V23@@Z 00000001800397c8     operations.obj
 0002:0000a7f0       $cppxdata$?Cutout@sharp@@YA?AVVImage@vips@@V23@0H@Z 00000001800397f0     operations.obj
 0002:0000a818       $cppxdata$?CompositeImage@sharp@@YA?AVVImage@vips@@V23@0@Z 0000000180039818     operations.obj
 0002:0000a840       $cppxdata$?IsInputValidForComposition@sharp@@YA_NVVImage@vips@@0@Z 0000000180039840     operations.obj
 0002:0000a868       $cppxdata$?Composite@sharp@@YA?AVVImage@vips@@V23@0HH@Z 0000000180039868     operations.obj
 0002:0000a890       $cppxdata$?Composite@sharp@@YA?AVVImage@vips@@V23@0H@Z 0000000180039890     operations.obj
 0002:0000a8b8       $cppxdata$?_Do_call@?$_Func_impl_no_alloc@UAttentionStrategy@sharp@@NVVImage@vips@@@std@@EEAAN$$QEAVVImage@vips@@@Z 00000001800398b8     pipeline.obj
 0002:0000a8e0       $cppxdata$?_Do_call@?$_Func_impl_no_alloc@UEntropyStrategy@sharp@@NVVImage@vips@@@std@@EEAAN$$QEAVVImage@vips@@@Z 00000001800398e0     pipeline.obj
 0002:0000a908       $cppxdata$??$AttrTo@N@sharp@@YANV?$Local@VObject@v8@@@v8@@V?$basic_string@DU?$char_traits@D@std@@V?$allocator@D@2@@std@@@Z 0000000180039908     pipeline.obj
 0002:0000a930       $cppxdata$??$AttrTo@H@sharp@@YAHV?$Local@VObject@v8@@@v8@@V?$basic_string@DU?$char_traits@D@std@@V?$allocator@D@2@@std@@@Z 0000000180039930     pipeline.obj
 0002:0000a958       $cppxdata$??$AttrTo@_N@sharp@@YA_NV?$Local@VObject@v8@@@v8@@V?$basic_string@DU?$char_traits@D@std@@V?$allocator@D@2@@std@@@Z 0000000180039958     pipeline.obj
 0002:0000a980       $cppxdata$??$?HDU?$char_traits@D@std@@V?$allocator@D@1@@std@@YA?AV?$basic_string@DU?$char_traits@D@std@@V?$allocator@D@2@@0@QEBDAEBV10@@Z 0000000180039980     pipeline.obj
 0002:0000a9a8       $cppxdata$??$?HDU?$char_traits@D@std@@V?$allocator@D@1@@std@@YA?AV?$basic_string@DU?$char_traits@D@std@@V?$allocator@D@2@@0@AEBV10@QEBD@Z 00000001800399a8     pipeline.obj
 0002:0000a9d0       $cppxdata$?erase@?$_Tree@V?$_Tmap_traits@W4VipsInterpretation@@V?$basic_string@DU?$char_traits@D@std@@V?$allocator@D@2@@std@@U?$less@W4VipsInterpretation@@@3@V?$allocator@U?$pair@$$CBW4VipsInterpretation@@V?$basic_string@DU?$char_traits@D@std@@V?$allocator@D@2@@std@@@std@@@3@$0A@@std@@@std@@QEAA?AV?$_Tree_iterator@V?$_Tree_val@U?$_Tree_simple_types@U?$pair@$$CBW4VipsInterpretation@@V?$basic_string@DU?$char_traits@D@std@@V?$allocator@D@2@@std@@@std@@@std@@@std@@@2@V?$_Tree_const_iterator@V?$_Tree_val@U?$_Tree_simple_types@U?$pair@$$CBW4VipsInterpretation@@V?$basic_string@DU?$char_traits@D@std@@V?$allocator@D@2@@std@@@std@@@std@@@std@@@2@0@Z 00000001800399d0     pipeline.obj
 0002:0000a9f8       $cppxdata$?pipeline@@YAXAEBV?$FunctionCallbackInfo@VValue@v8@@@Nan@@@Z 00000001800399f8     pipeline.obj
 0002:0000aa20       $cppxdata$?CalculateRotationAndFlip@PipelineWorker@@AEAA?AV?$tuple@W4VipsAngle@@_N_N@std@@HVVImage@vips@@@Z 0000000180039a20     pipeline.obj
 0002:0000aa48       $cppxdata$?HandleOKCallback@PipelineWorker@@UEAAXXZ 0000000180039a48     pipeline.obj
 0002:0000aa70       $cppxdata$?Execute@PipelineWorker@@UEAAXXZ 0000000180039a70     pipeline.obj
 0002:0000aa98       $cppxdata$??0PipelineWorker@@QEAA@PEAVCallback@Nan@@PEAUPipelineBaton@@0V?$vector@V?$Local@VObject@v8@@@v8@@V?$allocator@V?$Local@VObject@v8@@@v8@@@std@@@std@@@Z 0000000180039a98     pipeline.obj
 0002:0000aac0       $cppxdata$??$New@VFunctionTemplate@v8@@@Nan@@YA?AV?$Local@VFunctionTemplate@v8@@@v8@@P6AXAEBV?$FunctionCallbackInfo@VValue@v8@@@0@@ZV?$Local@VValue@v8@@@2@@Z 0000000180039ac0     sharp.obj
 0002:0000aae8       $cppxdata$?init@@YAXV?$Local@VObject@v8@@@v8@@@Z 0000000180039ae8     sharp.obj
 0002:0000ab10       $cppxdata$?ThrowError@Nan@@YAXPEBD@Z 0000000180039b10     utilities.obj
 0002:0000ab38       $cppxdata$?cache@@YAXAEBV?$FunctionCallbackInfo@VValue@v8@@@Nan@@@Z 0000000180039b38     utilities.obj
 0002:0000ab60       $cppxdata$?counters@@YAXAEBV?$FunctionCallbackInfo@VValue@v8@@@Nan@@@Z 0000000180039b60     utilities.obj
 0002:0000ab88       $cppxdata$?simd@@YAXAEBV?$FunctionCallbackInfo@VValue@v8@@@Nan@@@Z 0000000180039b88     utilities.obj
 0002:0000abb0       $cppxdata$?_maxColourDistance@@YAXAEBV?$FunctionCallbackInfo@VValue@v8@@@Nan@@@Z 0000000180039bb0     utilities.obj
 0002:0000abd8       $cppxdata$?concurrency@@YAXAEBV?$FunctionCallbackInfo@VValue@v8@@@Nan@@@Z 0000000180039bd8     utilities.obj
 0002:0000ac00       $cppxdata$?format@@YAXAEBV?$FunctionCallbackInfo@VValue@v8@@@Nan@@@Z 0000000180039c00     utilities.obj
 0002:0000b540       $unwind$uninitialize_allocated_memory 000000018003a540     libucrt:initialization.obj
 0002:0000b540       $unwind$initialize_pointers 000000018003a540     libucrt:initialization.obj
 0002:0000b540       $unwind$_CreateFrameInfo   000000018003a540     libvcruntime:risctrnsctrl.obj
 0002:0000b540       $unwind$?__c16rtomb_utf8@__crt_mbstring@@YA_KPEAD_SPEAU_Mbstatet@@@Z 000000018003a540     libucrt:c16rtomb.obj
 0002:0000b540       $unwind$?ExecutionInCatch@__FrameHandler3@@SA_NPEAU_xDISPATCHER_CONTEXT@@PEBU_s_FuncInfo@@@Z 000000018003a540     libvcruntime:risctrnsctrl.obj
 0002:0000b540       $unwind$_IsExceptionObjectToBeDestroyed 000000018003a540     libvcruntime:ehhelpers.obj
 0002:0000b540       $unwind$_clrfp             000000018003a540     libucrt:fpctrl.obj
 0002:0000b540       $unwind$_SetThrowImageBase 000000018003a540     libvcruntime:risctrnsctrl.obj
 0002:0000b540       $unwind$__scrt_uninitialize_crt 000000018003a540     LIBCMT:utility.obj
 0002:0000b540       $unwind$__scrt_initialize_crt 000000018003a540     LIBCMT:utility.obj
 0002:0000b540       $unwind$strcpy_s           000000018003a540     libucrt:strcpy_s.obj
 0002:0000b540       $unwind$__std_exception_destroy 000000018003a540     libvcruntime:std_exception.obj
 0002:0000b540       $unwind$__acrt_AppPolicyGetProcessTerminationMethodInternal 000000018003a540     libucrt:winapi_thunks.obj
 0002:0000b540       $unwind$??0bad_array_new_length@std@@QEAA@AEBV01@@Z 000000018003a540     LIBCMT:throw_bad_alloc.obj
 0002:0000b540       $unwind$__raise_securityfailure 000000018003a540     LIBCMT:gs_report.obj
 0002:0000b540       $unwind$__std_type_info_destroy_list 000000018003a540     libvcruntime:std_type_info.obj
 0002:0000b540       $unwind$__vcrt_freeptd     000000018003a540     libvcruntime:per_thread_data.obj
 0002:0000b540       $unwind$_SetImageBase      000000018003a540     libvcruntime:risctrnsctrl.obj
 0002:0000b540       $unwind$?_Destroy_if_node@?$_Tree@V?$_Tmap_traits@W4VipsInterpretation@@V?$basic_string@DU?$char_traits@D@std@@V?$allocator@D@2@@std@@U?$less@W4VipsInterpretation@@@3@V?$allocator@U?$pair@$$CBW4VipsInterpretation@@V?$basic_string@DU?$char_traits@D@std@@V?$allocator@D@2@@std@@@std@@@3@$0A@@std@@@std@@IEAAXPEAU?$_Tree_node@U?$pair@$$CBW4VipsInterpretation@@V?$basic_string@DU?$char_traits@D@std@@V?$allocator@D@2@@std@@@std@@PEAX@2@@Z 000000018003a540     pipeline.obj
 0002:0000b540       $unwind$fegetenv           000000018003a540     libucrt:fegetenv.obj
 0002:0000b540       $unwind$_malloc_base       000000018003a540     libucrt:malloc_base.obj
 0002:0000b540       $unwind$?GetUnwindTryBlock@__FrameHandler3@@SAHPEA_KPEAU_xDISPATCHER_CONTEXT@@PEBU_s_FuncInfo@@@Z 000000018003a540     libvcruntime:ehstate.obj
 0002:0000b540       $unwind$__scrt_release_startup_lock 000000018003a540     LIBCMT:utility.obj
 0002:0000b540       $unwind$?load_exe_hook@@YAP6A_JXZIPEAUDelayLoadInfo@@@Z 000000018003a540     win_delay_load_hook.obj
 0002:0000b540       $unwind$__acrt_AppPolicyGetShowDeveloperDiagnosticInternal 000000018003a540     libucrt:winapi_thunks.obj
 0002:0000b540       $unwind$??_Gtype_info@@UEAAPEAXI@Z 000000018003a540     LIBCMT:std_type_info_static.obj
 0002:0000b540       $unwind$??2@YAPEAX_K@Z     000000018003a540     LIBCMT:new_scalar.obj
 0002:0000b540       $unwind$__acrt_getptd_head 000000018003a540     libucrt:per_thread_data.obj
 0002:0000b540       $unwind$fesetenv           000000018003a540     libucrt:fesetenv.obj
 0002:0000b540       $unwind$??0bad_function_call@std@@QEAA@AEBV01@@Z 000000018003a540     libcpmt:xthrow.obj
 0002:0000b540       $unwind$__acrt_freeptd     000000018003a540     libucrt:per_thread_data.obj
 0002:0000b540       $unwind$??0out_of_range@std@@QEAA@AEBV01@@Z 000000018003a540     libcpmt:xthrow.obj
 0002:0000b540       $unwind$_set_statfp        000000018003a540     libucrt:fpctrl.obj
 0002:0000b540       $unwind$??0length_error@std@@QEAA@AEBV01@@Z 000000018003a540     libcpmt:xthrow.obj
 0002:0000b540       $unwind$__acrt_FlsGetValue 000000018003a540     libucrt:winapi_thunks.obj
 0002:0000b540       $unwind$??0logic_error@std@@QEAA@AEBV01@@Z 000000018003a540     libcpmt:xthrow.obj
 0002:0000b540       $unwind$feholdexcept       000000018003a540     libucrt:feholdexcept.obj
 0002:0000b540       $unwind$??0bad_alloc@std@@QEAA@AEBV01@@Z 000000018003a540     libcpmt:xthrow.obj
 0002:0000b540       $unwind$??0bad_exception@std@@QEAA@AEBV01@@Z 000000018003a540     libvcruntime:frame.obj
 0002:0000b540       $unwind$??0exception@std@@QEAA@AEBV01@@Z 000000018003a540     libcpmt:xthrow.obj
 0002:0000b540       $unwind$__acrt_AppPolicyGetWindowingModelInternal 000000018003a540     libucrt:winapi_thunks.obj
 0002:0000b540       $unwind$__acrt_stdio_free_buffer_nolock 000000018003a540     libucrt:_freebuf.obj
 0002:0000b540       $unwind$__acrt_get_parent_window 000000018003a540     libucrt:winapi_thunks.obj
 0002:0000b540       $unwind$_clearfp           000000018003a540     libucrt:ieee.obj
 0002:0000b540       $unwind$??1?$vector@V?$Local@VObject@v8@@@v8@@V?$allocator@V?$Local@VObject@v8@@@v8@@@std@@@std@@QEAA@XZ 000000018003a540     common.obj
 0002:0000b540       $unwind$?ExFilterRethrow@@YAHPEAU_EXCEPTION_POINTERS@@PEAUEHExceptionRecord@@PEAH@Z 000000018003a540     libvcruntime:frame.obj
 0002:0000b540       $unwind$??1?$basic_string@DU?$char_traits@D@std@@V?$allocator@D@2@@std@@QEAA@XZ 000000018003a540     common.obj
 0002:0000b540       $unwind$__acrt_update_locale_info 000000018003a540     libucrt:locale_update.obj
 0002:0000b540       $unwind$?_Buy@?$vector@NV?$allocator@N@std@@@std@@AEAA_N_K@Z 000000018003a540     operations.obj
 0002:0000b540       $unwind$__acrt_update_multibyte_info 000000018003a540     libucrt:locale_update.obj
 0002:0000b540       $unwind$??0?$_Tree_comp_alloc@V?$_Tmap_traits@W4VipsInterpretation@@V?$basic_string@DU?$char_traits@D@std@@V?$allocator@D@2@@std@@U?$less@W4VipsInterpretation@@@3@V?$allocator@U?$pair@$$CBW4VipsInterpretation@@V?$basic_string@DU?$char_traits@D@std@@V?$allocator@D@2@@std@@@std@@@3@$0A@@std@@@std@@QEAA@AEBU?$less@W4VipsInterpretation@@@1@@Z 000000018003a540     pipeline.obj
 0002:0000b540       $unwind$??1?$_Tree@V?$_Tmap_traits@W4VipsInterpretation@@V?$basic_string@DU?$char_traits@D@std@@V?$allocator@D@2@@std@@U?$less@W4VipsInterpretation@@@3@V?$allocator@U?$pair@$$CBW4VipsInterpretation@@V?$basic_string@DU?$char_traits@D@std@@V?$allocator@D@2@@std@@@std@@@3@$0A@@std@@@std@@QEAA@XZ 000000018003a540     pipeline.obj
 0002:0000b540       $unwind$??_Gexception@stdext@@UEAAPEAXI@Z 000000018003a540     common.obj
 0002:0000b540       $unwind$?DloadAcquireSectionWriteAccess@@YAXXZ 000000018003a540     DelayImp:delayhlp.obj
 0002:0000b540       $unwind$_calloc_base       000000018003a540     libucrt:calloc_base.obj
 0002:0000b540       $unwind$__vcrt_initialize_locks 000000018003a540     libvcruntime:locks.obj
 0002:0000b540       $unwind$??1?$pair@W4VipsInterpretation@@V?$basic_string@DU?$char_traits@D@std@@V?$allocator@D@2@@std@@@std@@QEAA@XZ 000000018003a540     pipeline.obj
 0002:0000b540       $unwind$??1?$map@W4VipsInterpretation@@V?$basic_string@DU?$char_traits@D@std@@V?$allocator@D@2@@std@@U?$less@W4VipsInterpretation@@@3@V?$allocator@U?$pair@$$CBW4VipsInterpretation@@V?$basic_string@DU?$char_traits@D@std@@V?$allocator@D@2@@std@@@std@@@3@@std@@QEAA@XZ 000000018003a540     pipeline.obj
 0002:0000b540       $unwind$__acrt_get_windowing_model_policy 000000018003a540     libucrt:win_policies.obj
 0002:0000b540       $unwind$?AsyncExecuteComplete@Nan@@YAXPEAUuv_work_s@@@Z 000000018003a540     metadata.obj
 0002:0000b540       $unwind$wcscat_s           000000018003a540     libucrt:wcscat_s.obj
 0002:0000b540       $unwind$?AsyncQueueWorker@Nan@@YAXPEAVAsyncWorker@1@@Z 000000018003a540     metadata.obj
 0002:0000b540       $unwind$wcscpy_s           000000018003a540     libucrt:wcscpy_s.obj
 0002:0000b540       $unwind$__vcrt_uninitialize_locks 000000018003a540     libvcruntime:locks.obj
 0002:0000b540       $unwind$??0?$basic_string@DU?$char_traits@D@std@@V?$allocator@D@2@@std@@QEAA@QEBD@Z 000000018003a540     common.obj
 0002:0000b540       $unwind$__acrt_FlsFree     000000018003a540     libucrt:winapi_thunks.obj
 0002:0000b540       $unwind$__vcrt_FlsAlloc    000000018003a540     libvcruntime:winapi_downlevel.obj
 0002:0000b540       $unwind$__acrt_get_developer_information_policy 000000018003a540     libucrt:win_policies.obj
 0002:0000b540       $unwind$__acrt_uninitialize_stdio 000000018003a540     libucrt:_file.obj
 0002:0000b540       $unwind$__acrt_get_process_end_policy 000000018003a540     libucrt:win_policies.obj
 0002:0000b540       $unwind$?_Tidy@?$vector@NV?$allocator@N@std@@@std@@AEAAXXZ 000000018003a540     operations.obj
 0002:0000b540       $unwind$__vcrt_FlsFree     000000018003a540     libvcruntime:winapi_downlevel.obj
 0002:0000b540       $unwind$__vcrt_FlsGetValue 000000018003a540     libvcruntime:winapi_downlevel.obj
 0002:0000b540       $unwind$_fflush_nolock     000000018003a540     libucrt:fflush.obj
 0002:0000b540       $unwind$__acrt_allocate_buffer_for_argv 000000018003a540     libucrt:argv_parsing.obj
 0002:0000b540       $unwind$?_Tidy@?$vector@V?$Local@VObject@v8@@@v8@@V?$allocator@V?$Local@VObject@v8@@@v8@@@std@@@std@@AEAAXXZ 000000018003a540     common.obj
 0002:0000b540       $unwind$??1?$vector@NV?$allocator@N@std@@@std@@QEAA@XZ 000000018003a540     operations.obj
 0002:0000b540       $unwind$_callnewh          000000018003a540     libucrt:new_handler.obj
 0002:0000b540       $unwind$?exit_or_terminate_process@@YAXI@Z 000000018003a540     libucrt:exit.obj
 0002:0000b540       $unwind$__acrt_uninitialize_locks 000000018003a540     libucrt:locks.obj
 0002:0000b540       $unwind$?try_cor_exit_process@@YAXI@Z 000000018003a540     libucrt:exit.obj
 0002:0000b540       $unwind$?_Tidy_deallocate@?$basic_string@DU?$char_traits@D@std@@V?$allocator@D@2@@std@@QEAAXXZ 000000018003a540     common.obj
 0002:0000b540       $unwind$__acrt_initialize_locks 000000018003a540     libucrt:locks.obj
 0002:0000b540       $unwind$?internal_isupper_l@@YA_NHQEAU__crt_locale_pointers@@@Z 000000018003a540     libucrt:tolower_toupper.obj
 0002:0000b540       $unwind$??_GInputDescriptor@sharp@@QEAAPEAXI@Z 000000018003a540     metadata.obj
 0002:0000b540       $unwind$?StateFromIp@__FrameHandler3@@SAHPEBU_s_FuncInfo@@PEAU_xDISPATCHER_CONTEXT@@_K@Z 000000018003a540     libvcruntime:ehstate.obj
 0002:0000b540       $unwind$__acrt_uninitialize_winapi_thunks 000000018003a540     libucrt:winapi_thunks.obj
 0002:0000b540       $unwind$__acrt_FlsAlloc    000000018003a540     libucrt:winapi_thunks.obj
 0002:0000b548       $unwind$?to_string@std@@YA?AV?$basic_string@DU?$char_traits@D@std@@V?$allocator@D@2@@1@H@Z 000000018003a548     common.obj
 0002:0000b558       $unwind$??0Utf8String@Nan@@QEAA@V?$Local@VValue@v8@@@v8@@@Z 000000018003a558     common.obj
 0002:0000b570       $stateUnwindMap$??0Utf8String@Nan@@QEAA@V?$Local@VValue@v8@@@v8@@@Z 000000018003a570     common.obj
 0002:0000b570       $stateUnwindMap$?ThrowError@Nan@@YAXPEBD@Z 000000018003a570     utilities.obj
 0002:0000b578       $ip2state$??0Utf8String@Nan@@QEAA@V?$Local@VValue@v8@@@v8@@@Z 000000018003a578     common.obj
 0002:0000b590       $unwind$?HasAttr@sharp@@YA_NV?$Local@VObject@v8@@@v8@@V?$basic_string@DU?$char_traits@D@std@@V?$allocator@D@2@@std@@@Z 000000018003a590     common.obj
 0002:0000b5b4       $stateUnwindMap$?HasAttr@sharp@@YA_NV?$Local@VObject@v8@@@v8@@V?$basic_string@DU?$char_traits@D@std@@V?$allocator@D@2@@std@@@Z 000000018003a5b4     common.obj
 0002:0000b5c8       $ip2state$?HasAttr@sharp@@YA_NV?$Local@VObject@v8@@@v8@@V?$basic_string@DU?$char_traits@D@std@@V?$allocator@D@2@@std@@@Z 000000018003a5c8     common.obj
 0002:0000b5e8       $unwind$?AttrAsStr@sharp@@YA?AV?$basic_string@DU?$char_traits@D@std@@V?$allocator@D@2@@std@@V?$Local@VObject@v8@@@v8@@V23@@Z 000000018003a5e8     common.obj
 0002:0000b60c       $stateUnwindMap$?AttrAsStr@sharp@@YA?AV?$basic_string@DU?$char_traits@D@std@@V?$allocator@D@2@@std@@V?$Local@VObject@v8@@@v8@@V23@@Z 000000018003a60c     common.obj
 0002:0000b628       $ip2state$?AttrAsStr@sharp@@YA?AV?$basic_string@DU?$char_traits@D@std@@V?$allocator@D@2@@std@@V?$Local@VObject@v8@@@v8@@V23@@Z 000000018003a628     common.obj
 0002:0000b658       $unwind$?CreateInputDescriptor@sharp@@YAPEAUInputDescriptor@1@V?$Local@VObject@v8@@@v8@@V?$vector@V?$Local@VObject@v8@@@v8@@V?$allocator@V?$Local@VObject@v8@@@v8@@@std@@@std@@@Z 000000018003a658     common.obj
 0002:0000b67c       $stateUnwindMap$?CreateInputDescriptor@sharp@@YAPEAUInputDescriptor@1@V?$Local@VObject@v8@@@v8@@V?$vector@V?$Local@VObject@v8@@@v8@@V?$allocator@V?$Local@VObject@v8@@@v8@@@std@@@std@@@Z 000000018003a67c     common.obj
 0002:0000b688       $ip2state$?CreateInputDescriptor@sharp@@YAPEAUInputDescriptor@1@V?$Local@VObject@v8@@@v8@@V?$vector@V?$Local@VObject@v8@@@v8@@V?$allocator@V?$Local@VObject@v8@@@v8@@@std@@@std@@@Z 000000018003a688     common.obj
 0002:0000b6a0       $unwind$?IsJpeg@sharp@@YA_NAEBV?$basic_string@DU?$char_traits@D@std@@V?$allocator@D@2@@std@@@Z 000000018003a6a0     common.obj
 0002:0000b6cc       $stateUnwindMap$?IsJpeg@sharp@@YA_NAEBV?$basic_string@DU?$char_traits@D@std@@V?$allocator@D@2@@std@@@Z 000000018003a6cc     common.obj
 0002:0000b6cc       $stateUnwindMap$?IsV@sharp@@YA_NAEBV?$basic_string@DU?$char_traits@D@std@@V?$allocator@D@2@@std@@@Z 000000018003a6cc     common.obj
 0002:0000b6cc       $stateUnwindMap$?IsDzZip@sharp@@YA_NAEBV?$basic_string@DU?$char_traits@D@std@@V?$allocator@D@2@@std@@@Z 000000018003a6cc     common.obj
 0002:0000b6cc       $stateUnwindMap$?IsTiff@sharp@@YA_NAEBV?$basic_string@DU?$char_traits@D@std@@V?$allocator@D@2@@std@@@Z 000000018003a6cc     common.obj
 0002:0000b6f0       $ip2state$?IsJpeg@sharp@@YA_NAEBV?$basic_string@DU?$char_traits@D@std@@V?$allocator@D@2@@std@@@Z 000000018003a6f0     common.obj
 0002:0000b738       $unwind$?fin$0@?0???$?RV<lambda_f2e299630e499de9f9a165e60fcd3db5>@@AEAV<lambda_2ae9d31cdba2644fcbeaf08da7c24588>@@V<lambda_40d01ff24d0e7b3814fdbdcee8eab3c7>@@@?$__crt_seh_guarded_call@X@@QEAAX$$QEAV<lambda_f2e299630e499de9f9a165e60fcd3db5>@@AEAV<lambda_2ae9d31cdba2644fcbeaf08da7c24588>@@$$QEAV<lambda_40d01ff24d0e7b3814fdbdcee8eab3c7>@@@Z@4HA 000000018003a738     libucrt:per_thread_data.obj
 0002:0000b738       $unwind$?fin$0@?0??dllmain_crt_process_attach@@YAHQEAUHINSTANCE__@@QEAX@Z@4HA 000000018003a738     LIBCMT:dll_dllmain.obj
 0002:0000b738       $unwind$?fin$0@?0??dllmain_crt_process_detach@@YAH_N@Z@4HA 000000018003a738     LIBCMT:dll_dllmain.obj
 0002:0000b738       $unwind$?fin$0@?0???$?RV<lambda_2d41944a1d46af3157314b8a01080d33>@@AEAV<lambda_8f455de75cd7d7f24b4096f044d8b9e6>@@V<lambda_aa500f224e6afead328df44964fe2772>@@@?$__crt_seh_guarded_call@X@@QEAAX$$QEAV<lambda_2d41944a1d46af3157314b8a01080d33>@@AEAV<lambda_8f455de75cd7d7f24b4096f044d8b9e6>@@$$QEAV<lambda_aa500f224e6afead328df44964fe2772>@@@Z@4HA 000000018003a738     libucrt:per_thread_data.obj
 0002:0000b738       $unwind$?fin$0@?0???$?RV<lambda_410d79af7f07d98d83a3f525b3859a53>@@AEAV<lambda_3e16ef9562a7dcce91392c22ab16ea36>@@V<lambda_38119f0e861e05405d8a144b9b982f0a>@@@?$__crt_seh_guarded_call@X@@QEAAX$$QEAV<lambda_410d79af7f07d98d83a3f525b3859a53>@@AEAV<lambda_3e16ef9562a7dcce91392c22ab16ea36>@@$$QEAV<lambda_38119f0e861e05405d8a144b9b982f0a>@@@Z@4HA 000000018003a738     libucrt:wsetlocale.obj
 0002:0000b738       $unwind$?fin$0@?0???$?RV<lambda_842d9ff0dc9ef11c61343bbaebe7f885>@@AEAV<lambda_c5860995281e5c4ce005b3de8f5874ee>@@V<lambda_d90129c13df834fdcbf8d2b88dafcf2d>@@@?$__crt_seh_guarded_call@X@@QEAAX$$QEAV<lambda_842d9ff0dc9ef11c61343bbaebe7f885>@@AEAV<lambda_c5860995281e5c4ce005b3de8f5874ee>@@$$QEAV<lambda_d90129c13df834fdcbf8d2b88dafcf2d>@@@Z@4HA 000000018003a738     libucrt:fflush.obj
 0002:0000b738       $unwind$?fin$0@?0???$?RV<lambda_a37b2b86f63e897a80ea819b0eb08c01>@@AEAV<lambda_38ce7e780aa69e748d6df282ebc68efe>@@V<lambda_99fb1378e971ab6e7edea83e3a7a83a2>@@@?$__crt_seh_guarded_call@H@@QEAAH$$QEAV<lambda_a37b2b86f63e897a80ea819b0eb08c01>@@AEAV<lambda_38ce7e780aa69e748d6df282ebc68efe>@@$$QEAV<lambda_99fb1378e971ab6e7edea83e3a7a83a2>@@@Z@4HA 000000018003a738     libucrt:commit.obj
 0002:0000b738       $unwind$_fcloseall$fin$0   000000018003a738     libucrt:closeall.obj
 0002:0000b738       $unwind$?fin$0@?0???$?RV<lambda_886d6c58226a84441f68b9f2b8217b83>@@AEAV<lambda_ab61a845afdef5b7c387490eaf3616ee>@@V<lambda_f7f22ab5edc0698d5f6905b0d3f44752>@@@?$__crt_seh_guarded_call@X@@QEAAX$$QEAV<lambda_886d6c58226a84441f68b9f2b8217b83>@@AEAV<lambda_ab61a845afdef5b7c387490eaf3616ee>@@$$QEAV<lambda_f7f22ab5edc0698d5f6905b0d3f44752>@@@Z@4HA 000000018003a738     libucrt:fflush.obj
 0002:0000b738       $unwind$__acrt_update_thread_locale_data$fin$0 000000018003a738     libucrt:locale_refcounting.obj
 0002:0000b738       $unwind$?dtor$29@?0??format@@YAXAEBV?$FunctionCallbackInfo@VValue@v8@@@Nan@@@Z@4HA 000000018003a738     utilities.obj
 0002:0000b738       $unwind$?fin$0@?0???$?RV<lambda_c376a267cfb53b6959b3b692ec76b120>@@AEAV<lambda_9a32fed5bf61b6b509b2d3f6003082a1>@@V<lambda_572fbb9fa0ab338edf41edfd4b5fcc8d>@@@?$__crt_seh_guarded_call@H@@QEAAH$$QEAV<lambda_c376a267cfb53b6959b3b692ec76b120>@@AEAV<lambda_9a32fed5bf61b6b509b2d3f6003082a1>@@$$QEAV<lambda_572fbb9fa0ab338edf41edfd4b5fcc8d>@@@Z@4HA 000000018003a738     libucrt:fflush.obj
 0002:0000b738       $unwind$?fin$0@?0???$?RV<lambda_751a882b2c74d4b022dec766aa51a29a>@@AEAV<lambda_628dfdc04ba53c8bfc02c9951375f3f5>@@V<lambda_f6c7be5f7998530c34de24c7437d6b54>@@@?$__crt_seh_guarded_call@H@@QEAAH$$QEAV<lambda_751a882b2c74d4b022dec766aa51a29a>@@AEAV<lambda_628dfdc04ba53c8bfc02c9951375f3f5>@@$$QEAV<lambda_f6c7be5f7998530c34de24c7437d6b54>@@@Z@4HA 000000018003a738     libucrt:close.obj
 0002:0000b738       $unwind$__acrt_initialize_lowio$fin$0 000000018003a738     libucrt:ioinit.obj
 0002:0000b738       $unwind$?dtor$5@?0??metadata@@YAXAEBV?$FunctionCallbackInfo@VValue@v8@@@Nan@@@Z@4HA 000000018003a738     metadata.obj
 0002:0000b738       $unwind$?dtor$4@?0??metadata@@YAXAEBV?$FunctionCallbackInfo@VValue@v8@@@Nan@@@Z@4HA 000000018003a738     metadata.obj
 0002:0000b738       $unwind$?fin$0@?0???$?RV<lambda_84ec643ea9557e2f7dc01bb0e9624395>@@AEAV<lambda_ca71763b3c0644891230e4f79ea54fa6>@@V<lambda_439a761618c59b0600e24586724d733b>@@@?$__crt_seh_guarded_call@H@@QEAAH$$QEAV<lambda_84ec643ea9557e2f7dc01bb0e9624395>@@AEAV<lambda_ca71763b3c0644891230e4f79ea54fa6>@@$$QEAV<lambda_439a761618c59b0600e24586724d733b>@@@Z@4HA 000000018003a738     libucrt:setvbuf.obj
 0002:0000b738       $unwind$raise$fin$0        000000018003a738     libucrt:signal.obj
 0002:0000b738       $unwind$?fin$0@?0???$?RV<lambda_450d765d439847d4c735a33c368b5fc0>@@AEAV<lambda_44731a7d0e6d81c3e6aa82d741081786>@@V<lambda_601a2a7da3b7a96e9554ac7215c4b07c>@@@?$__crt_seh_guarded_call@P6AXH@Z@@QEAAP6AXH@Z$$QEAV<lambda_450d765d439847d4c735a33c368b5fc0>@@AEAV<lambda_44731a7d0e6d81c3e6aa82d741081786>@@$$QEAV<lambda_601a2a7da3b7a96e9554ac7215c4b07c>@@@Z@4HA 000000018003a738     libucrt:signal.obj
 0002:0000b738       $unwind$?fin$0@?0???$?RV<lambda_0ae27a3a962d80f24befdcbee591983d>@@AEAV<lambda_8d0ee55de4b1038c4002e0adecdf1839>@@V<lambda_dc504788e8f1664fe9b84e20bfb512f2>@@@?$__crt_seh_guarded_call@X@@QEAAX$$QEAV<lambda_0ae27a3a962d80f24befdcbee591983d>@@AEAV<lambda_8d0ee55de4b1038c4002e0adecdf1839>@@$$QEAV<lambda_dc504788e8f1664fe9b84e20bfb512f2>@@@Z@4HA 000000018003a738     libucrt:per_thread_data.obj
 0002:0000b738       $unwind$?dtor$2@?0???0AsyncWorker@Nan@@QEAA@PEAVCallback@1@PEBD@Z@4HA 000000018003a738     metadata.obj
 0002:0000b738       $unwind$?dtor$23@?0??format@@YAXAEBV?$FunctionCallbackInfo@VValue@v8@@@Nan@@@Z@4HA 000000018003a738     utilities.obj
 0002:0000b738       $unwind$?fin$0@?0???$?RV<lambda_0d412022a4b28cc8a401ea49574e8ae6>@@AEAV<lambda_a775ed57af18ba8e4d5dc780aa9068fe>@@V<lambda_975a71a6baa488a08f4e15f6b0339b9e>@@@?$__crt_seh_guarded_call@H@@QEAAH$$QEAV<lambda_0d412022a4b28cc8a401ea49574e8ae6>@@AEAV<lambda_a775ed57af18ba8e4d5dc780aa9068fe>@@$$QEAV<lambda_975a71a6baa488a08f4e15f6b0339b9e>@@@Z@4HA 000000018003a738     libucrt:output.obj
 0002:0000b738       $unwind$__DestructExceptionObject$filt$0 000000018003a738     libvcruntime:ehhelpers.obj
 0002:0000b738       $unwind$?filt$0@?0??FrameUnwindToState@__FrameHandler3@@SAXPEA_KPEAU_xDISPATCHER_CONTEXT@@PEBU_s_FuncInfo@@H@Z@4HA 000000018003a738     libvcruntime:frame.obj
 0002:0000b738       $unwind$?fin$1@?0??FrameUnwindToState@__FrameHandler3@@SAXPEA_KPEAU_xDISPATCHER_CONTEXT@@PEBU_s_FuncInfo@@H@Z@4HA 000000018003a738     libvcruntime:frame.obj
 0002:0000b738       $unwind$?dtor$14@?0??format@@YAXAEBV?$FunctionCallbackInfo@VValue@v8@@@Nan@@@Z@4HA 000000018003a738     utilities.obj
 0002:0000b738       $unwind$?dtor$8@?0??format@@YAXAEBV?$FunctionCallbackInfo@VValue@v8@@@Nan@@@Z@4HA 000000018003a738     utilities.obj
 0002:0000b738       $unwind$?filt$0@?0??CxxCallCatchBlock@__FrameHandler3@@SAPEAXPEAU_EXCEPTION_RECORD@@@Z@4HA 000000018003a738     libvcruntime:frame.obj
 0002:0000b738       $unwind$?dtor$0@?0???$?HDU?$char_traits@D@std@@V?$allocator@D@1@@std@@YA?AV?$basic_string@DU?$char_traits@D@std@@V?$allocator@D@2@@0@QEBDAEBV10@@Z@4HA 000000018003a738     pipeline.obj
 0002:0000b738       $unwind$?dtor$0@?0???$?HDU?$char_traits@D@std@@V?$allocator@D@1@@std@@YA?AV?$basic_string@DU?$char_traits@D@std@@V?$allocator@D@2@@0@AEBV10@QEBD@Z@4HA 000000018003a738     pipeline.obj
 0002:0000b738       $unwind$?dtor$97@?0??pipeline@@YAXAEBV?$FunctionCallbackInfo@VValue@v8@@@Nan@@@Z@4HA 000000018003a738     pipeline.obj
 0002:0000b738       $unwind$?dtor$99@?0??pipeline@@YAXAEBV?$FunctionCallbackInfo@VValue@v8@@@Nan@@@Z@4HA 000000018003a738     pipeline.obj
 0002:0000b738       $unwind$?dtor$100@?0??pipeline@@YAXAEBV?$FunctionCallbackInfo@VValue@v8@@@Nan@@@Z@4HA 000000018003a738     pipeline.obj
 0002:0000b738       $unwind$?fin$0@?0???$?RV<lambda_7777bce6b2f8c936911f934f8298dc43>@@AEAV<lambda_f03950bc5685219e0bcd2087efbe011e>@@V<lambda_3883c3dff614d5e0c5f61bb1ac94921c>@@@?$__crt_seh_guarded_call@H@@QEAAH$$QEAV<lambda_7777bce6b2f8c936911f934f8298dc43>@@AEAV<lambda_f03950bc5685219e0bcd2087efbe011e>@@$$QEAV<lambda_3883c3dff614d5e0c5f61bb1ac94921c>@@@Z@4HA 000000018003a738     libucrt:onexit.obj
 0002:0000b738       $unwind$?dtor$3@?0??IsJpeg@sharp@@YA_NAEBV?$basic_string@DU?$char_traits@D@std@@V?$allocator@D@2@@std@@@Z@4HA 000000018003a738     common.obj
 0002:0000b738       $unwind$?dtor$2@?0??IsJpeg@sharp@@YA_NAEBV?$basic_string@DU?$char_traits@D@std@@V?$allocator@D@2@@std@@@Z@4HA 000000018003a738     common.obj
 0002:0000b738       $unwind$?dtor$1@?0??IsJpeg@sharp@@YA_NAEBV?$basic_string@DU?$char_traits@D@std@@V?$allocator@D@2@@std@@@Z@4HA 000000018003a738     common.obj
 0002:0000b738       $unwind$?dtor$0@?0??IsJpeg@sharp@@YA_NAEBV?$basic_string@DU?$char_traits@D@std@@V?$allocator@D@2@@std@@@Z@4HA 000000018003a738     common.obj
 0002:0000b738       $unwind$?fin$0@?0???$?RV<lambda_aa87e3671a710a21b5dc78c0bdf72e11>@@AEAV<lambda_92619d2358a28f41a33ba319515a20b9>@@V<lambda_6992ecaafeb10aed2b74cb1fae11a551>@@@?$__crt_seh_guarded_call@X@@QEAAX$$QEAV<lambda_aa87e3671a710a21b5dc78c0bdf72e11>@@AEAV<lambda_92619d2358a28f41a33ba319515a20b9>@@$$QEAV<lambda_6992ecaafeb10aed2b74cb1fae11a551>@@@Z@4HA 000000018003a738     libucrt:per_thread_data.obj
 0002:0000b738       $unwind$?fin$0@?0???$?RV<lambda_d80eeec6fff315bfe5c115232f3240e3>@@AEAV<lambda_6e4b09c48022b2350581041d5f6b0c4c>@@V<lambda_2358e3775559c9db80273638284d5e45>@@@?$__crt_seh_guarded_call@X@@QEAAX$$QEAV<lambda_d80eeec6fff315bfe5c115232f3240e3>@@AEAV<lambda_6e4b09c48022b2350581041d5f6b0c4c>@@$$QEAV<lambda_2358e3775559c9db80273638284d5e45>@@@Z@4HA 000000018003a738     libucrt:exit.obj
 0002:0000b738       $unwind$?dtor$130@?0??Execute@PipelineWorker@@UEAAXXZ@4HA 000000018003a738     pipeline.obj
 0002:0000b738       $unwind$?fin$0@?0???$common_lseek@_J@@YA_JH_JH@Z@4HA 000000018003a738     libucrt:lseek.obj
 0002:0000b738       $unwind$?dtor$1@?0??IsPng@sharp@@YA_NAEBV?$basic_string@DU?$char_traits@D@std@@V?$allocator@D@2@@std@@@Z@4HA 000000018003a738     common.obj
 0002:0000b738       $unwind$?dtor$0@?0??IsPng@sharp@@YA_NAEBV?$basic_string@DU?$char_traits@D@std@@V?$allocator@D@2@@std@@@Z@4HA 000000018003a738     common.obj
 0002:0000b738       $unwind$?fin$0@?0???$?RV<lambda_efdfa57d1f175319df784efa44bb7b81>@@AEAV<lambda_5f0a4c1567f8adc6734073e5d1e1b35c>@@V<lambda_2e8a7d3640ea6ccb4c2413664c2db6fd>@@@?$__crt_seh_guarded_call@X@@QEAAX$$QEAV<lambda_efdfa57d1f175319df784efa44bb7b81>@@AEAV<lambda_5f0a4c1567f8adc6734073e5d1e1b35c>@@$$QEAV<lambda_2e8a7d3640ea6ccb4c2413664c2db6fd>@@@Z@4HA 000000018003a738     libucrt:mbctype.obj
 0002:0000b738       $unwind$__acrt_lowio_ensure_fh_exists$fin$0 000000018003a738     libucrt:osfinfo.obj
 0002:0000b738       $unwind$?fin$0@?0??update_thread_multibyte_data_internal@@YAPEAU__crt_multibyte_data@@QEAU__acrt_ptd@@QEAPEAU1@@Z@4HA 000000018003a738     libucrt:mbctype.obj
 0002:0000b738       $unwind$?dtor$1@?0??IsDz@sharp@@YA_NAEBV?$basic_string@DU?$char_traits@D@std@@V?$allocator@D@2@@std@@@Z@4HA 000000018003a738     common.obj
 0002:0000b738       $unwind$?dtor$1@?0??IsWebp@sharp@@YA_NAEBV?$basic_string@DU?$char_traits@D@std@@V?$allocator@D@2@@std@@@Z@4HA 000000018003a738     common.obj
 0002:0000b738       $unwind$?dtor$12@?0??DetermineImageType@sharp@@YA?AW4ImageType@1@PEBD@Z@4HA 000000018003a738     common.obj
 0002:0000b738       $unwind$?dtor$13@?0??DetermineImageType@sharp@@YA?AW4ImageType@1@PEBD@Z@4HA 000000018003a738     common.obj
 0002:0000b738       $unwind$fclose$fin$0       000000018003a738     libucrt:fclose.obj
 0002:0000b738       $unwind$?dtor$0@?0??IsWebp@sharp@@YA_NAEBV?$basic_string@DU?$char_traits@D@std@@V?$allocator@D@2@@std@@@Z@4HA 000000018003a738     common.obj
 0002:0000b738       $unwind$?dtor$0@?0??IsDz@sharp@@YA_NAEBV?$basic_string@DU?$char_traits@D@std@@V?$allocator@D@2@@std@@@Z@4HA 000000018003a738     common.obj
 0002:0000b738       $unwind$?dtor$3@?0??IsDzZip@sharp@@YA_NAEBV?$basic_string@DU?$char_traits@D@std@@V?$allocator@D@2@@std@@@Z@4HA 000000018003a738     common.obj
 0002:0000b738       $unwind$?dtor$2@?0??IsDzZip@sharp@@YA_NAEBV?$basic_string@DU?$char_traits@D@std@@V?$allocator@D@2@@std@@@Z@4HA 000000018003a738     common.obj
 0002:0000b738       $unwind$?dtor$3@?0??IsTiff@sharp@@YA_NAEBV?$basic_string@DU?$char_traits@D@std@@V?$allocator@D@2@@std@@@Z@4HA 000000018003a738     common.obj
 0002:0000b738       $unwind$?dtor$0@?0??ImageTypeId@sharp@@YA?AV?$basic_string@DU?$char_traits@D@std@@V?$allocator@D@2@@std@@W4ImageType@1@@Z@4HA 000000018003a738     common.obj
 0002:0000b738       $unwind$?dtor$2@?0??IsTiff@sharp@@YA_NAEBV?$basic_string@DU?$char_traits@D@std@@V?$allocator@D@2@@std@@@Z@4HA 000000018003a738     common.obj
 0002:0000b738       $unwind$?filt$0@?0???R<lambda_6e4b09c48022b2350581041d5f6b0c4c>@@QEBA@XZ@4HA 000000018003a738     libucrt:exit.obj
 0002:0000b738       $unwind$?dtor$0@?0??IsV@sharp@@YA_NAEBV?$basic_string@DU?$char_traits@D@std@@V?$allocator@D@2@@std@@@Z@4HA 000000018003a738     common.obj
 0002:0000b738       $unwind$?dtor$1@?0??IsV@sharp@@YA_NAEBV?$basic_string@DU?$char_traits@D@std@@V?$allocator@D@2@@std@@@Z@4HA 000000018003a738     common.obj
 0002:0000b738       $unwind$?dtor$2@?0??IsV@sharp@@YA_NAEBV?$basic_string@DU?$char_traits@D@std@@V?$allocator@D@2@@std@@@Z@4HA 000000018003a738     common.obj
 0002:0000b738       $unwind$?dtor$3@?0??IsV@sharp@@YA_NAEBV?$basic_string@DU?$char_traits@D@std@@V?$allocator@D@2@@std@@@Z@4HA 000000018003a738     common.obj
 0002:0000b738       $unwind$?dtor$1@?0??IsTiff@sharp@@YA_NAEBV?$basic_string@DU?$char_traits@D@std@@V?$allocator@D@2@@std@@@Z@4HA 000000018003a738     common.obj
 0002:0000b738       $unwind$_ctrlfp$filt$0     000000018003a738     libucrt:fpctrl.obj
 0002:0000b738       $unwind$_write$fin$0       000000018003a738     libucrt:write.obj
 0002:0000b738       $unwind$?dtor$0@?0??IsTiff@sharp@@YA_NAEBV?$basic_string@DU?$char_traits@D@std@@V?$allocator@D@2@@std@@@Z@4HA 000000018003a738     common.obj
 0002:0000b738       $unwind$?dtor$0@?0??IsDzZip@sharp@@YA_NAEBV?$basic_string@DU?$char_traits@D@std@@V?$allocator@D@2@@std@@@Z@4HA 000000018003a738     common.obj
 0002:0000b738       $unwind$_query_new_handler$fin$0 000000018003a738     libucrt:new_handler.obj
 0002:0000b738       $unwind$?dtor$1@?0??IsDzZip@sharp@@YA_NAEBV?$basic_string@DU?$char_traits@D@std@@V?$allocator@D@2@@std@@@Z@4HA 000000018003a738     common.obj
 0002:0000b738       $unwind$_IsNonwritableInCurrentImage$filt$0 000000018003a738     LIBCMT:pesect.obj
 0002:0000b740       $unwind$?IsPng@sharp@@YA_NAEBV?$basic_string@DU?$char_traits@D@std@@V?$allocator@D@2@@std@@@Z 000000018003a740     common.obj
 0002:0000b764       $stateUnwindMap$?IsDz@sharp@@YA_NAEBV?$basic_string@DU?$char_traits@D@std@@V?$allocator@D@2@@std@@@Z 000000018003a764     common.obj
 0002:0000b764       $stateUnwindMap$?IsPng@sharp@@YA_NAEBV?$basic_string@DU?$char_traits@D@std@@V?$allocator@D@2@@std@@@Z 000000018003a764     common.obj
 0002:0000b764       $stateUnwindMap$?IsWebp@sharp@@YA_NAEBV?$basic_string@DU?$char_traits@D@std@@V?$allocator@D@2@@std@@@Z 000000018003a764     common.obj
 0002:0000b778       $ip2state$?IsPng@sharp@@YA_NAEBV?$basic_string@DU?$char_traits@D@std@@V?$allocator@D@2@@std@@@Z 000000018003a778     common.obj
 0002:0000b7a0       $unwind$?IsWebp@sharp@@YA_NAEBV?$basic_string@DU?$char_traits@D@std@@V?$allocator@D@2@@std@@@Z 000000018003a7a0     common.obj
 0002:0000b7c8       $ip2state$?IsWebp@sharp@@YA_NAEBV?$basic_string@DU?$char_traits@D@std@@V?$allocator@D@2@@std@@@Z 000000018003a7c8     common.obj
 0002:0000b7f0       $unwind$?IsTiff@sharp@@YA_NAEBV?$basic_string@DU?$char_traits@D@std@@V?$allocator@D@2@@std@@@Z 000000018003a7f0     common.obj
 0002:0000b820       $ip2state$?IsTiff@sharp@@YA_NAEBV?$basic_string@DU?$char_traits@D@std@@V?$allocator@D@2@@std@@@Z 000000018003a820     common.obj
 0002:0000b868       $unwind$?IsDz@sharp@@YA_NAEBV?$basic_string@DU?$char_traits@D@std@@V?$allocator@D@2@@std@@@Z 000000018003a868     common.obj
 0002:0000b890       $ip2state$?IsDz@sharp@@YA_NAEBV?$basic_string@DU?$char_traits@D@std@@V?$allocator@D@2@@std@@@Z 000000018003a890     common.obj
 0002:0000b8b8       $unwind$?IsDzZip@sharp@@YA_NAEBV?$basic_string@DU?$char_traits@D@std@@V?$allocator@D@2@@std@@@Z 000000018003a8b8     common.obj
 0002:0000b8f0       $ip2state$?IsDzZip@sharp@@YA_NAEBV?$basic_string@DU?$char_traits@D@std@@V?$allocator@D@2@@std@@@Z 000000018003a8f0     common.obj
 0002:0000b938       $unwind$?IsV@sharp@@YA_NAEBV?$basic_string@DU?$char_traits@D@std@@V?$allocator@D@2@@std@@@Z 000000018003a938     common.obj
 0002:0000b970       $ip2state$?IsV@sharp@@YA_NAEBV?$basic_string@DU?$char_traits@D@std@@V?$allocator@D@2@@std@@@Z 000000018003a970     common.obj
 0002:0000b9b8       $unwind$?ImageTypeId@sharp@@YA?AV?$basic_string@DU?$char_traits@D@std@@V?$allocator@D@2@@std@@W4ImageType@1@@Z 000000018003a9b8     common.obj
 0002:0000b9c8       $stateUnwindMap$?ImageTypeId@sharp@@YA?AV?$basic_string@DU?$char_traits@D@std@@V?$allocator@D@2@@std@@W4ImageType@1@@Z 000000018003a9c8     common.obj
 0002:0000b9c8       $stateUnwindMap$??$?HDU?$char_traits@D@std@@V?$allocator@D@1@@std@@YA?AV?$basic_string@DU?$char_traits@D@std@@V?$allocator@D@2@@0@QEBDAEBV10@@Z 000000018003a9c8     pipeline.obj
 0002:0000b9d0       $ip2state$?ImageTypeId@sharp@@YA?AV?$basic_string@DU?$char_traits@D@std@@V?$allocator@D@2@@std@@W4ImageType@1@@Z 000000018003a9d0     common.obj
 0002:0000b9d8       $unwind$?DetermineImageType@sharp@@YA?AW4ImageType@1@PEAX_K@Z 000000018003a9d8     common.obj
 0002:0000b9fc       $stateUnwindMap$?DetermineImageType@sharp@@YA?AW4ImageType@1@PEAX_K@Z 000000018003a9fc     common.obj
 0002:0000ba50       $ip2state$?DetermineImageType@sharp@@YA?AW4ImageType@1@PEAX_K@Z 000000018003aa50     common.obj
 0002:0000bae0       $unwind$?DetermineImageType@sharp@@YA?AW4ImageType@1@PEBD@Z 000000018003aae0     common.obj
 0002:0000bb0c       $stateUnwindMap$?DetermineImageType@sharp@@YA?AW4ImageType@1@PEBD@Z 000000018003ab0c     common.obj
 0002:0000bb80       $ip2state$?DetermineImageType@sharp@@YA?AW4ImageType@1@PEBD@Z 000000018003ab80     common.obj
 0002:0000bc60       $unwind$?OpenInput@sharp@@YA?AV?$tuple@VVImage@vips@@W4ImageType@sharp@@@std@@PEAUInputDescriptor@1@W4VipsAccess@@@Z 000000018003ac60     common.obj
 0002:0000bc80       $stateUnwindMap$?OpenInput@sharp@@YA?AV?$tuple@VVImage@vips@@W4ImageType@sharp@@@std@@PEAUInputDescriptor@1@W4VipsAccess@@@Z 000000018003ac80     common.obj
 0002:0000bcd8       $tryMap$?OpenInput@sharp@@YA?AV?$tuple@VVImage@vips@@W4ImageType@sharp@@@std@@PEAUInputDescriptor@1@W4VipsAccess@@@Z 000000018003acd8     common.obj
 0002:0000bd00       $handlerMap$0$?OpenInput@sharp@@YA?AV?$tuple@VVImage@vips@@W4ImageType@sharp@@@std@@PEAUInputDescriptor@1@W4VipsAccess@@@Z 000000018003ad00     common.obj
 0002:0000bd14       $handlerMap$1$?OpenInput@sharp@@YA?AV?$tuple@VVImage@vips@@W4ImageType@sharp@@@std@@PEAUInputDescriptor@1@W4VipsAccess@@@Z 000000018003ad14     common.obj
 0002:0000bd30       $ip2state$?OpenInput@sharp@@YA?AV?$tuple@VVImage@vips@@W4ImageType@sharp@@@std@@PEAUInputDescriptor@1@W4VipsAccess@@@Z 000000018003ad30     common.obj
 0002:0000bde8       $unwind$?catch$24@?0??OpenInput@sharp@@YA?AV?$tuple@VVImage@vips@@W4ImageType@sharp@@@std@@PEAUInputDescriptor@1@W4VipsAccess@@@Z@4HA 000000018003ade8     common.obj
 0002:0000bde8       $unwind$?catch$25@?0??OpenInput@sharp@@YA?AV?$tuple@VVImage@vips@@W4ImageType@sharp@@@std@@PEAUInputDescriptor@1@W4VipsAccess@@@Z@4HA 000000018003ade8     common.obj
 0002:0000bdf8       $unwind$?HasProfile@sharp@@YA_NVVImage@vips@@@Z 000000018003adf8     common.obj
 0002:0000be0c       $stateUnwindMap$?SetExifOrientation@sharp@@YAXVVImage@vips@@H@Z 000000018003ae0c     common.obj
 0002:0000be0c       $stateUnwindMap$?ExifOrientation@sharp@@YAHVVImage@vips@@@Z 000000018003ae0c     common.obj
 0002:0000be0c       $stateUnwindMap$?HasProfile@sharp@@YA_NVVImage@vips@@@Z 000000018003ae0c     common.obj
 0002:0000be0c       $stateUnwindMap$?HasAlpha@sharp@@YA_NVVImage@vips@@@Z 000000018003ae0c     common.obj
 0002:0000be18       $ip2state$?HasProfile@sharp@@YA_NVVImage@vips@@@Z 000000018003ae18     common.obj
 0002:0000be20       $unwind$?HasAlpha@sharp@@YA_NVVImage@vips@@@Z 000000018003ae20     common.obj
 0002:0000be38       $ip2state$?HasAlpha@sharp@@YA_NVVImage@vips@@@Z 000000018003ae38     common.obj
 0002:0000be48       $unwind$?ExifOrientation@sharp@@YAHVVImage@vips@@@Z 000000018003ae48     common.obj
 0002:0000be60       $ip2state$?ExifOrientation@sharp@@YAHVVImage@vips@@@Z 000000018003ae60     common.obj
 0002:0000be70       $unwind$?SetExifOrientation@sharp@@YAXVVImage@vips@@H@Z 000000018003ae70     common.obj
 0002:0000be80       $ip2state$?SetExifOrientation@sharp@@YAXVVImage@vips@@H@Z 000000018003ae80     common.obj
 0002:0000be88       $unwind$?RemoveExifOrientation@sharp@@YAXVVImage@vips@@@Z 000000018003ae88     common.obj
 0002:0000be9c       $stateUnwindMap$?RemoveExifOrientation@sharp@@YAXVVImage@vips@@@Z 000000018003ae9c     common.obj
 0002:0000beb0       $ip2state$?RemoveExifOrientation@sharp@@YAXVVImage@vips@@@Z 000000018003aeb0     common.obj
 0002:0000bec0       $unwind$?SetDensity@sharp@@YAXVVImage@vips@@H@Z 000000018003aec0     common.obj
 0002:0000bed4       $stateUnwindMap$?SetDensity@sharp@@YAXVVImage@vips@@H@Z 000000018003aed4     common.obj
 0002:0000bee0       $ip2state$?SetDensity@sharp@@YAXVVImage@vips@@H@Z 000000018003aee0     common.obj
 0002:0000bef0       $unwind$__GSHandlerCheckCommon 000000018003aef0     LIBCMT:_gshandler_.obj
 0002:0000bef0       $unwind$__acrt_WideCharToMultiByte 000000018003aef0     libucrt:widechartomultibyte.obj
 0002:0000bef0       $unwind$?CalculateCrop@sharp@@YA?AV?$tuple@HH@std@@HHHHH@Z 000000018003aef0     common.obj
 0002:0000bef8       $chain$0$?CalculateCrop@sharp@@YA?AV?$tuple@HH@std@@HHHHH@Z 000000018003aef8     common.obj
 0002:0000bf0c       $chain$1$?CalculateCrop@sharp@@YA?AV?$tuple@HH@std@@HHHHH@Z 000000018003af0c     common.obj
 0002:0000bf1c       $unwind$__acrt_can_show_message_box 000000018003af1c     libucrt:winapi_thunks.obj
 0002:0000bf1c       $unwind$__acrt_LocaleNameToLCID 000000018003af1c     libucrt:winapi_thunks.obj
 0002:0000bf1c       $unwind$??4?$basic_string@DU?$char_traits@D@std@@V?$allocator@D@2@@std@@QEAAAEAV01@$$QEAV01@@Z 000000018003af1c     common.obj
 0002:0000bf1c       $unwind$__acrt_uninitialize_lowio 000000018003af1c     libucrt:ioinit.obj
 0002:0000bf1c       $unwind$??_GMetadataWorker@@UEAAPEAXI@Z 000000018003af1c     metadata.obj
 0002:0000bf1c       $unwind$__acrt_execute_uninitializers 000000018003af1c     libucrt:shared_initialization.obj
 0002:0000bf1c       $unwind$__acrt_stdio_begin_temporary_buffering_nolock 000000018003af1c     libucrt:_sftbuf.obj
 0002:0000bf1c       $unwind$_close_nolock      000000018003af1c     libucrt:close.obj
 0002:0000bf1c       $unwind$_updatetlocinfoEx_nolock 000000018003af1c     libucrt:locale_refcounting.obj
 0002:0000bf1c       $unwind$_RTC_Terminate     000000018003af1c     LIBCMT:_initsect_.obj
 0002:0000bf1c       $unwind$wcsncat_s          000000018003af1c     libucrt:wcsncat_s.obj
 0002:0000bf1c       $unwind$??_GAsyncWorker@Nan@@UEAAPEAXI@Z 000000018003af1c     metadata.obj
 0002:0000bf1c       $unwind$_RTC_Initialize    000000018003af1c     LIBCMT:_initsect_.obj
 0002:0000bf1c       $unwind$__acrt_stdio_allocate_buffer_nolock 000000018003af1c     libucrt:_getbuf.obj
 0002:0000bf1c       $unwind$??_Gbad_array_new_length@std@@UEAAPEAXI@Z 000000018003af1c     LIBCMT:throw_bad_alloc.obj
 0002:0000bf1c       $unwind$??$_Buynode@U?$pair@W4VipsInterpretation@@V?$basic_string@DU?$char_traits@D@std@@V?$allocator@D@2@@std@@@std@@@?$_Tree_comp_alloc@V?$_Tmap_traits@W4VipsInterpretation@@V?$basic_string@DU?$char_traits@D@std@@V?$allocator@D@2@@std@@U?$less@W4VipsInterpretation@@@3@V?$allocator@U?$pair@$$CBW4VipsInterpretation@@V?$basic_string@DU?$char_traits@D@std@@V?$allocator@D@2@@std@@@std@@@3@$0A@@std@@@std@@QEAAPEAU?$_Tree_node@U?$pair@$$CBW4VipsInterpretation@@V?$basic_string@DU?$char_traits@D@std@@V?$allocator@D@2@@std@@@std@@PEAX@1@$$QEAU?$pair@W4VipsInterpretation@@V?$basic_string@DU?$char_traits@D@std@@V?$allocator@D@2@@std@@@1@@Z 000000018003af1c     pipeline.obj
 0002:0000bf1c       $unwind$??_Gbad_function_call@std@@UEAAPEAXI@Z 000000018003af1c     libcpmt:xthrow.obj
 0002:0000bf1c       $unwind$??_Gout_of_range@std@@UEAAPEAXI@Z 000000018003af1c     libcpmt:xthrow.obj
 0002:0000bf1c       $unwind$?replace_current_thread_locale_nolock@@YAXQEAU__acrt_ptd@@QEAU__crt_locale_data@@@Z 000000018003af1c     libucrt:per_thread_data.obj
 0002:0000bf1c       $unwind$__acrt_getptd_noexit 000000018003af1c     libucrt:per_thread_data.obj
 0002:0000bf1c       $unwind$__acrt_getptd      000000018003af1c     libucrt:per_thread_data.obj
 0002:0000bf1c       $unwind$?DloadGetSRWLockFunctionPointers@@YAEXZ 000000018003af1c     DelayImp:delayhlp.obj
 0002:0000bf1c       $unwind$__acrt_errno_map_os_error 000000018003af1c     libucrt:errno.obj
 0002:0000bf1c       $unwind$??_Glength_error@std@@UEAAPEAXI@Z 000000018003af1c     libcpmt:xthrow.obj
 0002:0000bf1c       $unwind$?force_decimal_point@__crt_stdio_output@@YAXPEADQEAU__crt_locale_pointers@@@Z 000000018003af1c     libucrt:output.obj
 0002:0000bf1c       $unwind$_FindAndUnlinkFrame 000000018003af1c     libvcruntime:risctrnsctrl.obj
 0002:0000bf1c       $unwind$??_Glogic_error@std@@UEAAPEAXI@Z 000000018003af1c     libcpmt:xthrow.obj
 0002:0000bf1c       $unwind$?SetUnwindTryBlock@__FrameHandler3@@SAXPEA_KPEAU_xDISPATCHER_CONTEXT@@PEBU_s_FuncInfo@@H@Z 000000018003af1c     libvcruntime:ehstate.obj
 0002:0000bf1c       $unwind$??_Gbad_alloc@std@@UEAAPEAXI@Z 000000018003af1c     libcpmt:xthrow.obj
 0002:0000bf1c       $unwind$??_Gexception@std@@UEAAPEAXI@Z 000000018003af1c     libcpmt:xthrow.obj
 0002:0000bf1c       $unwind$__acrt_FlsSetValue 000000018003af1c     libucrt:winapi_thunks.obj
 0002:0000bf1c       $unwind$??_Gbad_exception@std@@UEAAPEAXI@Z 000000018003af1c     libvcruntime:frame.obj
 0002:0000bf1c       $unwind$??_GPipelineWorker@@UEAAPEAXI@Z 000000018003af1c     pipeline.obj
 0002:0000bf1c       $unwind$??$common_initialize_environment_nolock@D@@YAHXZ 000000018003af1c     libucrt:environment_initialization.obj
 0002:0000bf1c       $unwind$__vcrt_FlsSetValue 000000018003af1c     libvcruntime:winapi_downlevel.obj
 0002:0000bf1c       $unwind$_realloc_base      000000018003af1c     libucrt:realloc_base.obj
 0002:0000bf1c       $unwind$_fclose_nolock     000000018003af1c     libucrt:fclose.obj
 0002:0000bf1c       $unwind$_initterm_e        000000018003af1c     libucrt:initterm.obj
 0002:0000bf1c       $unwind$strncpy_s          000000018003af1c     libucrt:strncpy_s.obj
 0002:0000bf1c       $unwind$__acrt_fp_strflt_to_string 000000018003af1c     libucrt:_fptostr.obj
 0002:0000bf28       $unwind$??0?$basic_string@DU?$char_traits@D@std@@V?$allocator@D@2@@std@@QEAA@AEBV01@@Z 000000018003af28     common.obj
 0002:0000bf3c       $unwind$?assign@?$basic_string@DU?$char_traits@D@std@@V?$allocator@D@2@@std@@QEAAAEAV12@QEBD_K@Z 000000018003af3c     common.obj
 0002:0000bf50       $chain$0$?assign@?$basic_string@DU?$char_traits@D@std@@V?$allocator@D@2@@std@@QEAAAEAV12@QEBD_K@Z 000000018003af50     common.obj
 0002:0000bf64       $chain$1$?assign@?$basic_string@DU?$char_traits@D@std@@V?$allocator@D@2@@std@@QEAAAEAV12@QEBD_K@Z 000000018003af64     common.obj
 0002:0000bf74       $chain$2$?assign@?$basic_string@DU?$char_traits@D@std@@V?$allocator@D@2@@std@@QEAAAEAV12@QEBD_K@Z 000000018003af74     common.obj
 0002:0000bf88       $unwind$__doserrno         000000018003af88     libucrt:errno.obj
 0002:0000bf88       $unwind$?_Xlength@?$vector@V?$Local@VObject@v8@@@v8@@V?$allocator@V?$Local@VObject@v8@@@v8@@@std@@@std@@CAXXZ 000000018003af88     common.obj
 0002:0000bf88       $unwind$__pctype_func      000000018003af88     libucrt:ctype.obj
 0002:0000bf88       $unwind$?state_case_size@?$output_processor@_WV?$stream_output_adapter@_W@__crt_stdio_output@@V?$standard_base@_WV?$stream_output_adapter@_W@__crt_stdio_output@@@2@@__crt_stdio_output@@AEAA_NXZ 000000018003af88     libucrt:output.obj
 0002:0000bf88       $unwind$__acrt_release_locale_ref 000000018003af88     libucrt:locale_refcounting.obj
 0002:0000bf88       $unwind$__dcrt_terminate_console_output 000000018003af88     libucrt:initcon.obj
 0002:0000bf88       $unwind$?dllmain_crt_dispatch@@YAHQEAUHINSTANCE__@@KQEAX@Z 000000018003af88     LIBCMT:dll_dllmain.obj
 0002:0000bf88       $unwind$_fileno            000000018003af88     libucrt:fileno.obj
 0002:0000bf88       $unwind$__report_rangecheckfailure 000000018003af88     LIBCMT:gs_report.obj
 0002:0000bf88       $unwind$__scrt_initialize_default_local_stdio_options 000000018003af88     LIBCMT:default_local_stdio_options.obj
 0002:0000bf88       $unwind$__scrt_acquire_startup_lock 000000018003af88     LIBCMT:utility.obj
 0002:0000bf88       $unwind$__scrt_dllmain_before_initialize_c 000000018003af88     LIBCMT:utility.obj
 0002:0000bf88       $unwind$__scrt_dllmain_after_initialize_c 000000018003af88     LIBCMT:utility.obj
 0002:0000bf88       $unwind$__scrt_dllmain_uninitialize_c 000000018003af88     LIBCMT:utility.obj
 0002:0000bf88       $unwind$__scrt_dllmain_uninitialize_critical 000000018003af88     LIBCMT:utility.obj
 0002:0000bf88       $unwind$_errno             000000018003af88     libucrt:errno.obj
 0002:0000bf88       $unwind$__acrt_initialize_ptd 000000018003af88     libucrt:per_thread_data.obj
 0002:0000bf88       $unwind$__scrt_dllmain_crt_thread_detach 000000018003af88     LIBCMT:utility.obj
 0002:0000bf88       $unwind$__acrt_uninitialize_ptd 000000018003af88     libucrt:per_thread_data.obj
 0002:0000bf88       $unwind$??$?8DU?$char_traits@D@std@@V?$allocator@D@1@@std@@YA_NAEBV?$basic_string@DU?$char_traits@D@std@@V?$allocator@D@2@@0@QEBD@Z 000000018003af88     pipeline.obj
 0002:0000bf88       $unwind$?_Xran@?$_String_val@U?$_Simple_types@D@std@@@std@@SAXXZ 000000018003af88     common.obj
 0002:0000bf88       $unwind$??$?9DU?$char_traits@D@std@@V?$allocator@D@1@@std@@YA_NAEBV?$basic_string@DU?$char_traits@D@std@@V?$allocator@D@2@@0@0@Z 000000018003af88     pipeline.obj
 0002:0000bf88       $unwind$abort              000000018003af88     libucrt:abort.obj
 0002:0000bf88       $unwind$?_Xlen@?$basic_string@DU?$char_traits@D@std@@V?$allocator@D@2@@std@@SAXXZ 000000018003af88     common.obj
 0002:0000bf88       $unwind$uninitialize_allocated_io_buffers 000000018003af88     libucrt:initialization.obj
 0002:0000bf88       $unwind$__acrt_initialize_heap 000000018003af88     libucrt:heap_handle.obj
 0002:0000bf88       $unwind$?_Equal@?$basic_string@DU?$char_traits@D@std@@V?$allocator@D@2@@std@@QEBA_NQEBD@Z 000000018003af88     pipeline.obj
 0002:0000bf88       $unwind$uninitialize_environment 000000018003af88     libucrt:initialization.obj
 0002:0000bf88       $unwind$?state_case_size@?$output_processor@_WV?$string_output_adapter@_W@__crt_stdio_output@@V?$standard_base@_WV?$string_output_adapter@_W@__crt_stdio_output@@@2@@__crt_stdio_output@@AEAA_NXZ 000000018003af88     libucrt:output.obj
 0002:0000bf88       $unwind$initialize_c       000000018003af88     libucrt:initialization.obj
 0002:0000bf88       $unwind$__acrt_thread_detach 000000018003af88     libucrt:initialization.obj
 0002:0000bf88       $unwind$__acrt_thread_attach 000000018003af88     libucrt:initialization.obj
 0002:0000bf88       $unwind$__acrt_uninitialize_critical 000000018003af88     libucrt:initialization.obj
 0002:0000bf88       $unwind$__acrt_uninitialize 000000018003af88     libucrt:initialization.obj
 0002:0000bf88       $unwind$__scrt_dllmain_crt_thread_attach 000000018003af88     LIBCMT:utility.obj
 0002:0000bf88       $unwind$tolower            000000018003af88     libucrt:tolower_toupper.obj
 0002:0000bf88       $unwind$_set_errno_from_matherr 000000018003af88     libucrt:fpexcept.obj
 0002:0000bf88       $unwind$_GetImageBase      000000018003af88     libvcruntime:risctrnsctrl.obj
 0002:0000bf88       $unwind$_GetThrowImageBase 000000018003af88     libvcruntime:risctrnsctrl.obj
 0002:0000bf88       $unwind$__GSHandlerCheck   000000018003af88     LIBCMT:_gshandler_.obj
 0002:0000bf88       $unwind$?initialize_multibyte@@YAHXZ 000000018003af88     libucrt:multibyte_initializer.obj
 0002:0000bf88       $unwind$__std_terminate    000000018003af88     libvcruntime:ehhelpers.obj
 0002:0000bf88       $unwind$_msize_base        000000018003af88     libucrt:msize.obj
 0002:0000bf88       $unwind$__FrameUnwindFilter 000000018003af88     libvcruntime:ehhelpers.obj
 0002:0000bf88       $unwind$_purecall          000000018003af88     libvcruntime:purevirt.obj
 0002:0000bf88       $unwind$?_Xlength@?$vector@NV?$allocator@N@std@@@std@@CAXXZ 000000018003af88     operations.obj
 0002:0000bf88       $unwind$?DloadReleaseSectionWriteAccess@@YAXXZ 000000018003af88     DelayImp:delayhlp.obj
 0002:0000bf88       $unwind$__vcrt_initialize  000000018003af88     libvcruntime:initialization.obj
 0002:0000bf88       $unwind$__acrt_DownlevelLocaleNameToLCID 000000018003af88     libucrt:lcidtoname_downlevel.obj
 0002:0000bf88       $unwind$__vcrt_uninitialize 000000018003af88     libvcruntime:initialization.obj
 0002:0000bf88       $unwind$??$uninitialize_environment_internal@_W@@YAXAEAPEAPEA_W@Z 000000018003af88     libucrt:environment_initialization.obj
 0002:0000bf88       $unwind$??$uninitialize_environment_internal@D@@YAXAEAPEAPEAD@Z 000000018003af88     libucrt:environment_initialization.obj
 0002:0000bf88       $unwind$__dcrt_uninitialize_environments_nolock 000000018003af88     libucrt:environment_initialization.obj
 0002:0000bf88       $unwind$_set_error_mode    000000018003af88     libucrt:set_error_mode.obj
 0002:0000bf88       $unwind$__vcrt_uninitialize_critical 000000018003af88     libvcruntime:initialization.obj
 0002:0000bf88       $unwind$__vcrt_thread_attach 000000018003af88     libvcruntime:initialization.obj
 0002:0000bf88       $unwind$__vcrt_thread_detach 000000018003af88     libvcruntime:initialization.obj
 0002:0000bf88       $unwind$_get_osfhandle     000000018003af88     libucrt:osfinfo.obj
 0002:0000bf88       $unwind$__vcrt_initialize_ptd 000000018003af88     libvcruntime:per_thread_data.obj
 0002:0000bf88       $unwind$__vcrt_uninitialize_ptd 000000018003af88     libvcruntime:per_thread_data.obj
 0002:0000bf88       $unwind$__vcrt_getptd      000000018003af88     libvcruntime:per_thread_data.obj
 0002:0000bf88       $unwind$__vcrt_freefls     000000018003af88     libvcruntime:per_thread_data.obj
 0002:0000bf88       $unwind$?GetCurrentState@__FrameHandler3@@SAHPEA_KPEAU_xDISPATCHER_CONTEXT@@PEBU_s_FuncInfo@@@Z 000000018003af88     libvcruntime:ehstate.obj
 0002:0000bf88       $unwind$?Error@PipelineWorker@@AEAAXXZ 000000018003af88     pipeline.obj
 0002:0000bf88       $unwind$__acrt_initialize_command_line 000000018003af88     libucrt:argv_data.obj
 0002:0000bf88       $unwind$__acrt_initialize_multibyte 000000018003af88     libucrt:mbctype.obj
 0002:0000bf88       $unwind$?__c32rtomb_utf8@__crt_mbstring@@YA_KPEAD_UPEAU_Mbstatet@@@Z 000000018003af88     libucrt:c32rtomb.obj
 0002:0000bf88       $unwind$_statfp            000000018003af88     libucrt:fpctrl.obj
 0002:0000bf88       $unwind$_stricmp           000000018003af88     libucrt:stricmp.obj
 0002:0000bf88       $unwind$_isatty            000000018003af88     libucrt:isatty.obj
 0002:0000bf88       $unwind$__acrt_update_thread_multibyte_data 000000018003af88     libucrt:mbctype.obj
 0002:0000bf88       $unwind$_invoke_watson     000000018003af88     libucrt:invalid_parameter.obj
 0002:0000bf88       $unwind$?_Xlength@?$vector@PEAUInputDescriptor@sharp@@V?$allocator@PEAUInputDescriptor@sharp@@@std@@@std@@CAXXZ 000000018003af88     pipeline.obj
 0002:0000bf90       $unwind$??$New@VString@v8@@V?$basic_string@DU?$char_traits@D@std@@V?$allocator@D@2@@std@@@Nan@@YA?AV?$MaybeLocal@VString@v8@@@v8@@V?$basic_string@DU?$char_traits@D@std@@V?$allocator@D@2@@std@@@Z 000000018003af90     common.obj
 0002:0000bfac       $stateUnwindMap$??$New@VString@v8@@V?$basic_string@DU?$char_traits@D@std@@V?$allocator@D@2@@std@@@Nan@@YA?AV?$MaybeLocal@VString@v8@@@v8@@V?$basic_string@DU?$char_traits@D@std@@V?$allocator@D@2@@std@@@Z 000000018003afac     common.obj
 0002:0000bfb8       $ip2state$??$New@VString@v8@@V?$basic_string@DU?$char_traits@D@std@@V?$allocator@D@2@@std@@@Nan@@YA?AV?$MaybeLocal@VString@v8@@@v8@@V?$basic_string@DU?$char_traits@D@std@@V?$allocator@D@2@@std@@@Z 000000018003afb8     common.obj
 0002:0000bfc8       $unwind$??$AttrAs@VObject@v8@@@sharp@@YA?AV?$Local@VObject@v8@@@v8@@V12@V?$basic_string@DU?$char_traits@D@std@@V?$allocator@D@2@@std@@@Z 000000018003afc8     common.obj
 0002:0000bfc8       $unwind$??$AttrAs@VFunction@v8@@@sharp@@YA?AV?$Local@VFunction@v8@@@v8@@V?$Local@VObject@v8@@@2@V?$basic_string@DU?$char_traits@D@std@@V?$allocator@D@2@@std@@@Z 000000018003afc8     pipeline.obj
 0002:0000bfec       $stateUnwindMap$??$AttrAs@VFunction@v8@@@sharp@@YA?AV?$Local@VFunction@v8@@@v8@@V?$Local@VObject@v8@@@2@V?$basic_string@DU?$char_traits@D@std@@V?$allocator@D@2@@std@@@Z 000000018003afec     pipeline.obj
 0002:0000bfec       $stateUnwindMap$??$AttrAs@VObject@v8@@@sharp@@YA?AV?$Local@VObject@v8@@@v8@@V12@V?$basic_string@DU?$char_traits@D@std@@V?$allocator@D@2@@std@@@Z 000000018003afec     common.obj
 0002:0000c000       $ip2state$??$AttrAs@VFunction@v8@@@sharp@@YA?AV?$Local@VFunction@v8@@@v8@@V?$Local@VObject@v8@@@2@V?$basic_string@DU?$char_traits@D@std@@V?$allocator@D@2@@std@@@Z 000000018003b000     pipeline.obj
 0002:0000c000       $ip2state$??$AttrAs@VObject@v8@@@sharp@@YA?AV?$Local@VObject@v8@@@v8@@V12@V?$basic_string@DU?$char_traits@D@std@@V?$allocator@D@2@@std@@@Z 000000018003b000     common.obj
 0002:0000c020       $unwind$??$AttrTo@I@sharp@@YAIV?$Local@VObject@v8@@@v8@@V?$basic_string@DU?$char_traits@D@std@@V?$allocator@D@2@@std@@@Z 000000018003b020     common.obj
 0002:0000c044       $stateUnwindMap$??$AttrTo@H@sharp@@YAHV?$Local@VObject@v8@@@v8@@V?$basic_string@DU?$char_traits@D@std@@V?$allocator@D@2@@std@@@Z 000000018003b044     pipeline.obj
 0002:0000c044       $stateUnwindMap$??$AttrTo@_N@sharp@@YA_NV?$Local@VObject@v8@@@v8@@V?$basic_string@DU?$char_traits@D@std@@V?$allocator@D@2@@std@@@Z 000000018003b044     pipeline.obj
 0002:0000c044       $stateUnwindMap$??$AttrTo@I@sharp@@YAIV?$Local@VObject@v8@@@v8@@V?$basic_string@DU?$char_traits@D@std@@V?$allocator@D@2@@std@@@Z 000000018003b044     common.obj
 0002:0000c060       $ip2state$??$AttrTo@I@sharp@@YAIV?$Local@VObject@v8@@@v8@@V?$basic_string@DU?$char_traits@D@std@@V?$allocator@D@2@@std@@@Z 000000018003b060     common.obj
 0002:0000c090       $unwind$??$_Emplace_reallocate@AEBV?$Local@VObject@v8@@@v8@@@?$vector@V?$Local@VObject@v8@@@v8@@V?$allocator@V?$Local@VObject@v8@@@v8@@@std@@@std@@QEAAPEAV?$Local@VObject@v8@@@v8@@QEAV23@AEBV23@@Z 000000018003b090     common.obj
 0002:0000c0a0       $chain$3$??$_Emplace_reallocate@AEBV?$Local@VObject@v8@@@v8@@@?$vector@V?$Local@VObject@v8@@@v8@@V?$allocator@V?$Local@VObject@v8@@@v8@@@std@@@std@@QEAAPEAV?$Local@VObject@v8@@@v8@@QEAV23@AEBV23@@Z 000000018003b0a0     common.obj
 0002:0000c0c0       $chain$4$??$_Emplace_reallocate@AEBV?$Local@VObject@v8@@@v8@@@?$vector@V?$Local@VObject@v8@@@v8@@V?$allocator@V?$Local@VObject@v8@@@v8@@@std@@@std@@QEAAPEAV?$Local@VObject@v8@@@v8@@QEAV23@AEBV23@@Z 000000018003b0c0     common.obj
 0002:0000c0d0       $chain$5$??$_Emplace_reallocate@AEBV?$Local@VObject@v8@@@v8@@@?$vector@V?$Local@VObject@v8@@@v8@@V?$allocator@V?$Local@VObject@v8@@@v8@@@std@@@std@@QEAAPEAV?$Local@VObject@v8@@@v8@@QEAV23@AEBV23@@Z 000000018003b0d0     common.obj
 0002:0000c0f0       $unwind$?Set@Nan@@YA?AV?$Maybe@_N@1@V?$Local@VObject@v8@@@v8@@V?$Local@VValue@v8@@@4@1@Z 000000018003b0f0     metadata.obj
 0002:0000c10c       $stateUnwindMap$?Set@Nan@@YA?AV?$Maybe@_N@1@V?$Local@VObject@v8@@@v8@@V?$Local@VValue@v8@@@4@1@Z 000000018003b10c     metadata.obj
 0002:0000c118       $ip2state$?Set@Nan@@YA?AV?$Maybe@_N@1@V?$Local@VObject@v8@@@v8@@V?$Local@VValue@v8@@@4@1@Z 000000018003b118     metadata.obj
 0002:0000c130       $unwind$?New@?$Factory@VUint32@v8@@@imp@Nan@@SA?AV?$Local@VUint32@v8@@@v8@@H@Z 000000018003b130     metadata.obj
 0002:0000c144       $stateUnwindMap$?New@?$Factory@VUint32@v8@@@imp@Nan@@SA?AV?$Local@VUint32@v8@@@v8@@H@Z 000000018003b144     metadata.obj
 0002:0000c150       $ip2state$?New@?$Factory@VUint32@v8@@@imp@Nan@@SA?AV?$Local@VUint32@v8@@@v8@@H@Z 000000018003b150     metadata.obj
 0002:0000c168       $unwind$??0AsyncResource@Nan@@QEAA@PEBDV?$Local@VObject@v8@@@v8@@@Z 000000018003b168     metadata.obj
 0002:0000c17c       $unwind$??1AsyncResource@Nan@@QEAA@XZ 000000018003b17c     metadata.obj
 0002:0000c190       $ip2state$??1AsyncResource@Nan@@QEAA@XZ 000000018003b190     metadata.obj
 0002:0000c198       $unwind$iswctype           000000018003b198     libucrt:iswctype.obj
 0002:0000c198       $unwind$??0Callback@Nan@@QEAA@AEBV?$Local@VFunction@v8@@@v8@@@Z 000000018003b198     metadata.obj
 0002:0000c1a4       $unwind$?Call@Callback@Nan@@QEBA?AV?$Local@VValue@v8@@@v8@@HQEAV34@@Z 000000018003b1a4     metadata.obj
 0002:0000c1cc       $stateUnwindMap$?Call@Callback@Nan@@QEBA?AV?$Local@VValue@v8@@@v8@@HQEAV34@@Z 000000018003b1cc     metadata.obj
 0002:0000c1f0       $ip2state$?Call@Callback@Nan@@QEBA?AV?$Local@VValue@v8@@@v8@@HQEAV34@@Z 000000018003b1f0     metadata.obj
 0002:0000c238       $unwind$?Call_@Callback@Nan@@AEBA?AV?$MaybeLocal@VValue@v8@@@v8@@PEAVIsolate@4@V?$Local@VObject@v8@@@4@HQEAV?$Local@VValue@v8@@@4@PEAVAsyncResource@2@@Z 000000018003b238     metadata.obj
 0002:0000c250       $stateUnwindMap$?Call_@Callback@Nan@@AEBA?AV?$MaybeLocal@VValue@v8@@@v8@@PEAVIsolate@4@V?$Local@VObject@v8@@@4@HQEAV?$Local@VValue@v8@@@4@PEAVAsyncResource@2@@Z 000000018003b250     metadata.obj
 0002:0000c258       $ip2state$?Call_@Callback@Nan@@AEBA?AV?$MaybeLocal@VValue@v8@@@v8@@PEAVIsolate@4@V?$Local@VObject@v8@@@4@HQEAV?$Local@VValue@v8@@@4@PEAVAsyncResource@2@@Z 000000018003b258     metadata.obj
 0002:0000c270       $unwind$??0AsyncWorker@Nan@@QEAA@PEAVCallback@1@PEBD@Z 000000018003b270     metadata.obj
 0002:0000c284       $stateUnwindMap$??0AsyncWorker@Nan@@QEAA@PEAVCallback@1@PEBD@Z 000000018003b284     metadata.obj
 0002:0000c2a0       $ip2state$??0AsyncWorker@Nan@@QEAA@PEAVCallback@1@PEBD@Z 000000018003b2a0     metadata.obj
 0002:0000c2c0       $unwind$??1AsyncWorker@Nan@@UEAA@XZ 000000018003b2c0     metadata.obj
 0002:0000c2d4       $stateUnwindMap$??1AsyncWorker@Nan@@UEAA@XZ 000000018003b2d4     metadata.obj
 0002:0000c2e8       $ip2state$??1AsyncWorker@Nan@@UEAA@XZ 000000018003b2e8     metadata.obj
 0002:0000c310       $unwind$?WorkComplete@AsyncWorker@Nan@@UEAAXXZ 000000018003b310     metadata.obj
 0002:0000c324       $stateUnwindMap$?WorkComplete@AsyncWorker@Nan@@UEAAXXZ 000000018003b324     metadata.obj
 0002:0000c340       $ip2state$?WorkComplete@AsyncWorker@Nan@@UEAAXXZ 000000018003b340     metadata.obj
 0002:0000c360       $unwind$?GetFromPersistent@AsyncWorker@Nan@@QEBA?AV?$Local@VValue@v8@@@v8@@I@Z 000000018003b360     metadata.obj
 0002:0000c378       $stateUnwindMap$?GetFromPersistent@AsyncWorker@Nan@@QEBA?AV?$Local@VValue@v8@@@v8@@I@Z 000000018003b378     metadata.obj
 0002:0000c388       $ip2state$?GetFromPersistent@AsyncWorker@Nan@@QEBA?AV?$Local@VValue@v8@@@v8@@I@Z 000000018003b388     metadata.obj
 0002:0000c3b0       $unwind$?HandleOKCallback@AsyncWorker@Nan@@MEAAXXZ 000000018003b3b0     metadata.obj
 0002:0000c3c4       $stateUnwindMap$?HandleErrorCallback@AsyncWorker@Nan@@MEAAXXZ 000000018003b3c4     metadata.obj
 0002:0000c3c4       $stateUnwindMap$?HandleOKCallback@AsyncWorker@Nan@@MEAAXXZ 000000018003b3c4     metadata.obj
 0002:0000c3d0       $ip2state$?HandleOKCallback@AsyncWorker@Nan@@MEAAXXZ 000000018003b3d0     metadata.obj
 0002:0000c3e8       $unwind$?HandleErrorCallback@AsyncWorker@Nan@@MEAAXXZ 000000018003b3e8     metadata.obj
 0002:0000c400       $ip2state$?HandleErrorCallback@AsyncWorker@Nan@@MEAAXXZ 000000018003b400     metadata.obj
 0002:0000c418       $unwind$??1?$Persistent@VObject@v8@@V?$NonCopyablePersistentTraits@VObject@v8@@@2@@Nan@@QEAA@XZ 000000018003b418     metadata.obj
 0002:0000c428       $stateUnwindMap$?_Do_call@?$_Func_impl_no_alloc@UEntropyStrategy@sharp@@NVVImage@vips@@@std@@EEAAN$$QEAVVImage@vips@@@Z 000000018003b428     pipeline.obj
 0002:0000c428       $stateUnwindMap$?_Do_call@?$_Func_impl_no_alloc@UAttentionStrategy@sharp@@NVVImage@vips@@@std@@EEAAN$$QEAVVImage@vips@@@Z 000000018003b428     pipeline.obj
 0002:0000c428       $stateUnwindMap$??1?$Persistent@VObject@v8@@V?$NonCopyablePersistentTraits@VObject@v8@@@2@@Nan@@QEAA@XZ 000000018003b428     metadata.obj
 0002:0000c428       $stateUnwindMap$?erase@?$_Tree@V?$_Tmap_traits@W4VipsInterpretation@@V?$basic_string@DU?$char_traits@D@std@@V?$allocator@D@2@@std@@U?$less@W4VipsInterpretation@@@3@V?$allocator@U?$pair@$$CBW4VipsInterpretation@@V?$basic_string@DU?$char_traits@D@std@@V?$allocator@D@2@@std@@@std@@@3@$0A@@std@@@std@@QEAA?AV?$_Tree_iterator@V?$_Tree_val@U?$_Tree_simple_types@U?$pair@$$CBW4VipsInterpretation@@V?$basic_string@DU?$char_traits@D@std@@V?$allocator@D@2@@std@@@std@@@std@@@std@@@2@V?$_Tree_const_iterator@V?$_Tree_val@U?$_Tree_simple_types@U?$pair@$$CBW4VipsInterpretation@@V?$basic_string@DU?$char_traits@D@std@@V?$allocator@D@2@@std@@@std@@@std@@@std@@@2@0@Z 000000018003b428     pipeline.obj
 0002:0000c428       $stateUnwindMap$??1?$function@$$A6ANVVImage@vips@@@Z@std@@QEAA@XZ 000000018003b428     operations.obj
 0002:0000c428       $stateUnwindMap$??1?$_Func_class@NVVImage@vips@@@std@@QEAA@XZ 000000018003b428     operations.obj
 0002:0000c430       $unwind$??0MetadataWorker@@QEAA@PEAVCallback@Nan@@PEAUMetadataBaton@@V?$vector@V?$Local@VObject@v8@@@v8@@V?$allocator@V?$Local@VObject@v8@@@v8@@@std@@@std@@@Z 000000018003b430     metadata.obj
 0002:0000c450       $stateUnwindMap$??0MetadataWorker@@QEAA@PEAVCallback@Nan@@PEAUMetadataBaton@@V?$vector@V?$Local@VObject@v8@@@v8@@V?$allocator@V?$Local@VObject@v8@@@v8@@@std@@@std@@@Z 000000018003b450     metadata.obj
 0002:0000c478       $ip2state$??0MetadataWorker@@QEAA@PEAVCallback@Nan@@PEAUMetadataBaton@@V?$vector@V?$Local@VObject@v8@@@v8@@V?$allocator@V?$Local@VObject@v8@@@v8@@@std@@@std@@@Z 000000018003b478     metadata.obj
 0002:0000c4a8       $unwind$?Execute@MetadataWorker@@UEAAXXZ 000000018003b4a8     metadata.obj
 0002:0000c4c4       $stateUnwindMap$?Execute@MetadataWorker@@UEAAXXZ 000000018003b4c4     metadata.obj
 0002:0000c4fc       $tryMap$?Execute@MetadataWorker@@UEAAXXZ 000000018003b4fc     metadata.obj
 0002:0000c510       $handlerMap$0$?Execute@MetadataWorker@@UEAAXXZ 000000018003b510     metadata.obj
 0002:0000c530       $ip2state$?Execute@MetadataWorker@@UEAAXXZ 000000018003b530     metadata.obj
 0002:0000c5a0       $unwind$?catch$18@?0??Execute@MetadataWorker@@UEAAXXZ@4HA 000000018003b5a0     metadata.obj
 0002:0000c5b0       $unwind$?HandleOKCallback@MetadataWorker@@UEAAXXZ 000000018003b5b0     metadata.obj
 0002:0000c5d0       $stateUnwindMap$?HandleOKCallback@MetadataWorker@@UEAAXXZ 000000018003b5d0     metadata.obj
 0002:0000c660       $ip2state$?HandleOKCallback@MetadataWorker@@UEAAXXZ 000000018003b660     metadata.obj
 0002:0000c778       $unwind$?metadata@@YAXAEBV?$FunctionCallbackInfo@VValue@v8@@@Nan@@@Z 000000018003b778     metadata.obj
 0002:0000c794       $stateUnwindMap$?metadata@@YAXAEBV?$FunctionCallbackInfo@VValue@v8@@@Nan@@@Z 000000018003b794     metadata.obj
 0002:0000c7c0       $ip2state$?metadata@@YAXAEBV?$FunctionCallbackInfo@VValue@v8@@@Nan@@@Z 000000018003b7c0     metadata.obj
 0002:0000c800       $unwind$__std_exception_copy 000000018003b800     libvcruntime:std_exception.obj
 0002:0000c800       $unwind$?initialize_stdio_handles_nolock@@YAXXZ 000000018003b800     libucrt:ioinit.obj
 0002:0000c800       $unwind$??0?$vector@V?$Local@VObject@v8@@@v8@@V?$allocator@V?$Local@VObject@v8@@@v8@@@std@@@std@@QEAA@AEBV01@@Z 000000018003b800     metadata.obj
 0002:0000c800       $unwind$_free_osfhnd       000000018003b800     libucrt:osfinfo.obj
 0002:0000c814       $unwind$?append@?$basic_string@DU?$char_traits@D@std@@V?$allocator@D@2@@std@@QEAAAEAV12@QEBD_K@Z 000000018003b814     metadata.obj
 0002:0000c820       $chain$0$?append@?$basic_string@DU?$char_traits@D@std@@V?$allocator@D@2@@std@@QEAAAEAV12@QEBD_K@Z 000000018003b820     metadata.obj
 0002:0000c834       $chain$1$?append@?$basic_string@DU?$char_traits@D@std@@V?$allocator@D@2@@std@@QEAAAEAV12@QEBD_K@Z 000000018003b834     metadata.obj
 0002:0000c844       $unwind$??$?4VVImage@vips@@W4ImageType@sharp@@$0A@@?$tuple@AEAVVImage@vips@@AEAW4ImageType@sharp@@@std@@QEAAAEAV01@$$QEAV?$tuple@VVImage@vips@@W4ImageType@sharp@@@1@@Z 000000018003b844     metadata.obj
 0002:0000c858       $ip2state$??$?4VVImage@vips@@W4ImageType@sharp@@$0A@@?$tuple@AEAVVImage@vips@@AEAW4ImageType@sharp@@@std@@QEAAAEAV01@$$QEAV?$tuple@VVImage@vips@@W4ImageType@sharp@@@1@@Z 000000018003b858     metadata.obj
 0002:0000c860       $unwind$??$_Reallocate_grow_by@V<lambda_65e615be2a453ca0576c979606f46740>@@PEBD_K@?$basic_string@DU?$char_traits@D@std@@V?$allocator@D@2@@std@@QEAAAEAV01@_KV<lambda_65e615be2a453ca0576c979606f46740>@@PEBD_K@Z 000000018003b860     metadata.obj
 0002:0000c870       $chain$3$??$_Reallocate_grow_by@V<lambda_65e615be2a453ca0576c979606f46740>@@PEBD_K@?$basic_string@DU?$char_traits@D@std@@V?$allocator@D@2@@std@@QEAAAEAV01@_KV<lambda_65e615be2a453ca0576c979606f46740>@@PEBD_K@Z 000000018003b870     metadata.obj
 0002:0000c890       $chain$5$??$_Reallocate_grow_by@V<lambda_65e615be2a453ca0576c979606f46740>@@PEBD_K@?$basic_string@DU?$char_traits@D@std@@V?$allocator@D@2@@std@@QEAAAEAV01@_KV<lambda_65e615be2a453ca0576c979606f46740>@@PEBD_K@Z 000000018003b890     metadata.obj
 0002:0000c8b0       $chain$6$??$_Reallocate_grow_by@V<lambda_65e615be2a453ca0576c979606f46740>@@PEBD_K@?$basic_string@DU?$char_traits@D@std@@V?$allocator@D@2@@std@@QEAAAEAV01@_KV<lambda_65e615be2a453ca0576c979606f46740>@@PEBD_K@Z 000000018003b8b0     metadata.obj
 0002:0000c8c0       $unwind$?Composite@sharp@@YA?AVVImage@vips@@V23@0H@Z 000000018003b8c0     operations.obj
 0002:0000c8e8       $stateUnwindMap$?Composite@sharp@@YA?AVVImage@vips@@V23@0H@Z 000000018003b8e8     operations.obj
 0002:0000c920       $ip2state$?Composite@sharp@@YA?AVVImage@vips@@V23@0H@Z 000000018003b920     operations.obj
 0002:0000c988       $unwind$?Composite@sharp@@YA?AVVImage@vips@@V23@0HH@Z 000000018003b988     operations.obj
 0002:0000c9b0       $stateUnwindMap$?Composite@sharp@@YA?AVVImage@vips@@V23@0HH@Z 000000018003b9b0     operations.obj
 0002:0000c9f0       $ip2state$?Composite@sharp@@YA?AVVImage@vips@@V23@0HH@Z 000000018003b9f0     operations.obj
 0002:0000ca58       $unwind$?IsInputValidForComposition@sharp@@YA_NVVImage@vips@@0@Z 000000018003ba58     operations.obj
 0002:0000ca78       $stateUnwindMap$?IsInputValidForComposition@sharp@@YA_NVVImage@vips@@0@Z 000000018003ba78     operations.obj
 0002:0000ca88       $ip2state$?IsInputValidForComposition@sharp@@YA_NVVImage@vips@@0@Z 000000018003ba88     operations.obj
 0002:0000caa8       $unwind$?CompositeImage@sharp@@YA?AVVImage@vips@@V23@0@Z 000000018003baa8     operations.obj
 0002:0000cac4       $stateUnwindMap$?CompositeImage@sharp@@YA?AVVImage@vips@@V23@0@Z 000000018003bac4     operations.obj
 0002:0000cb30       $ip2state$?CompositeImage@sharp@@YA?AVVImage@vips@@V23@0@Z 000000018003bb30     operations.obj
 0002:0000cbb8       $unwind$?Cutout@sharp@@YA?AVVImage@vips@@V23@0H@Z 000000018003bbb8     operations.obj
 0002:0000cbe8       $stateUnwindMap$?Cutout@sharp@@YA?AVVImage@vips@@V23@0H@Z 000000018003bbe8     operations.obj
 0002:0000cc40       $ip2state$?Cutout@sharp@@YA?AVVImage@vips@@V23@0H@Z 000000018003bc40     operations.obj
 0002:0000ccd8       $unwind$?Normalize@sharp@@YA?AVVImage@vips@@V23@@Z 000000018003bcd8     operations.obj
 0002:0000cd00       $stateUnwindMap$?Normalize@sharp@@YA?AVVImage@vips@@V23@@Z 000000018003bd00     operations.obj
 0002:0000cd70       $ip2state$?Normalize@sharp@@YA?AVVImage@vips@@V23@@Z 000000018003bd70     operations.obj
 0002:0000cdd8       $unwind$?Gamma@sharp@@YA?AVVImage@vips@@V23@N@Z 000000018003bdd8     operations.obj
 0002:0000cdf4       $stateUnwindMap$?Gamma@sharp@@YA?AVVImage@vips@@V23@N@Z 000000018003bdf4     operations.obj
 0002:0000ce30       $ip2state$?Gamma@sharp@@YA?AVVImage@vips@@V23@N@Z 000000018003be30     operations.obj
 0002:0000ce70       $unwind$?Blur@sharp@@YA?AVVImage@vips@@V23@N@Z 000000018003be70     operations.obj
 0002:0000ce84       $stateUnwindMap$?Blur@sharp@@YA?AVVImage@vips@@V23@N@Z 000000018003be84     operations.obj
 0002:0000ce98       $ip2state$?Blur@sharp@@YA?AVVImage@vips@@V23@N@Z 000000018003be98     operations.obj
 0002:0000ceb8       $unwind$?Convolve@sharp@@YA?AVVImage@vips@@V23@HHNNAEBV?$unique_ptr@$$BY0A@NU?$default_delete@$$BY0A@N@std@@@std@@@Z 000000018003beb8     operations.obj
 0002:0000cecc       $stateUnwindMap$?Convolve@sharp@@YA?AVVImage@vips@@V23@HHNNAEBV?$unique_ptr@$$BY0A@NU?$default_delete@$$BY0A@N@std@@@std@@@Z 000000018003becc     operations.obj
 0002:0000cee0       $ip2state$?Convolve@sharp@@YA?AVVImage@vips@@V23@HHNNAEBV?$unique_ptr@$$BY0A@NU?$default_delete@$$BY0A@N@std@@@std@@@Z 000000018003bee0     operations.obj
 0002:0000cef8       $unwind$?Sharpen@sharp@@YA?AVVImage@vips@@V23@NNN@Z 000000018003bef8     operations.obj
 0002:0000cf1c       $stateUnwindMap$?Sharpen@sharp@@YA?AVVImage@vips@@V23@NNN@Z 000000018003bf1c     operations.obj
 0002:0000cf38       $ip2state$?Sharpen@sharp@@YA?AVVImage@vips@@V23@NNN@Z 000000018003bf38     operations.obj
 0002:0000cf60       $unwind$??RAttentionStrategy@sharp@@QEAANVVImage@vips@@@Z 000000018003bf60     operations.obj
 0002:0000cf80       $stateUnwindMap$??RAttentionStrategy@sharp@@QEAANVVImage@vips@@@Z 000000018003bf80     operations.obj
 0002:0000d040       $ip2state$??RAttentionStrategy@sharp@@QEAANVVImage@vips@@@Z 000000018003c040     operations.obj
 0002:0000d120       $unwind$?Crop@sharp@@YA?AV?$tuple@HH@std@@VVImage@vips@@HHV?$function@$$A6ANVVImage@vips@@@Z@3@@Z 000000018003c120     operations.obj
 0002:0000d14c       $stateUnwindMap$?Crop@sharp@@YA?AV?$tuple@HH@std@@VVImage@vips@@HHV?$function@$$A6ANVVImage@vips@@@Z@3@@Z 000000018003c14c     operations.obj
 0002:0000d190       $ip2state$?Crop@sharp@@YA?AV?$tuple@HH@std@@VVImage@vips@@HHV?$function@$$A6ANVVImage@vips@@@Z@3@@Z 000000018003c190     operations.obj
 0002:0000d200       $unwind$??1?$function@$$A6ANVVImage@vips@@@Z@std@@QEAA@XZ 000000018003c200     operations.obj
 0002:0000d200       $unwind$??1?$_Func_class@NVVImage@vips@@@std@@QEAA@XZ 000000018003c200     operations.obj
 0002:0000d210       $ip2state$??1?$_Func_class@NVVImage@vips@@@std@@QEAA@XZ 000000018003c210     operations.obj
 0002:0000d210       $ip2state$??1?$function@$$A6ANVVImage@vips@@@Z@std@@QEAA@XZ 000000018003c210     operations.obj
 0002:0000d218       $unwind$?TileCache@sharp@@YA?AVVImage@vips@@V23@N@Z 000000018003c218     operations.obj
 0002:0000d234       $stateUnwindMap$?TileCache@sharp@@YA?AVVImage@vips@@V23@N@Z 000000018003c234     operations.obj
 0002:0000d240       $ip2state$?TileCache@sharp@@YA?AVVImage@vips@@V23@N@Z 000000018003c240     operations.obj
 0002:0000d250       $unwind$?Threshold@sharp@@YA?AVVImage@vips@@V23@N_N@Z 000000018003c250     operations.obj
 0002:0000d268       $stateUnwindMap$?Threshold@sharp@@YA?AVVImage@vips@@V23@N_N@Z 000000018003c268     operations.obj
 0002:0000d270       $ip2state$?Threshold@sharp@@YA?AVVImage@vips@@V23@N_N@Z 000000018003c270     operations.obj
 0002:0000d280       $unwind$?Bandbool@sharp@@YA?AVVImage@vips@@V23@W4VipsOperationBoolean@@@Z 000000018003c280     operations.obj
 0002:0000d294       $stateUnwindMap$?Bandbool@sharp@@YA?AVVImage@vips@@V23@W4VipsOperationBoolean@@@Z 000000018003c294     operations.obj
 0002:0000d2a8       $ip2state$?Bandbool@sharp@@YA?AVVImage@vips@@V23@W4VipsOperationBoolean@@@Z 000000018003c2a8     operations.obj
 0002:0000d2c8       $unwind$?Boolean@sharp@@YA?AVVImage@vips@@V23@0W4VipsOperationBoolean@@@Z 000000018003c2c8     operations.obj
 0002:0000d2e0       $stateUnwindMap$?Boolean@sharp@@YA?AVVImage@vips@@V23@0W4VipsOperationBoolean@@@Z 000000018003c2e0     operations.obj
 0002:0000d2f0       $ip2state$?Boolean@sharp@@YA?AVVImage@vips@@V23@0W4VipsOperationBoolean@@@Z 000000018003c2f0     operations.obj
 0002:0000d300       $unwind$?Trim@sharp@@YA?AVVImage@vips@@V23@H@Z 000000018003c300     operations.obj
 0002:0000d328       $stateUnwindMap$?Trim@sharp@@YA?AVVImage@vips@@V23@H@Z 000000018003c328     operations.obj
 0002:0000d3d0       $ip2state$?Trim@sharp@@YA?AVVImage@vips@@V23@H@Z 000000018003c3d0     operations.obj
 0002:0000d480       $unwind$??0?$vector@NV?$allocator@N@std@@@std@@QEAA@AEBV01@@Z 000000018003c480     operations.obj
 0002:0000d490       $chain$0$??0?$vector@NV?$allocator@N@std@@@std@@QEAA@AEBV01@@Z 000000018003c490     operations.obj
 0002:0000d4a4       $chain$1$??0?$vector@NV?$allocator@N@std@@@std@@QEAA@AEBV01@@Z 000000018003c4a4     operations.obj
 0002:0000d4b4       $unwind$_seh_filter_exe    000000018003c4b4     libucrt:exception_filter.obj
 0002:0000d4b4       $unwind$?setSBCS@@YAXPEAU__crt_multibyte_data@@@Z 000000018003c4b4     libucrt:mbctype.obj
 0002:0000d4b4       $unwind$_initterm          000000018003c4b4     libucrt:initterm.obj
 0002:0000d4b4       $unwind$??$common_xtox@K_W@@YAHKQEA_W_KI_N@Z 000000018003c4b4     libucrt:xtoa.obj
 0002:0000d4b4       $unwind$??$ensure_buffer_is_big_enough@_W@formatting_buffer@__crt_stdio_output@@QEAA_N_K@Z 000000018003c4b4     libucrt:output.obj
 0002:0000d4b4       $unwind$?Is_bad_exception_allowed@@YAEPEBU_s_ESTypeList@@@Z 000000018003c4b4     libvcruntime:frame.obj
 0002:0000d4b4       $unwind$??$ensure_buffer_is_big_enough@D@formatting_buffer@__crt_stdio_output@@QEAA_N_K@Z 000000018003c4b4     libucrt:output.obj
 0002:0000d4b4       $unwind$_wassert           000000018003c4b4     libucrt:assert.obj
 0002:0000d4b4       $unwind$__acrt_free_locale 000000018003c4b4     libucrt:locale_refcounting.obj
 0002:0000d4b4       $unwind$_recalloc_base     000000018003c4b4     libucrt:recalloc.obj
 0002:0000d4b4       $unwind$?GetHandlerSearchState@__FrameHandler3@@SAHPEA_KPEAU_xDISPATCHER_CONTEXT@@PEBU_s_FuncInfo@@@Z 000000018003c4b4     libvcruntime:frame.obj
 0002:0000d4b4       $unwind$??0?$vector@NV?$allocator@N@std@@@std@@QEAA@V?$initializer_list@N@1@AEBV?$allocator@N@1@@Z 000000018003c4b4     operations.obj
 0002:0000d4b4       $unwind$__acrt_show_wide_message_box 000000018003c4b4     libucrt:crtmbox.obj
 0002:0000d4b4       $unwind$__scrt_dllmain_exception_filter 000000018003c4b4     LIBCMT:utility.obj
 0002:0000d4b4       $unwind$__acrt_lowio_create_handle_array 000000018003c4b4     libucrt:osfinfo.obj
 0002:0000d4c8       $chain$0$?_Buy@?$vector@NV?$allocator@N@std@@@std@@AEAA_N_K@Z 000000018003c4c8     operations.obj
 0002:0000d4dc       $chain$3$?_Buy@?$vector@NV?$allocator@N@std@@@std@@AEAA_N_K@Z 000000018003c4dc     operations.obj
 0002:0000d4dc       $chain$1$?_Buy@?$vector@NV?$allocator@N@std@@@std@@AEAA_N_K@Z 000000018003c4dc     operations.obj
 0002:0000d4ec       $chain$2$?_Buy@?$vector@NV?$allocator@N@std@@@std@@AEAA_N_K@Z 000000018003c4ec     operations.obj
 0002:0000d500       $unwind$??0PipelineWorker@@QEAA@PEAVCallback@Nan@@PEAUPipelineBaton@@0V?$vector@V?$Local@VObject@v8@@@v8@@V?$allocator@V?$Local@VObject@v8@@@v8@@@std@@@std@@@Z 000000018003c500     pipeline.obj
 0002:0000d520       $stateUnwindMap$??0PipelineWorker@@QEAA@PEAVCallback@Nan@@PEAUPipelineBaton@@0V?$vector@V?$Local@VObject@v8@@@v8@@V?$allocator@V?$Local@VObject@v8@@@v8@@@std@@@std@@@Z 000000018003c520     pipeline.obj
 0002:0000d548       $ip2state$??0PipelineWorker@@QEAA@PEAVCallback@Nan@@PEAUPipelineBaton@@0V?$vector@V?$Local@VObject@v8@@@v8@@V?$allocator@V?$Local@VObject@v8@@@v8@@@std@@@std@@@Z 000000018003c548     pipeline.obj
 0002:0000d578       $unwind$?Execute@PipelineWorker@@UEAAXXZ 000000018003c578     pipeline.obj
 0002:0000d5c4       $stateUnwindMap$?Execute@PipelineWorker@@UEAAXXZ 000000018003c5c4     pipeline.obj
 0002:0000d91c       $tryMap$?Execute@PipelineWorker@@UEAAXXZ 000000018003c91c     pipeline.obj
 0002:0000d944       $handlerMap$0$?Execute@PipelineWorker@@UEAAXXZ 000000018003c944     pipeline.obj
 0002:0000d958       $handlerMap$1$?Execute@PipelineWorker@@UEAAXXZ 000000018003c958     pipeline.obj
 0002:0000d970       $ip2state$?Execute@PipelineWorker@@UEAAXXZ 000000018003c970     pipeline.obj
 0002:0000dff8       $unwind$?catch$868@?0??Execute@PipelineWorker@@UEAAXXZ@4HA 000000018003cff8     pipeline.obj
 0002:0000dff8       $unwind$?catch$869@?0??Execute@PipelineWorker@@UEAAXXZ@4HA 000000018003cff8     pipeline.obj
 0002:0000e008       $unwind$?HandleOKCallback@PipelineWorker@@UEAAXXZ 000000018003d008     pipeline.obj
 0002:0000e034       $stateUnwindMap$?HandleOKCallback@PipelineWorker@@UEAAXXZ 000000018003d034     pipeline.obj
 0002:0000e0c0       $ip2state$?HandleOKCallback@PipelineWorker@@UEAAXXZ 000000018003d0c0     pipeline.obj
 0002:0000e1c8       $unwind$?CalculateRotationAndFlip@PipelineWorker@@AEAA?AV?$tuple@W4VipsAngle@@_N_N@std@@HVVImage@vips@@@Z 000000018003d1c8     pipeline.obj
 0002:0000e1e4       $stateUnwindMap$?CalculateRotationAndFlip@PipelineWorker@@AEAA?AV?$tuple@W4VipsAngle@@_N_N@std@@HVVImage@vips@@@Z 000000018003d1e4     pipeline.obj
 0002:0000e1f0       $ip2state$?CalculateRotationAndFlip@PipelineWorker@@AEAA?AV?$tuple@W4VipsAngle@@_N_N@std@@HVVImage@vips@@@Z 000000018003d1f0     pipeline.obj
 0002:0000e200       $unwind$??1PipelineBaton@@QEAA@XZ 000000018003d200     pipeline.obj
 0002:0000e20c       $unwind$?pipeline@@YAXAEBV?$FunctionCallbackInfo@VValue@v8@@@Nan@@@Z 000000018003d20c     pipeline.obj
 0002:0000e23c       $stateUnwindMap$?pipeline@@YAXAEBV?$FunctionCallbackInfo@VValue@v8@@@Nan@@@Z 000000018003d23c     pipeline.obj
 0002:0000e2e0       $ip2state$?pipeline@@YAXAEBV?$FunctionCallbackInfo@VValue@v8@@@Nan@@@Z 000000018003d2e0     pipeline.obj
 0002:0000e400       $unwind$??A?$map@W4VipsInterpretation@@V?$basic_string@DU?$char_traits@D@std@@V?$allocator@D@2@@std@@U?$less@W4VipsInterpretation@@@3@V?$allocator@U?$pair@$$CBW4VipsInterpretation@@V?$basic_string@DU?$char_traits@D@std@@V?$allocator@D@2@@std@@@std@@@3@@std@@QEAAAEAV?$basic_string@DU?$char_traits@D@std@@V?$allocator@D@2@@1@AEBW4VipsInterpretation@@@Z 000000018003d400     pipeline.obj
 0002:0000e410       $unwind$?erase@?$_Tree@V?$_Tmap_traits@W4VipsInterpretation@@V?$basic_string@DU?$char_traits@D@std@@V?$allocator@D@2@@std@@U?$less@W4VipsInterpretation@@@3@V?$allocator@U?$pair@$$CBW4VipsInterpretation@@V?$basic_string@DU?$char_traits@D@std@@V?$allocator@D@2@@std@@@std@@@3@$0A@@std@@@std@@QEAA?AV?$_Tree_iterator@V?$_Tree_val@U?$_Tree_simple_types@U?$pair@$$CBW4VipsInterpretation@@V?$basic_string@DU?$char_traits@D@std@@V?$allocator@D@2@@std@@@std@@@std@@@std@@@2@V?$_Tree_const_iterator@V?$_Tree_val@U?$_Tree_simple_types@U?$pair@$$CBW4VipsInterpretation@@V?$basic_string@DU?$char_traits@D@std@@V?$allocator@D@2@@std@@@std@@@std@@@std@@@2@0@Z 000000018003d410     pipeline.obj
 0002:0000e430       $ip2state$?erase@?$_Tree@V?$_Tmap_traits@W4VipsInterpretation@@V?$basic_string@DU?$char_traits@D@std@@V?$allocator@D@2@@std@@U?$less@W4VipsInterpretation@@@3@V?$allocator@U?$pair@$$CBW4VipsInterpretation@@V?$basic_string@DU?$char_traits@D@std@@V?$allocator@D@2@@std@@@std@@@3@$0A@@std@@@std@@QEAA?AV?$_Tree_iterator@V?$_Tree_val@U?$_Tree_simple_types@U?$pair@$$CBW4VipsInterpretation@@V?$basic_string@DU?$char_traits@D@std@@V?$allocator@D@2@@std@@@std@@@std@@@std@@@2@V?$_Tree_const_iterator@V?$_Tree_val@U?$_Tree_simple_types@U?$pair@$$CBW4VipsInterpretation@@V?$basic_string@DU?$char_traits@D@std@@V?$allocator@D@2@@std@@@std@@@std@@@std@@@2@0@Z 000000018003d430     pipeline.obj
 0002:0000e438       $unwind$??$type_case_integer_parse_into_buffer@_K@?$output_processor@_WV?$string_output_adapter@_W@__crt_stdio_output@@V?$standard_base@_WV?$string_output_adapter@_W@__crt_stdio_output@@@2@@__crt_stdio_output@@AEAAX_KI_N@Z 000000018003d438     libucrt:output.obj
 0002:0000e438       $unwind$??$type_case_integer_parse_into_buffer@I@?$output_processor@_WV?$string_output_adapter@_W@__crt_stdio_output@@V?$standard_base@_WV?$string_output_adapter@_W@__crt_stdio_output@@@2@@__crt_stdio_output@@AEAAXII_N@Z 000000018003d438     libucrt:output.obj
 0002:0000e438       $unwind$??$type_case_integer_parse_into_buffer@_K@?$output_processor@_WV?$stream_output_adapter@_W@__crt_stdio_output@@V?$standard_base@_WV?$stream_output_adapter@_W@__crt_stdio_output@@@2@@__crt_stdio_output@@AEAAX_KI_N@Z 000000018003d438     libucrt:output.obj
 0002:0000e438       $unwind$?_Extract@?$_Tree_val@U?$_Tree_simple_types@U?$pair@$$CBW4VipsInterpretation@@V?$basic_string@DU?$char_traits@D@std@@V?$allocator@D@2@@std@@@std@@@std@@@std@@QEAAPEAU?$_Tree_node@U?$pair@$$CBW4VipsInterpretation@@V?$basic_string@DU?$char_traits@D@std@@V?$allocator@D@2@@std@@@std@@PEAX@2@V?$_Tree_const_iterator@V?$_Tree_val@U?$_Tree_simple_types@U?$pair@$$CBW4VipsInterpretation@@V?$basic_string@DU?$char_traits@D@std@@V?$allocator@D@2@@std@@@std@@@std@@@std@@@2@@Z 000000018003d438     pipeline.obj
 0002:0000e438       $unwind$??$type_case_integer_parse_into_buffer@I@?$output_processor@_WV?$stream_output_adapter@_W@__crt_stdio_output@@V?$standard_base@_WV?$stream_output_adapter@_W@__crt_stdio_output@@@2@@__crt_stdio_output@@AEAAXII_N@Z 000000018003d438     libucrt:output.obj
 0002:0000e440       $unwind$?type_case_c_tchar@?$output_processor@_WV?$stream_output_adapter@_W@__crt_stdio_output@@V?$standard_base@_WV?$stream_output_adapter@_W@__crt_stdio_output@@@2@@__crt_stdio_output@@AEAA_N_W@Z 000000018003d440     libucrt:output.obj
 0002:0000e440       $unwind$??R<lambda_ca71763b3c0644891230e4f79ea54fa6>@@QEBAHXZ 000000018003d440     libucrt:setvbuf.obj
 0002:0000e440       $unwind$?_Erase@?$_Tree@V?$_Tmap_traits@W4VipsInterpretation@@V?$basic_string@DU?$char_traits@D@std@@V?$allocator@D@2@@std@@U?$less@W4VipsInterpretation@@@3@V?$allocator@U?$pair@$$CBW4VipsInterpretation@@V?$basic_string@DU?$char_traits@D@std@@V?$allocator@D@2@@std@@@std@@@3@$0A@@std@@@std@@IEAAXPEAU?$_Tree_node@U?$pair@$$CBW4VipsInterpretation@@V?$basic_string@DU?$char_traits@D@std@@V?$allocator@D@2@@std@@@std@@PEAX@2@@Z 000000018003d440     pipeline.obj
 0002:0000e440       $unwind$?type_case_c_tchar@?$output_processor@_WV?$string_output_adapter@_W@__crt_stdio_output@@V?$standard_base@_WV?$string_output_adapter@_W@__crt_stdio_output@@@2@@__crt_stdio_output@@AEAA_N_W@Z 000000018003d440     libucrt:output.obj
 0002:0000e450       $chain$0$?_Erase@?$_Tree@V?$_Tmap_traits@W4VipsInterpretation@@V?$basic_string@DU?$char_traits@D@std@@V?$allocator@D@2@@std@@U?$less@W4VipsInterpretation@@@3@V?$allocator@U?$pair@$$CBW4VipsInterpretation@@V?$basic_string@DU?$char_traits@D@std@@V?$allocator@D@2@@std@@@std@@@3@$0A@@std@@@std@@IEAAXPEAU?$_Tree_node@U?$pair@$$CBW4VipsInterpretation@@V?$basic_string@DU?$char_traits@D@std@@V?$allocator@D@2@@std@@@std@@PEAX@2@@Z 000000018003d450     pipeline.obj
 0002:0000e464       $chain$1$?_Erase@?$_Tree@V?$_Tmap_traits@W4VipsInterpretation@@V?$basic_string@DU?$char_traits@D@std@@V?$allocator@D@2@@std@@U?$less@W4VipsInterpretation@@@3@V?$allocator@U?$pair@$$CBW4VipsInterpretation@@V?$basic_string@DU?$char_traits@D@std@@V?$allocator@D@2@@std@@@std@@@3@$0A@@std@@@std@@IEAAXPEAU?$_Tree_node@U?$pair@$$CBW4VipsInterpretation@@V?$basic_string@DU?$char_traits@D@std@@V?$allocator@D@2@@std@@@std@@PEAX@2@@Z 000000018003d464     pipeline.obj
 0002:0000e474       $chain$2$?_Erase@?$_Tree@V?$_Tmap_traits@W4VipsInterpretation@@V?$basic_string@DU?$char_traits@D@std@@V?$allocator@D@2@@std@@U?$less@W4VipsInterpretation@@@3@V?$allocator@U?$pair@$$CBW4VipsInterpretation@@V?$basic_string@DU?$char_traits@D@std@@V?$allocator@D@2@@std@@@std@@@3@$0A@@std@@@std@@IEAAXPEAU?$_Tree_node@U?$pair@$$CBW4VipsInterpretation@@V?$basic_string@DU?$char_traits@D@std@@V?$allocator@D@2@@std@@@std@@PEAX@2@@Z 000000018003d474     pipeline.obj
 0002:0000e488       $unwind$??$?HDU?$char_traits@D@std@@V?$allocator@D@1@@std@@YA?AV?$basic_string@DU?$char_traits@D@std@@V?$allocator@D@2@@0@AEBV10@QEBD@Z 000000018003d488     pipeline.obj
 0002:0000e4a4       $stateUnwindMap$??$?HDU?$char_traits@D@std@@V?$allocator@D@1@@std@@YA?AV?$basic_string@DU?$char_traits@D@std@@V?$allocator@D@2@@0@AEBV10@QEBD@Z 000000018003d4a4     pipeline.obj
 0002:0000e4b0       $ip2state$??$?HDU?$char_traits@D@std@@V?$allocator@D@1@@std@@YA?AV?$basic_string@DU?$char_traits@D@std@@V?$allocator@D@2@@0@AEBV10@QEBD@Z 000000018003d4b0     pipeline.obj
 0002:0000e4b8       $unwind$??$?HDU?$char_traits@D@std@@V?$allocator@D@1@@std@@YA?AV?$basic_string@DU?$char_traits@D@std@@V?$allocator@D@2@@0@QEBDAEBV10@@Z 000000018003d4b8     pipeline.obj
 0002:0000e4d0       $ip2state$??$?HDU?$char_traits@D@std@@V?$allocator@D@1@@std@@YA?AV?$basic_string@DU?$char_traits@D@std@@V?$allocator@D@2@@0@QEBDAEBV10@@Z 000000018003d4d0     pipeline.obj
 0002:0000e4d8       $unwind$??$AttrTo@_N@sharp@@YA_NV?$Local@VObject@v8@@@v8@@V?$basic_string@DU?$char_traits@D@std@@V?$allocator@D@2@@std@@@Z 000000018003d4d8     pipeline.obj
 0002:0000e500       $ip2state$??$AttrTo@_N@sharp@@YA_NV?$Local@VObject@v8@@@v8@@V?$basic_string@DU?$char_traits@D@std@@V?$allocator@D@2@@std@@@Z 000000018003d500     pipeline.obj
 0002:0000e530       $unwind$??$AttrTo@H@sharp@@YAHV?$Local@VObject@v8@@@v8@@V?$basic_string@DU?$char_traits@D@std@@V?$allocator@D@2@@std@@@Z 000000018003d530     pipeline.obj
 0002:0000e558       $ip2state$??$AttrTo@H@sharp@@YAHV?$Local@VObject@v8@@@v8@@V?$basic_string@DU?$char_traits@D@std@@V?$allocator@D@2@@std@@@Z 000000018003d558     pipeline.obj
 0002:0000e588       $unwind$??$AttrTo@N@sharp@@YANV?$Local@VObject@v8@@@v8@@V?$basic_string@DU?$char_traits@D@std@@V?$allocator@D@2@@std@@@Z 000000018003d588     pipeline.obj
 0002:0000e5b0       $stateUnwindMap$??$AttrTo@N@sharp@@YANV?$Local@VObject@v8@@@v8@@V?$basic_string@DU?$char_traits@D@std@@V?$allocator@D@2@@std@@@Z 000000018003d5b0     pipeline.obj
 0002:0000e5c8       $ip2state$??$AttrTo@N@sharp@@YANV?$Local@VObject@v8@@@v8@@V?$basic_string@DU?$char_traits@D@std@@V?$allocator@D@2@@std@@@Z 000000018003d5c8     pipeline.obj
 0002:0000e5f8       $unwind$??$_Emplace_reallocate@PEAUInputDescriptor@sharp@@@?$vector@PEAUInputDescriptor@sharp@@V?$allocator@PEAUInputDescriptor@sharp@@@std@@@std@@QEAAPEAPEAUInputDescriptor@sharp@@QEAPEAU23@$$QEAPEAU23@@Z 000000018003d5f8     pipeline.obj
 0002:0000e5f8       $unwind$??$_Emplace_reallocate@N@?$vector@NV?$allocator@N@std@@@std@@QEAAPEANQEAN$$QEAN@Z 000000018003d5f8     pipeline.obj
 0002:0000e608       $chain$2$??$_Emplace_reallocate@PEAUInputDescriptor@sharp@@@?$vector@PEAUInputDescriptor@sharp@@V?$allocator@PEAUInputDescriptor@sharp@@@std@@@std@@QEAAPEAPEAUInputDescriptor@sharp@@QEAPEAU23@$$QEAPEAU23@@Z 000000018003d608     pipeline.obj
 0002:0000e624       $chain$3$??$_Emplace_reallocate@PEAUInputDescriptor@sharp@@@?$vector@PEAUInputDescriptor@sharp@@V?$allocator@PEAUInputDescriptor@sharp@@@std@@@std@@QEAAPEAPEAUInputDescriptor@sharp@@QEAPEAU23@$$QEAPEAU23@@Z 000000018003d624     pipeline.obj
 0002:0000e634       $chain$4$??$_Emplace_reallocate@PEAUInputDescriptor@sharp@@@?$vector@PEAUInputDescriptor@sharp@@V?$allocator@PEAUInputDescriptor@sharp@@@std@@@std@@QEAAPEAPEAUInputDescriptor@sharp@@QEAPEAU23@$$QEAPEAU23@@Z 000000018003d634     pipeline.obj
 0002:0000e650       $unwind$?type_case_integer@?$output_processor@_WV?$string_output_adapter@_W@__crt_stdio_output@@V?$standard_base@_WV?$string_output_adapter@_W@__crt_stdio_output@@@2@@__crt_stdio_output@@AEAA_NI_N@Z 000000018003d650     libucrt:output.obj
 0002:0000e650       $unwind$?type_case_integer@?$output_processor@_WV?$stream_output_adapter@_W@__crt_stdio_output@@V?$standard_base@_WV?$stream_output_adapter@_W@__crt_stdio_output@@@2@@__crt_stdio_output@@AEAA_NI_N@Z 000000018003d650     libucrt:output.obj
 0002:0000e650       $unwind$??$_Assign_range@PEBN@?$vector@NV?$allocator@N@std@@@std@@AEAAXPEBN0Uforward_iterator_tag@1@@Z 000000018003d650     pipeline.obj
 0002:0000e668       $chain$2$??$_Emplace_reallocate@N@?$vector@NV?$allocator@N@std@@@std@@QEAAPEANQEAN$$QEAN@Z 000000018003d668     pipeline.obj
 0002:0000e684       $chain$3$??$_Emplace_reallocate@N@?$vector@NV?$allocator@N@std@@@std@@QEAAPEANQEAN$$QEAN@Z 000000018003d684     pipeline.obj
 0002:0000e694       $chain$4$??$_Emplace_reallocate@N@?$vector@NV?$allocator@N@std@@@std@@QEAAPEANQEAN$$QEAN@Z 000000018003d694     pipeline.obj
 0002:0000e6b0       $unwind$?reserve@?$basic_string@DU?$char_traits@D@std@@V?$allocator@D@2@@std@@QEAAX_K@Z 000000018003d6b0     pipeline.obj
 0002:0000e6bc       $chain$0$?reserve@?$basic_string@DU?$char_traits@D@std@@V?$allocator@D@2@@std@@QEAAX_K@Z 000000018003d6bc     pipeline.obj
 0002:0000e6d0       $chain$2$?reserve@?$basic_string@DU?$char_traits@D@std@@V?$allocator@D@2@@std@@QEAAX_K@Z 000000018003d6d0     pipeline.obj
 0002:0000e6e8       $chain$3$?reserve@?$basic_string@DU?$char_traits@D@std@@V?$allocator@D@2@@std@@QEAAX_K@Z 000000018003d6e8     pipeline.obj
 0002:0000e6f8       $chain$4$?reserve@?$basic_string@DU?$char_traits@D@std@@V?$allocator@D@2@@std@@QEAAX_K@Z 000000018003d6f8     pipeline.obj
 0002:0000e708       $chain$5$?reserve@?$basic_string@DU?$char_traits@D@std@@V?$allocator@D@2@@std@@QEAAX_K@Z 000000018003d708     pipeline.obj
 0002:0000e724       $unwind$??$_Try_emplace@W4VipsInterpretation@@$$V@?$map@W4VipsInterpretation@@V?$basic_string@DU?$char_traits@D@std@@V?$allocator@D@2@@std@@U?$less@W4VipsInterpretation@@@3@V?$allocator@U?$pair@$$CBW4VipsInterpretation@@V?$basic_string@DU?$char_traits@D@std@@V?$allocator@D@2@@std@@@std@@@3@@std@@QEAA?AU?$pair@V?$_Tree_iterator@V?$_Tree_val@U?$_Tree_simple_types@U?$pair@$$CBW4VipsInterpretation@@V?$basic_string@DU?$char_traits@D@std@@V?$allocator@D@2@@std@@@std@@@std@@@std@@@std@@_N@1@$$QEAW4VipsInterpretation@@@Z 000000018003d724     pipeline.obj
 0002:0000e738       $unwind$??$_Insert_nohint@AEAU?$pair@$$CBW4VipsInterpretation@@V?$basic_string@DU?$char_traits@D@std@@V?$allocator@D@2@@std@@@std@@PEAU?$_Tree_node@U?$pair@$$CBW4VipsInterpretation@@V?$basic_string@DU?$char_traits@D@std@@V?$allocator@D@2@@std@@@std@@PEAX@2@@?$_Tree@V?$_Tmap_traits@W4VipsInterpretation@@V?$basic_string@DU?$char_traits@D@std@@V?$allocator@D@2@@std@@U?$less@W4VipsInterpretation@@@3@V?$allocator@U?$pair@$$CBW4VipsInterpretation@@V?$basic_string@DU?$char_traits@D@std@@V?$allocator@D@2@@std@@@std@@@3@$0A@@std@@@std@@IEAA?AU?$pair@V?$_Tree_iterator@V?$_Tree_val@U?$_Tree_simple_types@U?$pair@$$CBW4VipsInterpretation@@V?$basic_string@DU?$char_traits@D@std@@V?$allocator@D@2@@std@@@std@@@std@@@std@@@std@@_N@1@_NAEAU?$pair@$$CBW4VipsInterpretation@@V?$basic_string@DU?$char_traits@D@std@@V?$allocator@D@2@@std@@@1@PEAU?$_Tree_node@U?$pair@$$CBW4VipsInterpretation@@V?$basic_string@DU?$char_traits@D@std@@V?$allocator@D@2@@std@@@std@@PEAX@1@@Z 000000018003d738     pipeline.obj
 0002:0000e74c       $unwind$?_Do_call@?$_Func_impl_no_alloc@UEntropyStrategy@sharp@@NVVImage@vips@@@std@@EEAAN$$QEAVVImage@vips@@@Z 000000018003d74c     pipeline.obj
 0002:0000e760       $ip2state$?_Do_call@?$_Func_impl_no_alloc@UEntropyStrategy@sharp@@NVVImage@vips@@@std@@EEAAN$$QEAVVImage@vips@@@Z 000000018003d760     pipeline.obj
 0002:0000e770       $unwind$?_Do_call@?$_Func_impl_no_alloc@UAttentionStrategy@sharp@@NVVImage@vips@@@std@@EEAAN$$QEAVVImage@vips@@@Z 000000018003d770     pipeline.obj
 0002:0000e780       $ip2state$?_Do_call@?$_Func_impl_no_alloc@UAttentionStrategy@sharp@@NVVImage@vips@@@std@@EEAAN$$QEAVVImage@vips@@@Z 000000018003d780     pipeline.obj
 0002:0000e790       $unwind$??$_Insert_at@AEAU?$pair@$$CBW4VipsInterpretation@@V?$basic_string@DU?$char_traits@D@std@@V?$allocator@D@2@@std@@@std@@PEAU?$_Tree_node@U?$pair@$$CBW4VipsInterpretation@@V?$basic_string@DU?$char_traits@D@std@@V?$allocator@D@2@@std@@@std@@PEAX@2@@?$_Tree@V?$_Tmap_traits@W4VipsInterpretation@@V?$basic_string@DU?$char_traits@D@std@@V?$allocator@D@2@@std@@U?$less@W4VipsInterpretation@@@3@V?$allocator@U?$pair@$$CBW4VipsInterpretation@@V?$basic_string@DU?$char_traits@D@std@@V?$allocator@D@2@@std@@@std@@@3@$0A@@std@@@std@@IEAA?AV?$_Tree_iterator@V?$_Tree_val@U?$_Tree_simple_types@U?$pair@$$CBW4VipsInterpretation@@V?$basic_string@DU?$char_traits@D@std@@V?$allocator@D@2@@std@@@std@@@std@@@std@@@1@_NPEAU?$_Tree_node@U?$pair@$$CBW4VipsInterpretation@@V?$basic_string@DU?$char_traits@D@std@@V?$allocator@D@2@@std@@@std@@PEAX@1@AEAU?$pair@$$CBW4VipsInterpretation@@V?$basic_string@DU?$char_traits@D@std@@V?$allocator@D@2@@std@@@1@1@Z 000000018003d790     pipeline.obj
 0002:0000e798       $chain$0$??$_Insert_at@AEAU?$pair@$$CBW4VipsInterpretation@@V?$basic_string@DU?$char_traits@D@std@@V?$allocator@D@2@@std@@@std@@PEAU?$_Tree_node@U?$pair@$$CBW4VipsInterpretation@@V?$basic_string@DU?$char_traits@D@std@@V?$allocator@D@2@@std@@@std@@PEAX@2@@?$_Tree@V?$_Tmap_traits@W4VipsInterpretation@@V?$basic_string@DU?$char_traits@D@std@@V?$allocator@D@2@@std@@U?$less@W4VipsInterpretation@@@3@V?$allocator@U?$pair@$$CBW4VipsInterpretation@@V?$basic_string@DU?$char_traits@D@std@@V?$allocator@D@2@@std@@@std@@@3@$0A@@std@@@std@@IEAA?AV?$_Tree_iterator@V?$_Tree_val@U?$_Tree_simple_types@U?$pair@$$CBW4VipsInterpretation@@V?$basic_string@DU?$char_traits@D@std@@V?$allocator@D@2@@std@@@std@@@std@@@std@@@1@_NPEAU?$_Tree_node@U?$pair@$$CBW4VipsInterpretation@@V?$basic_string@DU?$char_traits@D@std@@V?$allocator@D@2@@std@@@std@@PEAX@1@AEAU?$pair@$$CBW4VipsInterpretation@@V?$basic_string@DU?$char_traits@D@std@@V?$allocator@D@2@@std@@@1@1@Z 000000018003d798     pipeline.obj
 0002:0000e7ac       $chain$1$??$_Insert_at@AEAU?$pair@$$CBW4VipsInterpretation@@V?$basic_string@DU?$char_traits@D@std@@V?$allocator@D@2@@std@@@std@@PEAU?$_Tree_node@U?$pair@$$CBW4VipsInterpretation@@V?$basic_string@DU?$char_traits@D@std@@V?$allocator@D@2@@std@@@std@@PEAX@2@@?$_Tree@V?$_Tmap_traits@W4VipsInterpretation@@V?$basic_string@DU?$char_traits@D@std@@V?$allocator@D@2@@std@@U?$less@W4VipsInterpretation@@@3@V?$allocator@U?$pair@$$CBW4VipsInterpretation@@V?$basic_string@DU?$char_traits@D@std@@V?$allocator@D@2@@std@@@std@@@3@$0A@@std@@@std@@IEAA?AV?$_Tree_iterator@V?$_Tree_val@U?$_Tree_simple_types@U?$pair@$$CBW4VipsInterpretation@@V?$basic_string@DU?$char_traits@D@std@@V?$allocator@D@2@@std@@@std@@@std@@@std@@@1@_NPEAU?$_Tree_node@U?$pair@$$CBW4VipsInterpretation@@V?$basic_string@DU?$char_traits@D@std@@V?$allocator@D@2@@std@@@std@@PEAX@1@AEAU?$pair@$$CBW4VipsInterpretation@@V?$basic_string@DU?$char_traits@D@std@@V?$allocator@D@2@@std@@@1@1@Z 000000018003d7ac     pipeline.obj
 0002:0000e7bc       $unwind$??$_Insert_hint@AEAU?$pair@$$CBW4VipsInterpretation@@V?$basic_string@DU?$char_traits@D@std@@V?$allocator@D@2@@std@@@std@@PEAU?$_Tree_node@U?$pair@$$CBW4VipsInterpretation@@V?$basic_string@DU?$char_traits@D@std@@V?$allocator@D@2@@std@@@std@@PEAX@2@@?$_Tree@V?$_Tmap_traits@W4VipsInterpretation@@V?$basic_string@DU?$char_traits@D@std@@V?$allocator@D@2@@std@@U?$less@W4VipsInterpretation@@@3@V?$allocator@U?$pair@$$CBW4VipsInterpretation@@V?$basic_string@DU?$char_traits@D@std@@V?$allocator@D@2@@std@@@std@@@3@$0A@@std@@@std@@IEAA?AV?$_Tree_iterator@V?$_Tree_val@U?$_Tree_simple_types@U?$pair@$$CBW4VipsInterpretation@@V?$basic_string@DU?$char_traits@D@std@@V?$allocator@D@2@@std@@@std@@@std@@@std@@@1@V?$_Tree_const_iterator@V?$_Tree_val@U?$_Tree_simple_types@U?$pair@$$CBW4VipsInterpretation@@V?$basic_string@DU?$char_traits@D@std@@V?$allocator@D@2@@std@@@std@@@std@@@std@@@1@AEAU?$pair@$$CBW4VipsInterpretation@@V?$basic_string@DU?$char_traits@D@std@@V?$allocator@D@2@@std@@@1@PEAU?$_Tree_node@U?$pair@$$CBW4VipsInterpretation@@V?$basic_string@DU?$char_traits@D@std@@V?$allocator@D@2@@std@@@std@@PEAX@1@@Z 000000018003d7bc     pipeline.obj
 0002:0000e7c8       $chain$0$??$_Insert_hint@AEAU?$pair@$$CBW4VipsInterpretation@@V?$basic_string@DU?$char_traits@D@std@@V?$allocator@D@2@@std@@@std@@PEAU?$_Tree_node@U?$pair@$$CBW4VipsInterpretation@@V?$basic_string@DU?$char_traits@D@std@@V?$allocator@D@2@@std@@@std@@PEAX@2@@?$_Tree@V?$_Tmap_traits@W4VipsInterpretation@@V?$basic_string@DU?$char_traits@D@std@@V?$allocator@D@2@@std@@U?$less@W4VipsInterpretation@@@3@V?$allocator@U?$pair@$$CBW4VipsInterpretation@@V?$basic_string@DU?$char_traits@D@std@@V?$allocator@D@2@@std@@@std@@@3@$0A@@std@@@std@@IEAA?AV?$_Tree_iterator@V?$_Tree_val@U?$_Tree_simple_types@U?$pair@$$CBW4VipsInterpretation@@V?$basic_string@DU?$char_traits@D@std@@V?$allocator@D@2@@std@@@std@@@std@@@std@@@1@V?$_Tree_const_iterator@V?$_Tree_val@U?$_Tree_simple_types@U?$pair@$$CBW4VipsInterpretation@@V?$basic_string@DU?$char_traits@D@std@@V?$allocator@D@2@@std@@@std@@@std@@@std@@@1@AEAU?$pair@$$CBW4VipsInterpretation@@V?$basic_string@DU?$char_traits@D@std@@V?$allocator@D@2@@std@@@1@PEAU?$_Tree_node@U?$pair@$$CBW4VipsInterpretation@@V?$basic_string@DU?$char_traits@D@std@@V?$allocator@D@2@@std@@@std@@PEAX@1@@Z 000000018003d7c8     pipeline.obj
 0002:0000e7dc       $chain$2$??$_Insert_hint@AEAU?$pair@$$CBW4VipsInterpretation@@V?$basic_string@DU?$char_traits@D@std@@V?$allocator@D@2@@std@@@std@@PEAU?$_Tree_node@U?$pair@$$CBW4VipsInterpretation@@V?$basic_string@DU?$char_traits@D@std@@V?$allocator@D@2@@std@@@std@@PEAX@2@@?$_Tree@V?$_Tmap_traits@W4VipsInterpretation@@V?$basic_string@DU?$char_traits@D@std@@V?$allocator@D@2@@std@@U?$less@W4VipsInterpretation@@@3@V?$allocator@U?$pair@$$CBW4VipsInterpretation@@V?$basic_string@DU?$char_traits@D@std@@V?$allocator@D@2@@std@@@std@@@3@$0A@@std@@@std@@IEAA?AV?$_Tree_iterator@V?$_Tree_val@U?$_Tree_simple_types@U?$pair@$$CBW4VipsInterpretation@@V?$basic_string@DU?$char_traits@D@std@@V?$allocator@D@2@@std@@@std@@@std@@@std@@@1@V?$_Tree_const_iterator@V?$_Tree_val@U?$_Tree_simple_types@U?$pair@$$CBW4VipsInterpretation@@V?$basic_string@DU?$char_traits@D@std@@V?$allocator@D@2@@std@@@std@@@std@@@std@@@1@AEAU?$pair@$$CBW4VipsInterpretation@@V?$basic_string@DU?$char_traits@D@std@@V?$allocator@D@2@@std@@@1@PEAU?$_Tree_node@U?$pair@$$CBW4VipsInterpretation@@V?$basic_string@DU?$char_traits@D@std@@V?$allocator@D@2@@std@@@std@@PEAX@1@@Z 000000018003d7dc     pipeline.obj
 0002:0000e7dc       $chain$4$??$_Insert_hint@AEAU?$pair@$$CBW4VipsInterpretation@@V?$basic_string@DU?$char_traits@D@std@@V?$allocator@D@2@@std@@@std@@PEAU?$_Tree_node@U?$pair@$$CBW4VipsInterpretation@@V?$basic_string@DU?$char_traits@D@std@@V?$allocator@D@2@@std@@@std@@PEAX@2@@?$_Tree@V?$_Tmap_traits@W4VipsInterpretation@@V?$basic_string@DU?$char_traits@D@std@@V?$allocator@D@2@@std@@U?$less@W4VipsInterpretation@@@3@V?$allocator@U?$pair@$$CBW4VipsInterpretation@@V?$basic_string@DU?$char_traits@D@std@@V?$allocator@D@2@@std@@@std@@@3@$0A@@std@@@std@@IEAA?AV?$_Tree_iterator@V?$_Tree_val@U?$_Tree_simple_types@U?$pair@$$CBW4VipsInterpretation@@V?$basic_string@DU?$char_traits@D@std@@V?$allocator@D@2@@std@@@std@@@std@@@std@@@1@V?$_Tree_const_iterator@V?$_Tree_val@U?$_Tree_simple_types@U?$pair@$$CBW4VipsInterpretation@@V?$basic_string@DU?$char_traits@D@std@@V?$allocator@D@2@@std@@@std@@@std@@@std@@@1@AEAU?$pair@$$CBW4VipsInterpretation@@V?$basic_string@DU?$char_traits@D@std@@V?$allocator@D@2@@std@@@1@PEAU?$_Tree_node@U?$pair@$$CBW4VipsInterpretation@@V?$basic_string@DU?$char_traits@D@std@@V?$allocator@D@2@@std@@@std@@PEAX@1@@Z 000000018003d7dc     pipeline.obj
 0002:0000e7dc       $chain$8$??$_Insert_hint@AEAU?$pair@$$CBW4VipsInterpretation@@V?$basic_string@DU?$char_traits@D@std@@V?$allocator@D@2@@std@@@std@@PEAU?$_Tree_node@U?$pair@$$CBW4VipsInterpretation@@V?$basic_string@DU?$char_traits@D@std@@V?$allocator@D@2@@std@@@std@@PEAX@2@@?$_Tree@V?$_Tmap_traits@W4VipsInterpretation@@V?$basic_string@DU?$char_traits@D@std@@V?$allocator@D@2@@std@@U?$less@W4VipsInterpretation@@@3@V?$allocator@U?$pair@$$CBW4VipsInterpretation@@V?$basic_string@DU?$char_traits@D@std@@V?$allocator@D@2@@std@@@std@@@3@$0A@@std@@@std@@IEAA?AV?$_Tree_iterator@V?$_Tree_val@U?$_Tree_simple_types@U?$pair@$$CBW4VipsInterpretation@@V?$basic_string@DU?$char_traits@D@std@@V?$allocator@D@2@@std@@@std@@@std@@@std@@@1@V?$_Tree_const_iterator@V?$_Tree_val@U?$_Tree_simple_types@U?$pair@$$CBW4VipsInterpretation@@V?$basic_string@DU?$char_traits@D@std@@V?$allocator@D@2@@std@@@std@@@std@@@std@@@1@AEAU?$pair@$$CBW4VipsInterpretation@@V?$basic_string@DU?$char_traits@D@std@@V?$allocator@D@2@@std@@@1@PEAU?$_Tree_node@U?$pair@$$CBW4VipsInterpretation@@V?$basic_string@DU?$char_traits@D@std@@V?$allocator@D@2@@std@@@std@@PEAX@1@@Z 000000018003d7dc     pipeline.obj
 0002:0000e7dc       $chain$6$??$_Insert_hint@AEAU?$pair@$$CBW4VipsInterpretation@@V?$basic_string@DU?$char_traits@D@std@@V?$allocator@D@2@@std@@@std@@PEAU?$_Tree_node@U?$pair@$$CBW4VipsInterpretation@@V?$basic_string@DU?$char_traits@D@std@@V?$allocator@D@2@@std@@@std@@PEAX@2@@?$_Tree@V?$_Tmap_traits@W4VipsInterpretation@@V?$basic_string@DU?$char_traits@D@std@@V?$allocator@D@2@@std@@U?$less@W4VipsInterpretation@@@3@V?$allocator@U?$pair@$$CBW4VipsInterpretation@@V?$basic_string@DU?$char_traits@D@std@@V?$allocator@D@2@@std@@@std@@@3@$0A@@std@@@std@@IEAA?AV?$_Tree_iterator@V?$_Tree_val@U?$_Tree_simple_types@U?$pair@$$CBW4VipsInterpretation@@V?$basic_string@DU?$char_traits@D@std@@V?$allocator@D@2@@std@@@std@@@std@@@std@@@1@V?$_Tree_const_iterator@V?$_Tree_val@U?$_Tree_simple_types@U?$pair@$$CBW4VipsInterpretation@@V?$basic_string@DU?$char_traits@D@std@@V?$allocator@D@2@@std@@@std@@@std@@@std@@@1@AEAU?$pair@$$CBW4VipsInterpretation@@V?$basic_string@DU?$char_traits@D@std@@V?$allocator@D@2@@std@@@1@PEAU?$_Tree_node@U?$pair@$$CBW4VipsInterpretation@@V?$basic_string@DU?$char_traits@D@std@@V?$allocator@D@2@@std@@@std@@PEAX@1@@Z 000000018003d7dc     pipeline.obj
 0002:0000e7f0       $unwind$?FunctionCallbackWrapper@imp@Nan@@YAXAEBV?$FunctionCallbackInfo@VValue@v8@@@v8@@@Z 000000018003d7f0     sharp.obj
 0002:0000e804       $unwind$?init@@YAXV?$Local@VObject@v8@@@v8@@@Z 000000018003d804     sharp.obj
 0002:0000e81c       $stateUnwindMap$?init@@YAXV?$Local@VObject@v8@@@v8@@@Z 000000018003d81c     sharp.obj
 0002:0000e8b0       $ip2state$?init@@YAXV?$Local@VObject@v8@@@v8@@@Z 000000018003d8b0     sharp.obj
 0002:0000e9d8       $unwind$??$New@VFunctionTemplate@v8@@@Nan@@YA?AV?$Local@VFunctionTemplate@v8@@@v8@@P6AXAEBV?$FunctionCallbackInfo@VValue@v8@@@0@@ZV?$Local@VValue@v8@@@2@@Z 000000018003d9d8     sharp.obj
 0002:0000e9f8       $stateUnwindMap$??$New@VFunctionTemplate@v8@@@Nan@@YA?AV?$Local@VFunctionTemplate@v8@@@v8@@P6AXAEBV?$FunctionCallbackInfo@VValue@v8@@@0@@ZV?$Local@VValue@v8@@@2@@Z 000000018003d9f8     sharp.obj
 0002:0000ea08       $ip2state$??$New@VFunctionTemplate@v8@@@Nan@@YA?AV?$Local@VFunctionTemplate@v8@@@v8@@P6AXAEBV?$FunctionCallbackInfo@VValue@v8@@@0@@ZV?$Local@VValue@v8@@@2@@Z 000000018003da08     sharp.obj
 0002:0000ea30       $unwind$?ThrowError@Nan@@YAXPEBD@Z 000000018003da30     utilities.obj
 0002:0000ea40       $ip2state$?ThrowError@Nan@@YAXPEBD@Z 000000018003da40     utilities.obj
 0002:0000ea58       $unwind$?cache@@YAXAEBV?$FunctionCallbackInfo@VValue@v8@@@Nan@@@Z 000000018003da58     utilities.obj
 0002:0000ea74       $stateUnwindMap$?cache@@YAXAEBV?$FunctionCallbackInfo@VValue@v8@@@Nan@@@Z 000000018003da74     utilities.obj
 0002:0000eb20       $ip2state$?cache@@YAXAEBV?$FunctionCallbackInfo@VValue@v8@@@Nan@@@Z 000000018003db20     utilities.obj
 0002:0000ec68       $unwind$?concurrency@@YAXAEBV?$FunctionCallbackInfo@VValue@v8@@@Nan@@@Z 000000018003dc68     utilities.obj
 0002:0000ec7c       $stateUnwindMap$?concurrency@@YAXAEBV?$FunctionCallbackInfo@VValue@v8@@@Nan@@@Z 000000018003dc7c     utilities.obj
 0002:0000ec90       $ip2state$?concurrency@@YAXAEBV?$FunctionCallbackInfo@VValue@v8@@@Nan@@@Z 000000018003dc90     utilities.obj
 0002:0000ecb8       $unwind$?counters@@YAXAEBV?$FunctionCallbackInfo@VValue@v8@@@Nan@@@Z 000000018003dcb8     utilities.obj
 0002:0000ecd4       $stateUnwindMap$?counters@@YAXAEBV?$FunctionCallbackInfo@VValue@v8@@@Nan@@@Z 000000018003dcd4     utilities.obj
 0002:0000ed00       $ip2state$?counters@@YAXAEBV?$FunctionCallbackInfo@VValue@v8@@@Nan@@@Z 000000018003dd00     utilities.obj
 0002:0000ed48       $unwind$?simd@@YAXAEBV?$FunctionCallbackInfo@VValue@v8@@@Nan@@@Z 000000018003dd48     utilities.obj
 0002:0000ed60       $stateUnwindMap$?simd@@YAXAEBV?$FunctionCallbackInfo@VValue@v8@@@Nan@@@Z 000000018003dd60     utilities.obj
 0002:0000ed68       $ip2state$?simd@@YAXAEBV?$FunctionCallbackInfo@VValue@v8@@@Nan@@@Z 000000018003dd68     utilities.obj
 0002:0000ed80       $unwind$?libvipsVersion@@YAXAEBV?$FunctionCallbackInfo@VValue@v8@@@Nan@@@Z 000000018003dd80     utilities.obj
 0002:0000ed98       $unwind$?format@@YAXAEBV?$FunctionCallbackInfo@VValue@v8@@@Nan@@@Z 000000018003dd98     utilities.obj
 0002:0000edc4       $stateUnwindMap$?format@@YAXAEBV?$FunctionCallbackInfo@VValue@v8@@@Nan@@@Z 000000018003ddc4     utilities.obj
 0002:0000ee90       $ip2state$?format@@YAXAEBV?$FunctionCallbackInfo@VValue@v8@@@Nan@@@Z 000000018003de90     utilities.obj
 0002:0000f028       $unwind$?_maxColourDistance@@YAXAEBV?$FunctionCallbackInfo@VValue@v8@@@Nan@@@Z 000000018003e028     utilities.obj
 0002:0000f04c       $stateUnwindMap$?_maxColourDistance@@YAXAEBV?$FunctionCallbackInfo@VValue@v8@@@Nan@@@Z 000000018003e04c     utilities.obj
 0002:0000f0ec       $tryMap$?_maxColourDistance@@YAXAEBV?$FunctionCallbackInfo@VValue@v8@@@Nan@@@Z 000000018003e0ec     utilities.obj
 0002:0000f128       $handlerMap$0$?_maxColourDistance@@YAXAEBV?$FunctionCallbackInfo@VValue@v8@@@Nan@@@Z 000000018003e128     utilities.obj
 0002:0000f13c       $handlerMap$1$?_maxColourDistance@@YAXAEBV?$FunctionCallbackInfo@VValue@v8@@@Nan@@@Z 000000018003e13c     utilities.obj
 0002:0000f150       $handlerMap$2$?_maxColourDistance@@YAXAEBV?$FunctionCallbackInfo@VValue@v8@@@Nan@@@Z 000000018003e150     utilities.obj
 0002:0000f170       $ip2state$?_maxColourDistance@@YAXAEBV?$FunctionCallbackInfo@VValue@v8@@@Nan@@@Z 000000018003e170     utilities.obj
 0002:0000f288       $unwind$?catch$20@?0??_maxColourDistance@@YAXAEBV?$FunctionCallbackInfo@VValue@v8@@@Nan@@@Z@4HA 000000018003e288     utilities.obj
 0002:0000f288       $unwind$?catch$21@?0??_maxColourDistance@@YAXAEBV?$FunctionCallbackInfo@VValue@v8@@@Nan@@@Z@4HA 000000018003e288     utilities.obj
 0002:0000f288       $unwind$?catch$22@?0??_maxColourDistance@@YAXAEBV?$FunctionCallbackInfo@VValue@v8@@@Nan@@@Z@4HA 000000018003e288     utilities.obj
 0002:0000f298       xdata                      000000018003e298     node:node.exe
 0002:0000f2a0       $unwind$?_Xlength_error@std@@YAXPEBD@Z 000000018003e2a0     libcpmt:xthrow.obj
 0002:0000f2a0       $unwind$?__scrt_throw_std_bad_alloc@@YAXXZ 000000018003e2a0     LIBCMT:throw_bad_alloc.obj
 0002:0000f2a0       $unwind$?_Xout_of_range@std@@YAXPEBD@Z 000000018003e2a0     libcpmt:xthrow.obj
 0002:0000f2a0       $unwind$?_Xbad_function_call@std@@YAXXZ 000000018003e2a0     libcpmt:xthrow.obj
 0002:0000f2a0       $unwind$_raise_exc         000000018003e2a0     libucrt:fpexcept.obj
 0002:0000f2a0       $unwind$?__scrt_throw_std_bad_array_new_length@@YAXXZ 000000018003e2a0     LIBCMT:throw_bad_alloc.obj
 0002:0000f2a8       $unwind$??0out_of_range@std@@QEAA@PEBD@Z 000000018003e2a8     libcpmt:xthrow.obj
 0002:0000f2a8       $unwind$?__mbrtowc_utf8@__crt_mbstring@@YA_KPEA_WPEBD_KPEAU_Mbstatet@@@Z 000000018003e2a8     libucrt:mbrtowc.obj
 0002:0000f2a8       $unwind$??0length_error@std@@QEAA@PEBD@Z 000000018003e2a8     libcpmt:xthrow.obj
 0002:0000f2a8       $unwind$??$common_xtox_s@K_W@@YAHKQEA_W_KI_N@Z 000000018003e2a8     libucrt:xtoa.obj
 0002:0000f2b0       $xdatasym                  000000018003e2b0     LIBCMT:_amdsecgs_.obj
 0002:0000f2b4       $unwind$?dllmain_crt_process_attach@@YAHQEAUHINSTANCE__@@QEAX@Z 000000018003e2b4     LIBCMT:dll_dllmain.obj
 0002:0000f2f0       $unwind$?dllmain_crt_process_detach@@YAH_N@Z 000000018003e2f0     LIBCMT:dll_dllmain.obj
 0002:0000f328       $unwind$?dllmain_dispatch@@YAHQEAUHINSTANCE__@@KQEAX@Z 000000018003e328     LIBCMT:dll_dllmain.obj
 0002:0000f350       $unwind$?filt$0@?0??dllmain_dispatch@@YAHQEAUHINSTANCE__@@KQEAX@Z@4HA 000000018003e350     LIBCMT:dll_dllmain.obj
 0002:0000f358       $unwind$_DllMainCRTStartup 000000018003e358     LIBCMT:dll_dllmain.obj
 0002:0000f358       $unwind$?type_case_n@?$output_processor@_WV?$string_output_adapter@_W@__crt_stdio_output@@V?$standard_base@_WV?$string_output_adapter@_W@__crt_stdio_output@@@2@@__crt_stdio_output@@AEAA_NXZ 000000018003e358     libucrt:output.obj
 0002:0000f358       $unwind$?type_case_Z@?$output_processor@_WV?$stream_output_adapter@_W@__crt_stdio_output@@V?$standard_base@_WV?$stream_output_adapter@_W@__crt_stdio_output@@@2@@__crt_stdio_output@@AEAA_NXZ 000000018003e358     libucrt:output.obj
 0002:0000f358       $unwind$__acrt_stdio_flush_nolock 000000018003e358     libucrt:fflush.obj
 0002:0000f358       $unwind$__vcrt_InitializeCriticalSectionEx 000000018003e358     libvcruntime:winapi_downlevel.obj
 0002:0000f358       $unwind$?free_crt_array_internal@@YAXQEAPEBX_K@Z 000000018003e358     libucrt:inittime.obj
 0002:0000f358       $unwind$__vcrt_getptd_noexit 000000018003e358     libvcruntime:per_thread_data.obj
 0002:0000f358       $unwind$?type_case_s@?$output_processor@_WV?$stream_output_adapter@_W@__crt_stdio_output@@V?$standard_base@_WV?$stream_output_adapter@_W@__crt_stdio_output@@@2@@__crt_stdio_output@@AEAA_NXZ 000000018003e358     libucrt:output.obj
 0002:0000f358       $unwind$__acrt_InitializeCriticalSectionEx 000000018003e358     libucrt:winapi_thunks.obj
 0002:0000f358       $unwind$??$common_lseek_nolock@_J@@YA_JH_JH@Z 000000018003e358     libucrt:lseek.obj
 0002:0000f358       $unwind$?type_case_n@?$output_processor@_WV?$stream_output_adapter@_W@__crt_stdio_output@@V?$standard_base@_WV?$stream_output_adapter@_W@__crt_stdio_output@@@2@@__crt_stdio_output@@AEAA_NXZ 000000018003e358     libucrt:output.obj
 0002:0000f358       $unwind$?type_case_Z@?$output_processor@_WV?$string_output_adapter@_W@__crt_stdio_output@@V?$standard_base@_WV?$string_output_adapter@_W@__crt_stdio_output@@@2@@__crt_stdio_output@@AEAA_NXZ 000000018003e358     libucrt:output.obj
 0002:0000f358       $unwind$__acrt_execute_initializers 000000018003e358     libucrt:shared_initialization.obj
 0002:0000f358       $unwind$?type_case_s@?$output_processor@_WV?$string_output_adapter@_W@__crt_stdio_output@@V?$standard_base@_WV?$string_output_adapter@_W@__crt_stdio_output@@@2@@__crt_stdio_output@@AEAA_NXZ 000000018003e358     libucrt:output.obj
 0002:0000f358       $unwind$_exception_enabled 000000018003e358     libucrt:libm_error.obj
 0002:0000f358       $unwind$?CatchTryBlock@__FrameHandler3@@SAPEBU_s_TryBlockMapEntry@@PEBU_s_FuncInfo@@H@Z 000000018003e358     libvcruntime:risctrnsctrl.obj
 0002:0000f358       $unwind$?FrameUnwindToEmptyState@__FrameHandler3@@SAXPEA_KPEAU_xDISPATCHER_CONTEXT@@PEBU_s_FuncInfo@@@Z 000000018003e358     libvcruntime:risctrnsctrl.obj
 0002:0000f358       $unwind$__acrt_stdio_flush_and_write_narrow_nolock 000000018003e358     libucrt:_flsbuf.obj
 0002:0000f358       $unwind$__acrt_stdio_flush_and_write_wide_nolock 000000018003e358     libucrt:_flsbuf.obj
 0002:0000f358       $unwind$memcpy_s           000000018003e358     libucrt:cfout.obj
 0002:0000f358       $unwind$??0_LocaleUpdate@@QEAA@QEAU__crt_locale_pointers@@@Z 000000018003e358     libucrt:atox.obj
 0002:0000f368       $unwind$__report_securityfailure 000000018003e368     LIBCMT:gs_report.obj
 0002:0000f370       $unwind$__report_gsfailure 000000018003e370     LIBCMT:gs_report.obj
 0002:0000f378       $unwind$capture_current_context 000000018003e378     LIBCMT:gs_report.obj
 0002:0000f384       $unwind$capture_previous_context 000000018003e384     LIBCMT:gs_report.obj
 0002:0000f390       $unwind$__security_init_cookie 000000018003e390     LIBCMT:gs_support.obj
 0002:0000f39c       $unwind$__scrt_is_nonwritable_in_current_image 000000018003e39c     LIBCMT:utility.obj
 0002:0000f3bc       $unwind$__scrt_is_nonwritable_in_current_image$filt$0 000000018003e3bc     LIBCMT:utility.obj
 0002:0000f3c4       $unwind$__scrt_initialize_onexit_tables 000000018003e3c4     LIBCMT:utility.obj
 0002:0000f3c4       $unwind$__dcrt_lowio_ensure_console_output_initialized 000000018003e3c4     libucrt:initcon.obj
 0002:0000f3c4       $unwind$_isleadbyte_l      000000018003e3c4     libucrt:_wctype.obj
 0002:0000f3c4       $unwind$?getSystemCP@@YAHH@Z 000000018003e3c4     libucrt:mbctype.obj
 0002:0000f3c4       $unwind$isdigit            000000018003e3c4     libucrt:_ctype.obj
 0002:0000f3cc       $unwind$__scrt_fastfail    000000018003e3cc     LIBCMT:utility_desktop.obj
 0002:0000f3dc       $unwind$__isa_available_init 000000018003e3dc     LIBCMT:_cpu_disp_.obj
 0002:0000f3f0       $xdatasym                  000000018003e3f0     LIBCMT:_guard_dispatch_.obj
 0002:0000f3f4       $unwind$?GetEstablisherFrame@__FrameHandler3@@SAPEA_KPEA_KPEAU_xDISPATCHER_CONTEXT@@PEBU_s_FuncInfo@@0@Z 000000018003e3f4     libvcruntime:risctrnsctrl.obj
 0002:0000f40c       $unwind$?UnwindNestedFrames@__FrameHandler3@@SAXPEA_KPEAUEHExceptionRecord@@PEAU_CONTEXT@@0PEAXPEBU_s_FuncInfo@@HHPEBU_s_HandlerType@@PEAU_xDISPATCHER_CONTEXT@@E@Z 000000018003e40c     libvcruntime:risctrnsctrl.obj
 0002:0000f420       $unwind$?GetRangeOfTrysToCheck@__FrameHandler3@@SA?AU?$pair@Viterator@TryBlockMap@__FrameHandler3@@V123@@std@@AEAVTryBlockMap@1@HH@Z 000000018003e420     libvcruntime:risctrnsctrl.obj
 0002:0000f438       $unwind$__CxxFrameHandler3 000000018003e438     libvcruntime:risctrnsctrl.obj
 0002:0000f448       $unwind$??$_CallSETranslator@V__FrameHandler3@@@@YAHPEAUEHExceptionRecord@@PEA_KPEAU_CONTEXT@@PEAU_xDISPATCHER_CONTEXT@@PEBU_s_FuncInfo@@K1@Z 000000018003e448     libvcruntime:risctrnsctrl.obj
 0002:0000f468       $unwind$?filt$0@?0???$_CallSETranslator@V__FrameHandler3@@@@YAHPEAUEHExceptionRecord@@PEA_KPEAU_CONTEXT@@PEAU_xDISPATCHER_CONTEXT@@PEBU_s_FuncInfo@@K1@Z@4HA 000000018003e468     libvcruntime:risctrnsctrl.obj
 0002:0000f474       $unwind$__DestructExceptionObject 000000018003e474     libvcruntime:ehhelpers.obj
 0002:0000f494       $unwind$_CxxThrowException 000000018003e494     libvcruntime:throw.obj
 0002:0000f4a4       $unwind$__C_specific_handler 000000018003e4a4     libvcruntime:_riscchandler_.obj
 0002:0000f4c0       $xdatasym                  000000018003e4c0     libvcruntime:memset.obj
 0002:0000f4d0       $unwind$?FrameUnwindToState@__FrameHandler3@@SAXPEA_KPEAU_xDISPATCHER_CONTEXT@@PEBU_s_FuncInfo@@H@Z 000000018003e4d0     libvcruntime:frame.obj
 0002:0000f51c       $unwind$?CxxCallCatchBlock@__FrameHandler3@@SAPEAXPEAU_EXCEPTION_RECORD@@@Z 000000018003e51c     libvcruntime:frame.obj
 0002:0000f558       $unwind$?fin$1@?0??CxxCallCatchBlock@__FrameHandler3@@SAPEAXPEAU_EXCEPTION_RECORD@@@Z@4HA 000000018003e558     libvcruntime:frame.obj
 0002:0000f564       $unwind$?try_get_function@@YAPEAXW4function_id@?A0xcc2f1bd3@@QEBDQEBW4module_id@2@2@Z 000000018003e564     libvcruntime:winapi_downlevel.obj
 0002:0000f564       $unwind$?IsInExceptionSpec@@YAEPEAUEHExceptionRecord@@PEBU_s_ESTypeList@@@Z 000000018003e564     libvcruntime:frame.obj
 0002:0000f564       $unwind$?try_get_function@@YAPEAXW4function_id@?A0x391cf84c@@QEBDQEBW4module_id@2@2@Z 000000018003e564     libucrt:winapi_thunks.obj
 0002:0000f564       $unwind$??R<lambda_f03950bc5685219e0bcd2087efbe011e>@@QEBAHXZ 000000018003e564     libucrt:onexit.obj
 0002:0000f580       $unwind$??$__InternalCxxFrameHandler@V__FrameHandler3@@@@YA?AW4_EXCEPTION_DISPOSITION@@PEAUEHExceptionRecord@@PEA_KPEAU_CONTEXT@@PEAU_xDISPATCHER_CONTEXT@@PEBU_s_FuncInfo@@H1E@Z 000000018003e580     libvcruntime:frame.obj
 0002:0000f598       $unwind$??$TypeMatchHelper@$$CBU_s_HandlerType@@@@YAHPEBU_s_HandlerType@@PEBU_s_CatchableType@@PEBU_s_ThrowInfo@@@Z 000000018003e598     libvcruntime:frame.obj
 0002:0000f598       $unwind$__GSHandlerCheck_EH 000000018003e598     LIBCMT:gshandlereh.obj
 0002:0000f598       $unwind$__acrt_initialize_stdio 000000018003e598     libucrt:_file.obj
 0002:0000f5b0       $unwind$??$BuildCatchObjectHelperInternal@$$CBU_s_HandlerType@@@@YAHPEAUEHExceptionRecord@@PEAXPEBU_s_HandlerType@@PEBU_s_CatchableType@@@Z 000000018003e5b0     libvcruntime:frame.obj
 0002:0000f5f0       $unwind$??$BuildCatchObjectInternal@$$CBU_s_HandlerType@@@@YAXPEAUEHExceptionRecord@@PEAXPEBU_s_HandlerType@@PEBU_s_CatchableType@@@Z 000000018003e5f0     libvcruntime:frame.obj
 0002:0000f61c       $unwind$??$FindHandler@V__FrameHandler3@@@@YAXPEAUEHExceptionRecord@@PEA_KPEAU_CONTEXT@@PEAU_xDISPATCHER_CONTEXT@@PEBU_s_FuncInfo@@EH1@Z 000000018003e61c     libvcruntime:frame.obj
 0002:0000f638       $unwind$??$CatchIt@V__FrameHandler3@@@@YAXPEAUEHExceptionRecord@@PEA_KPEAU_CONTEXT@@PEAU_xDISPATCHER_CONTEXT@@PEBU_s_FuncInfo@@PEBU_s_HandlerType@@PEBU_s_CatchableType@@PEBU_s_TryBlockMapEntry@@H1EE@Z 000000018003e638     libvcruntime:frame.obj
 0002:0000f650       $unwind$??$FindHandlerForForeignException@V__FrameHandler3@@@@YAXPEAUEHExceptionRecord@@PEA_KPEAU_CONTEXT@@PEAU_xDISPATCHER_CONTEXT@@PEBU_s_FuncInfo@@HH1@Z 000000018003e650     libvcruntime:frame.obj
 0002:0000f670       $xdatasym                  000000018003e670     libvcruntime:_notify_.obj
 0002:0000f67c       $unwind$__vcrt_initialize_winapi_thunks 000000018003e67c     libvcruntime:winapi_downlevel.obj
 0002:0000f67c       $unwind$__acrt_initialize_winapi_thunks 000000018003e67c     libucrt:winapi_thunks.obj
 0002:0000f684       $unwind$__acrt_stdio_end_temporary_buffering_nolock 000000018003e684     libucrt:_sftbuf.obj
 0002:0000f684       $unwind$__vcrt_uninitialize_winapi_thunks 000000018003e684     libvcruntime:winapi_downlevel.obj
 0002:0000f690       $xdatasym                  000000018003e690     libvcruntime:handlers.obj
 0002:0000f6a0       $xdatasym                  000000018003e6a0     libvcruntime:memcpy.obj
 0002:0000f6b0       $unwind$wctomb_s           000000018003e6b0     libucrt:wctomb.obj
 0002:0000f6b0       $unwind$atoi               000000018003e6b0     libucrt:atox.obj
 0002:0000f6b0       $unwind$wcstol             000000018003e6b0     libucrt:strtox.obj
 0002:0000f6b0       $unwind$_invalid_parameter_noinfo 000000018003e6b0     libucrt:invalid_parameter.obj
 0002:0000f6b0       $unwind$_invalid_parameter_noinfo_noreturn 000000018003e6b0     libucrt:invalid_parameter.obj
 0002:0000f6b0       $unwind$_log10_special     000000018003e6b0     libucrt:log_special.obj
 0002:0000f6b0       $unwind$_itow_s            000000018003e6b0     libucrt:xtoa.obj
 0002:0000f6b0       $unwind$fflush             000000018003e6b0     libucrt:fflush.obj
 0002:0000f6b8       $unwind$??$parse_integer@KV?$c_string_character_source@D@__crt_strtox@@@__crt_strtox@@YAKQEAU__crt_locale_pointers@@V?$c_string_character_source@D@0@H_N@Z 000000018003e6b8     libucrt:atox.obj
 0002:0000f6d0       $unwind$??$parse_integer@KV?$c_string_character_source@_W@__crt_strtox@@@__crt_strtox@@YAKQEAU__crt_locale_pointers@@V?$c_string_character_source@_W@0@H_N@Z 000000018003e6d0     libucrt:atox.obj
 0002:0000f6e8       $unwind$round              000000018003e6e8     libucrt:round.obj
 0002:0000f6f0       $unwind$fwprintf           000000018003e6f0     libucrt:assert.obj
 0002:0000f6fc       $unwind$swprintf           000000018003e6fc     libucrt:assert.obj
 0002:0000f70c       $unwind$??$common_assert_to_stderr@_W@@YAXQEB_W0I@Z 000000018003e70c     libucrt:assert.obj
 0002:0000f728       $unwind$??$common_assert_to_message_box@_W@@YAXQEB_W0IQEAX@Z 000000018003e728     libucrt:assert.obj
 0002:0000f744       $unwind$??$common_assert_to_message_box_build_string@_W@@YAXQEA_W_KQEB_W2IQEAX@Z 000000018003e744     libucrt:assert.obj
 0002:0000f764       $unwind$__acrt_call_reportfault 000000018003e764     libucrt:invalid_parameter.obj
 0002:0000f784       $unwind$??$__acrt_convert_wcs_mbs@_WD$$A6A_KPEADPEB_W_KPEAU__crt_locale_pointers@@@ZU__crt_win32_buffer_no_resizing@@@@YAHQEB_WAEAV?$__crt_win32_buffer@DU__crt_win32_buffer_no_resizing@@@@A6A_KPEADPEB_W_KPEAU__crt_locale_pointers@@@Z5@Z 000000018003e784     libucrt:findnextfilea.obj
 0002:0000f784       $unwind$_invalid_parameter 000000018003e784     libucrt:invalid_parameter.obj
 0002:0000f784       $unwind$__acrt_MessageBoxW 000000018003e784     libucrt:winapi_thunks.obj
 0002:0000f798       $unwind$_stricmp_l         000000018003e798     libucrt:stricmp.obj
 0002:0000f798       $unwind$?x_ismbbtype_l@@YAHPEAU__crt_locale_pointers@@IHH@Z 000000018003e798     libucrt:ismbbyte.obj
 0002:0000f7a8       $unwind$_query_new_handler 000000018003e7a8     libucrt:new_handler.obj
 0002:0000f7c8       $unwind$?common_exit@@YAXHW4_crt_exit_cleanup_mode@@W4_crt_exit_return_mode@@@Z 000000018003e7c8     libucrt:exit.obj
 0002:0000f7d4       $unwind$??R<lambda_6e4b09c48022b2350581041d5f6b0c4c>@@QEBA@XZ 000000018003e7d4     libucrt:exit.obj
 0002:0000f7f4       $unwind$??$?RV<lambda_d80eeec6fff315bfe5c115232f3240e3>@@AEAV<lambda_6e4b09c48022b2350581041d5f6b0c4c>@@V<lambda_2358e3775559c9db80273638284d5e45>@@@?$__crt_seh_guarded_call@X@@QEAAX$$QEAV<lambda_d80eeec6fff315bfe5c115232f3240e3>@@AEAV<lambda_6e4b09c48022b2350581041d5f6b0c4c>@@$$QEAV<lambda_2358e3775559c9db80273638284d5e45>@@@Z 000000018003e7f4     libucrt:exit.obj
 0002:0000f818       $unwind$_configure_narrow_argv 000000018003e818     libucrt:argv_parsing.obj
 0002:0000f82c       $unwind$?write_string_impl@?$output_adapter_common@_WV?$stream_output_adapter@_W@__crt_stdio_output@@@__crt_stdio_output@@IEBAXQEB_WHQEAHAEAV__crt_deferred_errno_cache@@@Z 000000018003e82c     libucrt:output.obj
 0002:0000f82c       $unwind$??$parse_command_line@D@@YAXPEADPEAPEAD0PEA_K2@Z 000000018003e82c     libucrt:argv_parsing.obj
 0002:0000f848       $unwind$??$free_environment@_W@@YAXQEAPEA_W@Z 000000018003e848     libucrt:environment_initialization.obj
 0002:0000f848       $unwind$??$free_environment@D@@YAXQEAPEAD@Z 000000018003e848     libucrt:environment_initialization.obj
 0002:0000f854       $unwind$??$create_environment@D@@YAQEAPEADQEAD@Z 000000018003e854     libucrt:environment_initialization.obj
 0002:0000f86c       $unwind$_execute_onexit_table 000000018003e86c     libucrt:onexit.obj
 0002:0000f874       $unwind$??$?RV<lambda_7777bce6b2f8c936911f934f8298dc43>@@AEAV<lambda_f03950bc5685219e0bcd2087efbe011e>@@V<lambda_3883c3dff614d5e0c5f61bb1ac94921c>@@@?$__crt_seh_guarded_call@H@@QEAAH$$QEAV<lambda_7777bce6b2f8c936911f934f8298dc43>@@AEAV<lambda_f03950bc5685219e0bcd2087efbe011e>@@$$QEAV<lambda_3883c3dff614d5e0c5f61bb1ac94921c>@@@Z 000000018003e874     libucrt:onexit.obj
 0002:0000f898       $unwind$terminate          000000018003e898     libucrt:terminate.obj
 0002:0000f8b8       $unwind$__stdio_common_vfwprintf 000000018003e8b8     libucrt:output.obj
 0002:0000f8c0       $unwind$??$common_vsprintf@Vstandard_base@__crt_stdio_output@@_W@@YAH_KQEA_W0QEB_WQEAU__crt_locale_pointers@@QEAD@Z 000000018003e8c0     libucrt:output.obj
 0002:0000f8e0       $unwind$?process@?$output_processor@_WV?$stream_output_adapter@_W@__crt_stdio_output@@V?$standard_base@_WV?$stream_output_adapter@_W@__crt_stdio_output@@@2@@__crt_stdio_output@@QEAAHXZ 000000018003e8e0     libucrt:output.obj
 0002:0000f8e0       $unwind$?process@?$output_processor@_WV?$string_output_adapter@_W@__crt_stdio_output@@V?$standard_base@_WV?$string_output_adapter@_W@__crt_stdio_output@@@2@@__crt_stdio_output@@QEAAHXZ 000000018003e8e0     libucrt:output.obj
 0002:0000f8f4       $unwind$?parse_int_from_format_string@?$output_processor@_WV?$stream_output_adapter@_W@__crt_stdio_output@@V?$standard_base@_WV?$stream_output_adapter@_W@__crt_stdio_output@@@2@@__crt_stdio_output@@AEAA_NQEAH@Z 000000018003e8f4     libucrt:output.obj
 0002:0000f8f4       $unwind$?parse_int_from_format_string@?$output_processor@_WV?$string_output_adapter@_W@__crt_stdio_output@@V?$standard_base@_WV?$string_output_adapter@_W@__crt_stdio_output@@@2@@__crt_stdio_output@@AEAA_NQEAH@Z 000000018003e8f4     libucrt:output.obj
 0002:0000f908       $unwind$?state_case_type@?$output_processor@_WV?$stream_output_adapter@_W@__crt_stdio_output@@V?$standard_base@_WV?$stream_output_adapter@_W@__crt_stdio_output@@@2@@__crt_stdio_output@@AEAA_NXZ 000000018003e908     libucrt:output.obj
 0002:0000f928       $unwind$?type_case_a@?$output_processor@_WV?$stream_output_adapter@_W@__crt_stdio_output@@V?$standard_base@_WV?$stream_output_adapter@_W@__crt_stdio_output@@@2@@__crt_stdio_output@@AEAA_NXZ 000000018003e928     libucrt:output.obj
 0002:0000f928       $unwind$?type_case_a@?$output_processor@_WV?$string_output_adapter@_W@__crt_stdio_output@@V?$standard_base@_WV?$string_output_adapter@_W@__crt_stdio_output@@@2@@__crt_stdio_output@@AEAA_NXZ 000000018003e928     libucrt:output.obj
 0002:0000f938       $unwind$?write_stored_string_tchar@?$output_processor@_WV?$stream_output_adapter@_W@__crt_stdio_output@@V?$standard_base@_WV?$stream_output_adapter@_W@__crt_stdio_output@@@2@@__crt_stdio_output@@AEAA_N_W@Z 000000018003e938     libucrt:output.obj
 0002:0000f94c       $unwind$??R<lambda_a775ed57af18ba8e4d5dc780aa9068fe>@@QEBAHXZ 000000018003e94c     libucrt:output.obj
 0002:0000f96c       $unwind$?write_string@?$string_output_adapter@_W@__crt_stdio_output@@QEBAXQEB_WHQEAHAEAV__crt_deferred_errno_cache@@@Z 000000018003e96c     libucrt:output.obj
 0002:0000f984       $unwind$?state_case_type@?$output_processor@_WV?$string_output_adapter@_W@__crt_stdio_output@@V?$standard_base@_WV?$string_output_adapter@_W@__crt_stdio_output@@@2@@__crt_stdio_output@@AEAA_NXZ 000000018003e984     libucrt:output.obj
 0002:0000f9a8       $unwind$?write_stored_string_tchar@?$output_processor@_WV?$string_output_adapter@_W@__crt_stdio_output@@V?$standard_base@_WV?$string_output_adapter@_W@__crt_stdio_output@@@2@@__crt_stdio_output@@AEAA_N_W@Z 000000018003e9a8     libucrt:output.obj
 0002:0000f9bc       $unwind$??$write_multiple_characters@V?$string_output_adapter@_W@__crt_stdio_output@@D@__crt_stdio_output@@YAXAEBV?$string_output_adapter@_W@0@DHQEAH@Z 000000018003e9bc     libucrt:output.obj
 0002:0000f9c8       $unwind$??$write_multiple_characters@V?$stream_output_adapter@_W@__crt_stdio_output@@D@__crt_stdio_output@@YAXAEBV?$stream_output_adapter@_W@0@DHQEAH@Z 000000018003e9c8     libucrt:output.obj
 0002:0000f9e0       $unwind$??$?RV<lambda_0d412022a4b28cc8a401ea49574e8ae6>@@AEAV<lambda_a775ed57af18ba8e4d5dc780aa9068fe>@@V<lambda_975a71a6baa488a08f4e15f6b0339b9e>@@@?$__crt_seh_guarded_call@H@@QEAAH$$QEAV<lambda_0d412022a4b28cc8a401ea49574e8ae6>@@AEAV<lambda_a775ed57af18ba8e4d5dc780aa9068fe>@@$$QEAV<lambda_975a71a6baa488a08f4e15f6b0339b9e>@@@Z 000000018003e9e0     libucrt:output.obj
 0002:0000fa08       $xdatasym                  000000018003ea08     libucrt:strncmp.obj
 0002:0000fa0c       $unwind$__acrt_locale_free_lc_time_if_unreferenced 000000018003ea0c     libucrt:locale_refcounting.obj
 0002:0000fa0c       $unwind$__acrt_locale_free_numeric 000000018003ea0c     libucrt:initnum.obj
 0002:0000fa0c       $unwind$_free_base         000000018003ea0c     libucrt:free_base.obj
 0002:0000fa0c       $unwind$?destroy_fls@@YAXPEAX@Z 000000018003ea0c     libucrt:per_thread_data.obj
 0002:0000fa14       $unwind$_isctype_l         000000018003ea14     libucrt:isctype.obj
 0002:0000fa2c       $unwind$?construct_ptd_array@@YAXQEAU__acrt_ptd@@@Z 000000018003ea2c     libucrt:per_thread_data.obj
 0002:0000fa34       $unwind$?destroy_ptd_array@@YAXQEAU__acrt_ptd@@@Z 000000018003ea34     libucrt:per_thread_data.obj
 0002:0000fa3c       $unwind$??$?RV<lambda_0ae27a3a962d80f24befdcbee591983d>@@AEAV<lambda_8d0ee55de4b1038c4002e0adecdf1839>@@V<lambda_dc504788e8f1664fe9b84e20bfb512f2>@@@?$__crt_seh_guarded_call@X@@QEAAX$$QEAV<lambda_0ae27a3a962d80f24befdcbee591983d>@@AEAV<lambda_8d0ee55de4b1038c4002e0adecdf1839>@@$$QEAV<lambda_dc504788e8f1664fe9b84e20bfb512f2>@@@Z 000000018003ea3c     libucrt:per_thread_data.obj
 0002:0000fa60       $unwind$??$?RV<lambda_aa87e3671a710a21b5dc78c0bdf72e11>@@AEAV<lambda_92619d2358a28f41a33ba319515a20b9>@@V<lambda_6992ecaafeb10aed2b74cb1fae11a551>@@@?$__crt_seh_guarded_call@X@@QEAAX$$QEAV<lambda_aa87e3671a710a21b5dc78c0bdf72e11>@@AEAV<lambda_92619d2358a28f41a33ba319515a20b9>@@$$QEAV<lambda_6992ecaafeb10aed2b74cb1fae11a551>@@@Z 000000018003ea60     libucrt:per_thread_data.obj
 0002:0000fa84       $unwind$??$?RV<lambda_f2e299630e499de9f9a165e60fcd3db5>@@AEAV<lambda_2ae9d31cdba2644fcbeaf08da7c24588>@@V<lambda_40d01ff24d0e7b3814fdbdcee8eab3c7>@@@?$__crt_seh_guarded_call@X@@QEAAX$$QEAV<lambda_f2e299630e499de9f9a165e60fcd3db5>@@AEAV<lambda_2ae9d31cdba2644fcbeaf08da7c24588>@@$$QEAV<lambda_40d01ff24d0e7b3814fdbdcee8eab3c7>@@@Z 000000018003ea84     libucrt:per_thread_data.obj
 0002:0000faa8       $unwind$??$?RV<lambda_2d41944a1d46af3157314b8a01080d33>@@AEAV<lambda_8f455de75cd7d7f24b4096f044d8b9e6>@@V<lambda_aa500f224e6afead328df44964fe2772>@@@?$__crt_seh_guarded_call@X@@QEAAX$$QEAV<lambda_2d41944a1d46af3157314b8a01080d33>@@AEAV<lambda_8f455de75cd7d7f24b4096f044d8b9e6>@@$$QEAV<lambda_aa500f224e6afead328df44964fe2772>@@@Z 000000018003eaa8     libucrt:per_thread_data.obj
 0002:0000facc       $unwind$__acrt_get_sigabrt_handler 000000018003eacc     libucrt:signal.obj
 0002:0000facc       $unwind$__acrt_uninitialize_locale 000000018003eacc     libucrt:wsetlocale.obj
 0002:0000fad4       $unwind$??$?RV<lambda_410d79af7f07d98d83a3f525b3859a53>@@AEAV<lambda_3e16ef9562a7dcce91392c22ab16ea36>@@V<lambda_38119f0e861e05405d8a144b9b982f0a>@@@?$__crt_seh_guarded_call@X@@QEAAX$$QEAV<lambda_410d79af7f07d98d83a3f525b3859a53>@@AEAV<lambda_3e16ef9562a7dcce91392c22ab16ea36>@@$$QEAV<lambda_38119f0e861e05405d8a144b9b982f0a>@@@Z 000000018003ead4     libucrt:wsetlocale.obj
 0002:0000fafc       $unwind$__acrt_GetModuleFileNameA 000000018003eafc     libucrt:getmodulefilenamea.obj
 0002:0000fb14       $unwind$?common_flush_all@@YAH_N@Z 000000018003eb14     libucrt:fflush.obj
 0002:0000fb1c       $unwind$??$?RV<lambda_842d9ff0dc9ef11c61343bbaebe7f885>@@AEAV<lambda_c5860995281e5c4ce005b3de8f5874ee>@@V<lambda_d90129c13df834fdcbf8d2b88dafcf2d>@@@?$__crt_seh_guarded_call@X@@QEAAX$$QEAV<lambda_842d9ff0dc9ef11c61343bbaebe7f885>@@AEAV<lambda_c5860995281e5c4ce005b3de8f5874ee>@@$$QEAV<lambda_d90129c13df834fdcbf8d2b88dafcf2d>@@@Z 000000018003eb1c     libucrt:fflush.obj
 0002:0000fb40       $unwind$??$?RV<lambda_886d6c58226a84441f68b9f2b8217b83>@@AEAV<lambda_ab61a845afdef5b7c387490eaf3616ee>@@V<lambda_f7f22ab5edc0698d5f6905b0d3f44752>@@@?$__crt_seh_guarded_call@X@@QEAAX$$QEAV<lambda_886d6c58226a84441f68b9f2b8217b83>@@AEAV<lambda_ab61a845afdef5b7c387490eaf3616ee>@@$$QEAV<lambda_f7f22ab5edc0698d5f6905b0d3f44752>@@@Z 000000018003eb40     libucrt:fflush.obj
 0002:0000fb68       $unwind$??$?RV<lambda_c376a267cfb53b6959b3b692ec76b120>@@AEAV<lambda_9a32fed5bf61b6b509b2d3f6003082a1>@@V<lambda_572fbb9fa0ab338edf41edfd4b5fcc8d>@@@?$__crt_seh_guarded_call@H@@QEAAH$$QEAV<lambda_c376a267cfb53b6959b3b692ec76b120>@@AEAV<lambda_9a32fed5bf61b6b509b2d3f6003082a1>@@$$QEAV<lambda_572fbb9fa0ab338edf41edfd4b5fcc8d>@@@Z 000000018003eb68     libucrt:fflush.obj
 0002:0000fb8c       $unwind$setvbuf            000000018003eb8c     libucrt:setvbuf.obj
 0002:0000fb94       $unwind$??$?RV<lambda_84ec643ea9557e2f7dc01bb0e9624395>@@AEAV<lambda_ca71763b3c0644891230e4f79ea54fa6>@@V<lambda_439a761618c59b0600e24586724d733b>@@@?$__crt_seh_guarded_call@H@@QEAAH$$QEAV<lambda_84ec643ea9557e2f7dc01bb0e9624395>@@AEAV<lambda_ca71763b3c0644891230e4f79ea54fa6>@@$$QEAV<lambda_439a761618c59b0600e24586724d733b>@@@Z 000000018003eb94     libucrt:setvbuf.obj
 0002:0000fbb8       $unwind$raise              000000018003ebb8     libucrt:signal.obj
 0002:0000fbf4       $unwind$??$?RV<lambda_450d765d439847d4c735a33c368b5fc0>@@AEAV<lambda_44731a7d0e6d81c3e6aa82d741081786>@@V<lambda_601a2a7da3b7a96e9554ac7215c4b07c>@@@?$__crt_seh_guarded_call@P6AXH@Z@@QEAAP6AXH@Z$$QEAV<lambda_450d765d439847d4c735a33c368b5fc0>@@AEAV<lambda_44731a7d0e6d81c3e6aa82d741081786>@@$$QEAV<lambda_601a2a7da3b7a96e9554ac7215c4b07c>@@@Z 000000018003ebf4     libucrt:signal.obj
 0002:0000fc18       $unwind$_tolower_l         000000018003ec18     libucrt:tolower_toupper.obj
 0002:0000fc28       $unwind$??$common_expand_argv_wildcards@D@@YAHQEAPEADQEAPEAPEAD@Z 000000018003ec28     libucrt:argv_wildcards.obj
 0002:0000fc40       $unwind$??$copy_and_add_argument_to_buffer@D@@YAHQEBD0_KAEAV?$argument_list@D@?A0x5f5c8891@@@Z 000000018003ec40     libucrt:argv_wildcards.obj
 0002:0000fc5c       $unwind$??$expand_argument_wildcards@D@@YAHQEAD0AEAV?$argument_list@D@?A0x5f5c8891@@@Z 000000018003ec5c     libucrt:argv_wildcards.obj
 0002:0000fc7c       $unwind$_setmbcp_nolock    000000018003ec7c     libucrt:mbctype.obj
 0002:0000fc9c       $unwind$?update_thread_multibyte_data_internal@@YAPEAU__crt_multibyte_data@@QEAU__acrt_ptd@@QEAPEAU1@@Z 000000018003ec9c     libucrt:mbctype.obj
 0002:0000fcc4       $unwind$?setmbcp_internal@@YAHH_NQEAU__acrt_ptd@@QEAPEAU__crt_multibyte_data@@@Z 000000018003ecc4     libucrt:mbctype.obj
 0002:0000fcd4       $unwind$?setSBUpLow@@YAXPEAU__crt_multibyte_data@@@Z 000000018003ecd4     libucrt:mbctype.obj
 0002:0000fcf0       $unwind$??$?RV<lambda_efdfa57d1f175319df784efa44bb7b81>@@AEAV<lambda_5f0a4c1567f8adc6734073e5d1e1b35c>@@V<lambda_2e8a7d3640ea6ccb4c2413664c2db6fd>@@@?$__crt_seh_guarded_call@X@@QEAAX$$QEAV<lambda_efdfa57d1f175319df784efa44bb7b81>@@AEAV<lambda_5f0a4c1567f8adc6734073e5d1e1b35c>@@$$QEAV<lambda_2e8a7d3640ea6ccb4c2413664c2db6fd>@@@Z 000000018003ecf0     libucrt:mbctype.obj
 0002:0000fd14       $unwind$__dcrt_get_narrow_environment_from_os 000000018003ed14     libucrt:get_environment_from_os.obj
 0002:0000fd14       $unwind$?fp_format_f_internal@@YAHQEAD_KHQEAU_strflt@@_NQEAU__crt_locale_pointers@@@Z 000000018003ed14     libucrt:cvt.obj
 0002:0000fd2c       $unwind$?fp_format_e@@YAHQEBNQEAD_K12H_NIQEAU__crt_locale_pointers@@@Z 000000018003ed2c     libucrt:cvt.obj
 0002:0000fd2c       $unwind$_mbtowc_l          000000018003ed2c     libucrt:mbtowc.obj
 0002:0000fd2c       $unwind$__acrt_LCMapStringEx 000000018003ed2c     libucrt:winapi_thunks.obj
 0002:0000fd40       $unwind$__acrt_is_interactive 000000018003ed40     libucrt:winapi_thunks.obj
 0002:0000fd54       $unwind$__acrt_initialize_lowio 000000018003ed54     libucrt:ioinit.obj
 0002:0000fd74       $unwind$?initialize_inherited_file_handles_nolock@@YAXXZ 000000018003ed74     libucrt:ioinit.obj
 0002:0000fd90       $unwind$_wctomb_s_l        000000018003ed90     libucrt:wctomb.obj
 0002:0000fda0       $unwind$__acrt_fp_format   000000018003eda0     libucrt:cvt.obj
 0002:0000fdb4       $unwind$?fp_format_nan_or_infinity@@YAHW4__acrt_fp_class@@_NPEAD_K1@Z 000000018003edb4     libucrt:cvt.obj
 0002:0000fdc8       $unwind$?fp_format_e_internal@@YAHQEAD_KH_NIQEAU_strflt@@2QEAU__crt_locale_pointers@@@Z 000000018003edc8     libucrt:cvt.obj
 0002:0000fde0       $unwind$?fp_format_a@@YAHQEBNPEAD_KQEAD2H_NIQEAU__crt_locale_pointers@@@Z 000000018003ede0     libucrt:cvt.obj
 0002:0000fdfc       $unwind$?fp_format_g@@YAHQEBNQEAD_K12H_NIQEAU__crt_locale_pointers@@@Z 000000018003edfc     libucrt:cvt.obj
 0002:0000fe10       $unwind$_fputwc_nolock     000000018003ee10     libucrt:fputwc.obj
 0002:0000fe2c       $unwind$__acrt_GetStringTypeA 000000018003ee2c     libucrt:getstringtypea.obj
 0002:0000fe54       $unwind$__acrt_update_thread_locale_data 000000018003ee54     libucrt:locale_refcounting.obj
 0002:0000fe78       $unwind$__acrt_locale_free_monetary 000000018003ee78     libucrt:initmon.obj
 0002:0000fe80       $unwind$__acrt_locale_free_time 000000018003ee80     libucrt:inittime.obj
 0002:0000fe90       $unwind$__acrt_fenv_set_control 000000018003ee90     libucrt:_fenvutils.obj
 0002:0000fea0       $unwind$?_mbstowcs_l_helper@@YA_KPEA_WPEBD_KPEAU__crt_locale_pointers@@@Z 000000018003eea0     libucrt:mbstowcs.obj
 0002:0000feb8       $unwind$_fcloseall         000000018003eeb8     libucrt:closeall.obj
 0002:0000fedc       $unwind$_commit            000000018003eedc     libucrt:commit.obj
 0002:0000fedc       $unwind$_close             000000018003eedc     libucrt:close.obj
 0002:0000fee4       $unwind$??$?RV<lambda_a37b2b86f63e897a80ea819b0eb08c01>@@AEAV<lambda_38ce7e780aa69e748d6df282ebc68efe>@@V<lambda_99fb1378e971ab6e7edea83e3a7a83a2>@@@?$__crt_seh_guarded_call@H@@QEAAH$$QEAV<lambda_a37b2b86f63e897a80ea819b0eb08c01>@@AEAV<lambda_38ce7e780aa69e748d6df282ebc68efe>@@$$QEAV<lambda_99fb1378e971ab6e7edea83e3a7a83a2>@@@Z 000000018003eee4     libucrt:commit.obj
 0002:0000ff08       $unwind$_write             000000018003ef08     libucrt:write.obj
 0002:0000ff38       $unwind$_write_nolock      000000018003ef38     libucrt:write.obj
 0002:0000ff50       $unwind$?write_double_translated_ansi_nolock@@YA?AUwrite_result@?A0x17268360@@HQEBDI@Z 000000018003ef50     libucrt:write.obj
 0002:0000ff70       $unwind$?write_text_utf16le_nolock@@YA?AUwrite_result@?A0x17268360@@HQEBDI@Z 000000018003ef70     libucrt:write.obj
 0002:0000ff70       $unwind$?write_text_ansi_nolock@@YA?AUwrite_result@?A0x17268360@@HQEBDI@Z 000000018003ef70     libucrt:write.obj
 0002:0000ff90       $unwind$?write_text_utf8_nolock@@YA?AUwrite_result@?A0x17268360@@HQEBDI@Z 000000018003ef90     libucrt:write.obj
 0002:0000ffb4       $unwind$__acrt_LCMapStringA 000000018003efb4     libucrt:lcmapstringa.obj
 0002:0000ffc4       $unwind$?__acrt_LCMapStringA_stat@@YAHPEAU__crt_locale_pointers@@PEB_WKPEBDHPEADHHH@Z 000000018003efc4     libucrt:lcmapstringa.obj
 0002:0000ffec       $unwind$qsort              000000018003efec     libucrt:qsort.obj
 0002:00010004       $chain$4$qsort             000000018003f004     libucrt:qsort.obj
 0002:00010028       $chain$5$qsort             000000018003f028     libucrt:qsort.obj
 0002:00010038       $unwind$strpbrk            000000018003f038     libucrt:strpbrk.obj
 0002:00010048       $unwind$fallbackMethod     000000018003f048     libucrt:strpbrk.obj
 0002:00010058       $unwind$__acrt_FindFirstFileExA 000000018003f058     libucrt:findfirstfileexa.obj
 0002:00010068       $unwind$??$__acrt_convert_wcs_mbs@D_W$$A6A_KPEA_WPEBD_KPEAU__crt_locale_pointers@@@ZU__crt_win32_buffer_internal_dynamic_resizing@@@@YAHQEBDAEAV?$__crt_win32_buffer@_WU__crt_win32_buffer_internal_dynamic_resizing@@@@A6A_KPEA_WPEBD_KPEAU__crt_locale_pointers@@@Z5@Z 000000018003f068     libucrt:findfirstfileexa.obj
 0002:00010080       $unwind$__acrt_FindNextFileA 000000018003f080     libucrt:findnextfilea.obj
 0002:0001009c       $unwind$_mbsdec_l          000000018003f09c     libucrt:mbsdec.obj
 0002:000100a8       $unwind$?GetTableIndexFromLocaleName@@YAHPEB_W@Z 000000018003f0a8     libucrt:lcidtoname_downlevel.obj
 0002:000100c0       $unwind$__acrt_lowio_destroy_handle_array 000000018003f0c0     libucrt:osfinfo.obj
 0002:000100d0       $unwind$__acrt_lowio_ensure_fh_exists 000000018003f0d0     libucrt:osfinfo.obj
 0002:000100fc       $unwind$?__mbsrtowcs_utf8@__crt_mbstring@@YA_KPEA_WPEAPEBD_KPEAU_Mbstatet@@@Z 000000018003f0fc     libucrt:mbrtowc.obj
 0002:00010114       $unwind$__acrt_fltout      000000018003f114     libucrt:cfout.obj
 0002:00010134       $unwind$?divide@__crt_strtox@@YA_KAEAUbig_integer@1@AEBU21@@Z 000000018003f134     libucrt:cfout.obj
 0002:00010140       $chain$0$?divide@__crt_strtox@@YA_KAEAUbig_integer@1@AEBU21@@Z 000000018003f140     libucrt:cfout.obj
 0002:00010154       $chain$6$?divide@__crt_strtox@@YA_KAEAUbig_integer@1@AEBU21@@Z 000000018003f154     libucrt:cfout.obj
 0002:00010178       $chain$7$?divide@__crt_strtox@@YA_KAEAUbig_integer@1@AEBU21@@Z 000000018003f178     libucrt:cfout.obj
 0002:0001018c       $chain$8$?divide@__crt_strtox@@YA_KAEAUbig_integer@1@AEBU21@@Z 000000018003f18c     libucrt:cfout.obj
 0002:0001019c       $unwind$??$write_buffer_nolock@D@@YA_NDV__crt_stdio_stream@@@Z 000000018003f19c     libucrt:_flsbuf.obj
 0002:000101ac       $unwind$??$write_buffer_nolock@_W@@YA_N_WV__crt_stdio_stream@@@Z 000000018003f1ac     libucrt:_flsbuf.obj
 0002:000101bc       $unwind$fclose             000000018003f1bc     libucrt:fclose.obj
 0002:000101e0       $unwind$??$common_lseek@_J@@YA_JH_JH@Z 000000018003f1e0     libucrt:lseek.obj
 0002:00010210       $unwind$_putwch_nolock     000000018003f210     libucrt:putwch.obj
 0002:00010218       $unwind$?_wcstombs_l_helper@@YA_KPEADPEB_W_KPEAU__crt_locale_pointers@@@Z 000000018003f218     libucrt:wcstombs.obj
 0002:0001023c       $stateUnwindMap$?_wcstombs_l_helper@@YA_KPEADPEB_W_KPEAU__crt_locale_pointers@@@Z 000000018003f23c     libucrt:wcstombs.obj
 0002:00010248       $ip2state$?_wcstombs_l_helper@@YA_KPEADPEB_W_KPEAU__crt_locale_pointers@@@Z 000000018003f248     libucrt:wcstombs.obj
 0002:00010260       $unwind$?__mbrtoc32_utf8@__crt_mbstring@@YA_KPEA_UPEBD_KPEAU_Mbstatet@@@Z 000000018003f260     libucrt:mbrtoc32.obj
 0002:00010280       $xdatasym                  000000018003f280     libucrt:log10.obj
 0002:0001028c       $unwind$??$?RV<lambda_751a882b2c74d4b022dec766aa51a29a>@@AEAV<lambda_628dfdc04ba53c8bfc02c9951375f3f5>@@V<lambda_f6c7be5f7998530c34de24c7437d6b54>@@@?$__crt_seh_guarded_call@H@@QEAAH$$QEAV<lambda_751a882b2c74d4b022dec766aa51a29a>@@AEAV<lambda_628dfdc04ba53c8bfc02c9951375f3f5>@@$$QEAV<lambda_f6c7be5f7998530c34de24c7437d6b54>@@@Z 000000018003f28c     libucrt:close.obj
 0002:000102b0       $unwind$__dcrt_write_console 000000018003f2b0     libucrt:initcon.obj
 0002:000102c4       $unwind$?__wcsrtombs_utf8@__crt_mbstring@@YA_KPEADPEAPEB_W_KPEAU_Mbstatet@@@Z 000000018003f2c4     libucrt:wcrtomb.obj
 0002:000102e4       $unwind$_call_matherr      000000018003f2e4     libucrt:libm_error.obj
 0002:000102ec       $unwind$_handle_error      000000018003f2ec     libucrt:libm_error.obj
 0002:0001030c       $unwind$__acrt_initialize_fma3 000000018003f30c     libucrt:fma3_available.obj
 0002:00010314       $unwind$_log_special_common 000000018003f314     libucrt:log_special.obj
 0002:00010320       $xdatasym                  000000018003f320     libucrt:fpsr.obj
 0002:00010328       $unwind$_raise_exc_ex      000000018003f328     libucrt:fpexcept.obj
 0002:0001033c       $unwind$_ctrlfp            000000018003f33c     libucrt:fpctrl.obj
 0002:00010364       $unwind$?DloadObtainSection@@YAPEAXPEAK0@Z 000000018003f364     DelayImp:delayhlp.obj
 0002:00010374       $unwind$?DloadMakePermanentImageCommit@@YAXPEAX_K@Z 000000018003f374     DelayImp:delayhlp.obj
 0002:00010380       $unwind$?DloadProtectSection@@YAXKPEAK@Z 000000018003f380     DelayImp:delayhlp.obj
 0002:00010390       $unwind$__delayLoadHelper2 000000018003f390     DelayImp:delayhlp.obj
 0002:000103a8       $unwind$_IsNonwritableInCurrentImage 000000018003f3a8     LIBCMT:pesect.obj
 0002:000103d0       $xdatasym                  000000018003f3d0     LIBCMT:_chkstk_.obj
 0002:000103d8       $xdatasym                  000000018003f3d8     libvcruntime:memcmp.obj
 0002:000103dc       $unwind$strrchr            000000018003f3dc     libvcruntime:strrchr.obj
 0002:00011a00       .edata                     0000000180040a00     sharp.exp
 0002:00011a28       rgpv                       0000000180040a28     sharp.exp
 0002:00011a2c       rgszName                   0000000180040a2c     sharp.exp
 0002:00011a30       rgwOrd                     0000000180040a30     sharp.exp
 0002:00011a32       szName                     0000000180040a32     sharp.exp
 0002:00011a3d       $N00001                    0000000180040a3d     sharp.exp
 0002:00011d10       .idata$4                   0000000180040d10     libglib-2.0:dhtls00074.o
 0002:00011d18       .idata$4                   0000000180040d18     libglib-2.0:dhtls00077.o
 0002:00011d20       .idata$4                   0000000180040d20     libglib-2.0:dhtls00380.o
 0002:00011d28       .idata$4                   0000000180040d28     libglib-2.0:dhtls00673.o
 0002:00011d30       .idata$4                   0000000180040d30     libglib-2.0:dhtls01081.o
 0002:00011d38       .idata$4                   0000000180040d38     libglib-2.0:dhtls01122.o
 0002:00011d48       .idata$4                   0000000180040d48     libvips:dowls00861.o
 0002:00011d50       .idata$4                   0000000180040d50     libvips:dowls00930.o
 0002:00011d58       .idata$4                   0000000180040d58     libvips:dowls00931.o
 0002:00011d60       .idata$4                   0000000180040d60     libvips:dowls00976.o
 0002:00011d68       .idata$4                   0000000180040d68     libvips:dowls00977.o
 0002:00011d70       .idata$4                   0000000180040d70     libvips:dowls00978.o
 0002:00011d78       .idata$4                   0000000180040d78     libvips:dowls00979.o
 0002:00011d80       .idata$4                   0000000180040d80     libvips:dowls00987.o
 0002:00011d88       .idata$4                   0000000180040d88     libvips:dowls00988.o
 0002:00011d90       .idata$4                   0000000180040d90     libvips:dowls00989.o
 0002:00011d98       .idata$4                   0000000180040d98     libvips:dowls01093.o
 0002:00011da0       .idata$4                   0000000180040da0     libvips:dowls01094.o
 0002:00011da8       .idata$4                   0000000180040da8     libvips:dowls01158.o
 0002:00011db0       .idata$4                   0000000180040db0     libvips:dowls01159.o
 0002:00011db8       .idata$4                   0000000180040db8     libvips:dowls01169.o
 0002:00011dc0       .idata$4                   0000000180040dc0     libvips:dowls01212.o
 0002:00011dc8       .idata$4                   0000000180040dc8     libvips:dowls01213.o
 0002:00011dd0       .idata$4                   0000000180040dd0     libvips:dowls01320.o
 0002:00011dd8       .idata$4                   0000000180040dd8     libvips:dowls01447.o
 0002:00011de0       .idata$4                   0000000180040de0     libvips:dowls01468.o
 0002:00011de8       .idata$4                   0000000180040de8     libvips:dowls01488.o
 0002:00011df0       .idata$4                   0000000180040df0     libvips:dowls01505.o
 0002:00011df8       .idata$4                   0000000180040df8     libvips:dowls01643.o
 0002:00011e00       .idata$4                   0000000180040e00     libvips:dowls01862.o
 0002:00011e08       .idata$4                   0000000180040e08     libvips:dowls01878.o
 0002:00011e10       .idata$4                   0000000180040e10     libvips:dowls01879.o
 0002:00011e18       .idata$4                   0000000180040e18     libvips:dowls01880.o
 0002:00011e20       .idata$4                   0000000180040e20     libvips:dowls01884.o
 0002:00011e28       .idata$4                   0000000180040e28     libvips:dowls01921.o
 0002:00011e30       .idata$4                   0000000180040e30     libvips:dowls01925.o
 0002:00011e38       .idata$4                   0000000180040e38     libvips:dowls01931.o
 0002:000121a4       .idata$6                   00000001800411a4     kernel32:KERNEL32.dll
 0002:000121b2       .idata$6                   00000001800411b2     libvips:dowls01213.o
 0002:000121d2       .idata$6                   00000001800411d2     libvips:dowls01643.o
 0002:000121f4       .idata$6                   00000001800411f4     libvips:dowls01158.o
 0002:0001220a       .idata$6                   000000018004120a     libvips:dowls01488.o
 0002:0001222a       .idata$6                   000000018004122a     libvips:dowls01212.o
 0002:00012244       .idata$6                   0000000180041244     libvips:dowls00930.o
 0002:0001225a       .idata$6                   000000018004125a     libvips:dowls01169.o
 0002:0001226e       .idata$6                   000000018004126e     libvips:dowls01159.o
 0002:00012280       .idata$6                   0000000180041280     libvips:dowls01862.o
 0002:00012298       .idata$6                   0000000180041298     libvips:dowls01320.o
 0002:000122ae       .idata$6                   00000001800412ae     libvips:dowls01447.o
 0002:000122c2       .idata$6                   00000001800412c2     libvips:dowls00931.o
 0002:000122d2       .idata$6                   00000001800412d2     libvips:dowls01505.o
 0002:000122ea       .idata$6                   00000001800412ea     libvips:dowls00861.o
 0002:000122fc       .idata$6                   00000001800412fc     libvips:dowls01468.o
 0002:00012308       .idata$6                   0000000180041308     libvips:dowls00978.o
 0002:00012322       .idata$6                   0000000180041322     libvips:dowls01931.o
 0002:00012332       .idata$6                   0000000180041332     libvips:dowls00979.o
 0002:00012348       .idata$6                   0000000180041348     libvips:dowls01925.o
 0002:00012362       .idata$6                   0000000180041362     libvips:dowls00976.o
 0002:00012378       .idata$6                   0000000180041378     libvips:dowls00987.o
 0002:0001238e       .idata$6                   000000018004138e     libvips:dowls00977.o
 0002:000123aa       .idata$6                   00000001800413aa     libvips:dowls00989.o
 0002:000123c4       .idata$6                   00000001800413c4     libvips:dowls01093.o
 0002:000123dc       .idata$6                   00000001800413dc     libvips:dowls00988.o
 0002:000123f8       .idata$6                   00000001800413f8     libvips:dowls01884.o
 0002:0001240a       .idata$6                   000000018004140a     libvips:dowls01094.o
 0002:00012422       .idata$6                   0000000180041422     libvips:dowls01921.o
 0002:0001243a       .idata$6                   000000018004143a     libvips:dowls01880.o
 0002:0001245c       .idata$6                   000000018004145c     libvips:dowls01879.o
 0002:00012474       .idata$6                   0000000180041474     libvips:dowls01878.o
 0002:0001248e       .idata$6                   000000018004148e     libglib-2.0:dhtls00380.o
 0002:00012498       .idata$6                   0000000180041498     libglib-2.0:dhtls01081.o
 0002:000124a6       .idata$6                   00000001800414a6     libglib-2.0:dhtls00077.o
 0002:000124ba       .idata$6                   00000001800414ba     libglib-2.0:dhtls00074.o
 0002:000124d6       .idata$6                   00000001800414d6     libglib-2.0:dhtls00673.o
 0002:000124e2       .idata$6                   00000001800414e2     libglib-2.0:dhtls01122.o
 0002:0001394e       .idata$6                   000000018004294e     libvips-cpp:libvips-cpp.dll
 0002:00013eb0       .idata$7                   0000000180042eb0     libvips:dowls01213.o
 0002:00013eb4       .idata$7                   0000000180042eb4     libvips:dowls01643.o
 0002:00013eb8       .idata$7                   0000000180042eb8     libvips:dowls01158.o
 0002:00013ebc       .idata$7                   0000000180042ebc     libvips:dowls01488.o
 0002:00013ec0       .idata$7                   0000000180042ec0     libvips:dowls01212.o
 0002:00013ec4       .idata$7                   0000000180042ec4     libvips:dowls00930.o
 0002:00013ec8       .idata$7                   0000000180042ec8     libvips:dowls01169.o
 0002:00013ecc       .idata$7                   0000000180042ecc     libvips:dowls01159.o
 0002:00013ed0       .idata$7                   0000000180042ed0     libvips:dowls01862.o
 0002:00013ed4       .idata$7                   0000000180042ed4     libvips:dowls01320.o
 0002:00013ed8       .idata$7                   0000000180042ed8     libvips:dowls01447.o
 0002:00013edc       .idata$7                   0000000180042edc     libvips:dowls00931.o
 0002:00013ee0       .idata$7                   0000000180042ee0     libvips:dowls01505.o
 0002:00013ee4       .idata$7                   0000000180042ee4     libvips:dowls00861.o
 0002:00013ee8       .idata$7                   0000000180042ee8     libvips:dowls01468.o
 0002:00013eec       .idata$7                   0000000180042eec     libvips:dowls00978.o
 0002:00013ef0       .idata$7                   0000000180042ef0     libvips:dowls01931.o
 0002:00013ef4       .idata$7                   0000000180042ef4     libvips:dowls00979.o
 0002:00013ef8       .idata$7                   0000000180042ef8     libvips:dowls01925.o
 0002:00013efc       .idata$7                   0000000180042efc     libvips:dowls00976.o
 0002:00013f00       .idata$7                   0000000180042f00     libvips:dowls00987.o
 0002:00013f04       .idata$7                   0000000180042f04     libvips:dowls00977.o
 0002:00013f08       .idata$7                   0000000180042f08     libvips:dowls00989.o
 0002:00013f0c       .idata$7                   0000000180042f0c     libvips:dowls01093.o
 0002:00013f10       .idata$7                   0000000180042f10     libvips:dowls00988.o
 0002:00013f14       .idata$7                   0000000180042f14     libvips:dowls01884.o
 0002:00013f18       .idata$7                   0000000180042f18     libvips:dowls01094.o
 0002:00013f1c       .idata$7                   0000000180042f1c     libvips:dowls01921.o
 0002:00013f20       .idata$7                   0000000180042f20     libvips:dowls01880.o
 0002:00013f24       .idata$7                   0000000180042f24     libvips:dowls01879.o
 0002:00013f28       .idata$7                   0000000180042f28     libvips:dowls01878.o
 0002:00013f3c       .idata$7                   0000000180042f3c     libglib-2.0:dhtls00380.o
 0002:00013f40       .idata$7                   0000000180042f40     libglib-2.0:dhtls01081.o
 0002:00013f44       .idata$7                   0000000180042f44     libglib-2.0:dhtls00077.o
 0002:00013f48       .idata$7                   0000000180042f48     libglib-2.0:dhtls00074.o
 0002:00013f4c       .idata$7                   0000000180042f4c     libglib-2.0:dhtls00673.o
 0002:00013f50       .idata$7                   0000000180042f50     libglib-2.0:dhtls01122.o
 0003:00000030       ?__vcrt_flsindex@@3KA      0000000180043030     libvcruntime:per_thread_data.obj
 0003:00000050       ?errno_no_memory@@3HA      0000000180043050     libucrt:errno.obj
 0003:00000054       ?doserrno_no_memory@@3KA   0000000180043054     libucrt:errno.obj
 0003:00000060       ?__acrt_flsindex@@3KA      0000000180043060     libucrt:per_thread_data.obj
 0003:000002e8       ?__rgctypeflag@@3PADA      00000001800432e8     libucrt:mbctype.obj
 0003:000002f0       ?__rgcode_page_info@@3PAUcode_page_info@@A 00000001800432f0     libucrt:mbctype.obj
 0003:00000610       _mbctypes                  0000000180043610     libucrt:mbctype.obj
 0003:00000720       _mbcasemaps                0000000180043720     libucrt:mbctype.obj
 0003:00000910       ?__dcrt_lowio_console_output_handle@@3PEAXEA 0000000180043910     libucrt:initcon.obj
 0003:00000920       ?dazSupported@?1??_ctrlfp@@9@9 0000000180043920     libucrt:fpctrl.obj
 0003:00000930       _module                    0000000180043930     sharp.obj
 0003:00000d60       ?__proc_attached@@3HA      0000000180043d60     LIBCMT:dll_dllmain.obj
 0003:00000d70       GS_ExceptionRecord         0000000180043d70     LIBCMT:gs_report.obj
 0003:00000e10       GS_ContextRecord           0000000180043e10     LIBCMT:gs_report.obj
 0003:00001310       ?is_initialized_as_dll@@3_NA 0000000180044310     LIBCMT:utility.obj
 0003:00001311       ?module_local_atexit_table_initialized@@3_NA 0000000180044311     LIBCMT:utility.obj
 0003:00001318       ?module_local_atexit_table@@3U_onexit_table_t@@A 0000000180044318     LIBCMT:utility.obj
 0003:00001330       ?module_local_at_quick_exit_table@@3U_onexit_table_t@@A 0000000180044330     LIBCMT:utility.obj
 0003:00001360       ?__vcrt_startup_thread_ptd@@3U__vcrt_ptd@@A 0000000180044360     libvcruntime:per_thread_data.obj
 0003:00001438       ?heap@@3V_HeapManager@@A   0000000180044438     libvcruntime:undname.obj
 0003:00001460       __vcrt_lock_table          0000000180044460     libvcruntime:locks.obj
 0003:00001488       __vcrt_locks_initialized   0000000180044488     libvcruntime:locks.obj
 0003:00001490       ?module_handles@@3PAPEAUHINSTANCE__@@A 0000000180044490     libvcruntime:winapi_downlevel.obj
 0003:000014a8       ?encoded_function_pointers@@3PAPEAXA 00000001800444a8     libvcruntime:winapi_downlevel.obj
 0003:000014d0       ?__acrt_invalid_parameter_handler@@3V?$dual_state_global@P6AXPEB_W00I_K@Z@__crt_state_management@@A 00000001800444d0     libucrt:invalid_parameter.obj
 0003:000014d8       ?__acrt_new_handler@@3V?$dual_state_global@P6AH_K@Z@__crt_state_management@@A 00000001800444d8     libucrt:new_handler.obj
 0003:000014e0       ?c_termination_complete@@3JA 00000001800444e0     libucrt:exit.obj
 0003:000014e8       ?thread_local_exit_callback_func@@3P6AXPEAXK0@ZEA 00000001800444e8     libucrt:exit.obj
 0003:00001500       ?program_name@?1???$common_configure_argv@D@@YAHW4_crt_argv_mode@@@Z@4PADA 0000000180044500     libucrt:argv_parsing.obj
 0003:00001668       ?__acrt_app_type@@3W4_crt_app_type@@A 0000000180044668     libucrt:report_runtime_error.obj
 0003:0000166c       __acrt_error_mode          000000018004466c     libucrt:set_error_mode.obj
 0003:00001688       ?ctrlc_action@@3V?$dual_state_global@P6AXH@Z@__crt_state_management@@A 0000000180044688     libucrt:signal.obj
 0003:00001690       ?ctrlbreak_action@@3V?$dual_state_global@P6AXH@Z@__crt_state_management@@A 0000000180044690     libucrt:signal.obj
 0003:00001698       ?abort_action@@3V?$dual_state_global@P6AXH@Z@__crt_state_management@@A 0000000180044698     libucrt:signal.obj
 0003:000016a0       ?term_action@@3V?$dual_state_global@P6AXH@Z@__crt_state_management@@A 00000001800446a0     libucrt:signal.obj
 0003:000016b0       ?__acrt_lock_table@@3PAU_RTL_CRITICAL_SECTION@@A 00000001800446b0     libucrt:locks.obj
 0003:000018e0       ?__acrt_locks_initialized@@3IA 00000001800448e0     libucrt:locks.obj
 0003:000018e4       ?state_cache@?1???$get_cached_win_policy@Udeveloper_information_policy_properties@?1??__acrt_get_developer_information_policy@@YA?AW4developer_information_policy@@XZ@@@YA?AW4developer_information_policy@@W4AppPolicyShowDeveloperDiagnostic@@@Z@4JA 00000001800448e4     libucrt:win_policies.obj
 0003:000018e8       ?state_cache@?1???$get_cached_win_policy@Uwindowing_model_policy_properties@?1??__acrt_get_windowing_model_policy@@YA?AW4windowing_model_policy@@XZ@@@YA?AW4windowing_model_policy@@W4AppPolicyWindowingModel@@@Z@4JA 00000001800448e8     libucrt:win_policies.obj
 0003:00001908       ?fSystemSet@@3HA           0000000180044908     libucrt:mbctype.obj
 0003:0000190c       ?initialized@?1??__acrt_initialize_multibyte@@9@4_NA 000000018004490c     libucrt:mbctype.obj
 0003:00001940       ?module_handles@@3PAPEAUHINSTANCE__@@A 0000000180044940     libucrt:winapi_thunks.obj
 0003:000019e0       ?encoded_function_pointers@@3PAPEAXA 00000001800449e0     libucrt:winapi_thunks.obj
 0003:00001f08       ?user_matherr@@3V?$dual_state_global@P6AHPEAU_exception@@@Z@__crt_state_management@@A 0000000180044f08     libucrt:matherr.obj
 0003:00001f20       ?internal_state@?1??_mbtowc_l@@9@4U_Mbstatet@@A 0000000180044f20     libucrt:mbtowc.obj
 0003:00001f28       ?enable_percent_n@@3_KA    0000000180044f28     libucrt:printf_count_output.obj
 0003:00001f38       ?__acrt_global_new_mode@@3V?$dual_state_global@J@__crt_state_management@@A 0000000180044f38     libucrt:new_mode.obj
 0003:00001f40       ?internal_pst@?1??__mbrtoc32_utf8@__crt_mbstring@@YA_KPEA_UPEBD_KPEAU_Mbstatet@@@Z@4U3@A 0000000180044f40     libucrt:mbrtoc32.obj
 0003:00001f50       ?internal_pst@?1??__c16rtomb_utf8@__crt_mbstring@@YA_KPEAD_SPEAU_Mbstatet@@@Z@4U3@A 0000000180044f50     libucrt:c16rtomb.obj
 0004:00000000       $pdata$??_Gexception@stdext@@UEAAPEAXI@Z 0000000180045000     common.obj
 0004:0000000c       $pdata$?to_string@std@@YA?AV?$basic_string@DU?$char_traits@D@std@@V?$allocator@D@2@@1@H@Z 000000018004500c     common.obj
 0004:00000018       $pdata$??0Utf8String@Nan@@QEAA@V?$Local@VValue@v8@@@v8@@@Z 0000000180045018     common.obj
 0004:00000024       $pdata$?HasAttr@sharp@@YA_NV?$Local@VObject@v8@@@v8@@V?$basic_string@DU?$char_traits@D@std@@V?$allocator@D@2@@std@@@Z 0000000180045024     common.obj
 0004:00000030       $pdata$?AttrAsStr@sharp@@YA?AV?$basic_string@DU?$char_traits@D@std@@V?$allocator@D@2@@std@@V?$Local@VObject@v8@@@v8@@V23@@Z 0000000180045030     common.obj
 0004:0000003c       $pdata$?CreateInputDescriptor@sharp@@YAPEAUInputDescriptor@1@V?$Local@VObject@v8@@@v8@@V?$vector@V?$Local@VObject@v8@@@v8@@V?$allocator@V?$Local@VObject@v8@@@v8@@@std@@@std@@@Z 000000018004503c     common.obj
 0004:00000048       $pdata$?IsJpeg@sharp@@YA_NAEBV?$basic_string@DU?$char_traits@D@std@@V?$allocator@D@2@@std@@@Z 0000000180045048     common.obj
 0004:00000054       $pdata$?IsPng@sharp@@YA_NAEBV?$basic_string@DU?$char_traits@D@std@@V?$allocator@D@2@@std@@@Z 0000000180045054     common.obj
 0004:00000060       $pdata$?IsWebp@sharp@@YA_NAEBV?$basic_string@DU?$char_traits@D@std@@V?$allocator@D@2@@std@@@Z 0000000180045060     common.obj
 0004:0000006c       $pdata$?IsTiff@sharp@@YA_NAEBV?$basic_string@DU?$char_traits@D@std@@V?$allocator@D@2@@std@@@Z 000000018004506c     common.obj
 0004:00000078       $pdata$?IsDz@sharp@@YA_NAEBV?$basic_string@DU?$char_traits@D@std@@V?$allocator@D@2@@std@@@Z 0000000180045078     common.obj
 0004:00000084       $pdata$?IsDzZip@sharp@@YA_NAEBV?$basic_string@DU?$char_traits@D@std@@V?$allocator@D@2@@std@@@Z 0000000180045084     common.obj
 0004:00000090       $pdata$?IsV@sharp@@YA_NAEBV?$basic_string@DU?$char_traits@D@std@@V?$allocator@D@2@@std@@@Z 0000000180045090     common.obj
 0004:0000009c       $pdata$?ImageTypeId@sharp@@YA?AV?$basic_string@DU?$char_traits@D@std@@V?$allocator@D@2@@std@@W4ImageType@1@@Z 000000018004509c     common.obj
 0004:000000a8       $pdata$?DetermineImageType@sharp@@YA?AW4ImageType@1@PEAX_K@Z 00000001800450a8     common.obj
 0004:000000b4       $pdata$?DetermineImageType@sharp@@YA?AW4ImageType@1@PEBD@Z 00000001800450b4     common.obj
 0004:000000c0       $pdata$?OpenInput@sharp@@YA?AV?$tuple@VVImage@vips@@W4ImageType@sharp@@@std@@PEAUInputDescriptor@1@W4VipsAccess@@@Z 00000001800450c0     common.obj
 0004:000000cc       $pdata$?HasProfile@sharp@@YA_NVVImage@vips@@@Z 00000001800450cc     common.obj
 0004:000000d8       $pdata$?HasAlpha@sharp@@YA_NVVImage@vips@@@Z 00000001800450d8     common.obj
 0004:000000e4       $pdata$?ExifOrientation@sharp@@YAHVVImage@vips@@@Z 00000001800450e4     common.obj
 0004:000000f0       $pdata$?SetExifOrientation@sharp@@YAXVVImage@vips@@H@Z 00000001800450f0     common.obj
 0004:000000fc       $pdata$?RemoveExifOrientation@sharp@@YAXVVImage@vips@@@Z 00000001800450fc     common.obj
 0004:00000108       $pdata$?SetDensity@sharp@@YAXVVImage@vips@@H@Z 0000000180045108     common.obj
 0004:00000114       $pdata$?CalculateCrop@sharp@@YA?AV?$tuple@HH@std@@HHHHH@Z 0000000180045114     common.obj
 0004:00000120       $pdata$0$?CalculateCrop@sharp@@YA?AV?$tuple@HH@std@@HHHHH@Z 0000000180045120     common.obj
 0004:0000012c       $pdata$1$?CalculateCrop@sharp@@YA?AV?$tuple@HH@std@@HHHHH@Z 000000018004512c     common.obj
 0004:00000138       $pdata$?_Tidy@?$vector@NV?$allocator@N@std@@@std@@AEAAXXZ 0000000180045138     operations.obj
 0004:00000138       $pdata$?_Tidy@?$vector@V?$Local@VObject@v8@@@v8@@V?$allocator@V?$Local@VObject@v8@@@v8@@@std@@@std@@AEAAXXZ 0000000180045138     common.obj
 0004:00000138       $pdata$??1?$vector@NV?$allocator@N@std@@@std@@QEAA@XZ 0000000180045138     operations.obj
 0004:00000138       $pdata$??1?$vector@V?$Local@VObject@v8@@@v8@@V?$allocator@V?$Local@VObject@v8@@@v8@@@std@@@std@@QEAA@XZ 0000000180045138     common.obj
 0004:00000144       $pdata$??1?$basic_string@DU?$char_traits@D@std@@V?$allocator@D@2@@std@@QEAA@XZ 0000000180045144     common.obj
 0004:00000144       $pdata$?_Tidy_deallocate@?$basic_string@DU?$char_traits@D@std@@V?$allocator@D@2@@std@@QEAAXXZ 0000000180045144     common.obj
 0004:00000150       $pdata$??4?$basic_string@DU?$char_traits@D@std@@V?$allocator@D@2@@std@@QEAAAEAV01@$$QEAV01@@Z 0000000180045150     common.obj
 0004:0000015c       $pdata$??0?$basic_string@DU?$char_traits@D@std@@V?$allocator@D@2@@std@@QEAA@QEBD@Z 000000018004515c     common.obj
 0004:00000168       $pdata$??0?$basic_string@DU?$char_traits@D@std@@V?$allocator@D@2@@std@@QEAA@AEBV01@@Z 0000000180045168     common.obj
 0004:00000174       $pdata$?assign@?$basic_string@DU?$char_traits@D@std@@V?$allocator@D@2@@std@@QEAAAEAV12@QEBD_K@Z 0000000180045174     common.obj
 0004:00000180       $pdata$0$?assign@?$basic_string@DU?$char_traits@D@std@@V?$allocator@D@2@@std@@QEAAAEAV12@QEBD_K@Z 0000000180045180     common.obj
 0004:0000018c       $pdata$1$?assign@?$basic_string@DU?$char_traits@D@std@@V?$allocator@D@2@@std@@QEAAAEAV12@QEBD_K@Z 000000018004518c     common.obj
 0004:00000198       $pdata$2$?assign@?$basic_string@DU?$char_traits@D@std@@V?$allocator@D@2@@std@@QEAAAEAV12@QEBD_K@Z 0000000180045198     common.obj
 0004:000001a4       $pdata$?_Xran@?$_String_val@U?$_Simple_types@D@std@@@std@@SAXXZ 00000001800451a4     common.obj
 0004:000001b0       $pdata$??$New@VString@v8@@V?$basic_string@DU?$char_traits@D@std@@V?$allocator@D@2@@std@@@Nan@@YA?AV?$MaybeLocal@VString@v8@@@v8@@V?$basic_string@DU?$char_traits@D@std@@V?$allocator@D@2@@std@@@Z 00000001800451b0     common.obj
 0004:000001bc       $pdata$??$AttrAs@VFunction@v8@@@sharp@@YA?AV?$Local@VFunction@v8@@@v8@@V?$Local@VObject@v8@@@2@V?$basic_string@DU?$char_traits@D@std@@V?$allocator@D@2@@std@@@Z 00000001800451bc     pipeline.obj
 0004:000001bc       $pdata$??$AttrAs@VObject@v8@@@sharp@@YA?AV?$Local@VObject@v8@@@v8@@V12@V?$basic_string@DU?$char_traits@D@std@@V?$allocator@D@2@@std@@@Z 00000001800451bc     common.obj
 0004:000001c8       $pdata$??$AttrTo@I@sharp@@YAIV?$Local@VObject@v8@@@v8@@V?$basic_string@DU?$char_traits@D@std@@V?$allocator@D@2@@std@@@Z 00000001800451c8     common.obj
 0004:000001d4       $pdata$??$_Emplace_reallocate@AEBV?$Local@VObject@v8@@@v8@@@?$vector@V?$Local@VObject@v8@@@v8@@V?$allocator@V?$Local@VObject@v8@@@v8@@@std@@@std@@QEAAPEAV?$Local@VObject@v8@@@v8@@QEAV23@AEBV23@@Z 00000001800451d4     common.obj
 0004:000001e0       $pdata$3$??$_Emplace_reallocate@AEBV?$Local@VObject@v8@@@v8@@@?$vector@V?$Local@VObject@v8@@@v8@@V?$allocator@V?$Local@VObject@v8@@@v8@@@std@@@std@@QEAAPEAV?$Local@VObject@v8@@@v8@@QEAV23@AEBV23@@Z 00000001800451e0     common.obj
 0004:000001ec       $pdata$4$??$_Emplace_reallocate@AEBV?$Local@VObject@v8@@@v8@@@?$vector@V?$Local@VObject@v8@@@v8@@V?$allocator@V?$Local@VObject@v8@@@v8@@@std@@@std@@QEAAPEAV?$Local@VObject@v8@@@v8@@QEAV23@AEBV23@@Z 00000001800451ec     common.obj
 0004:000001f8       $pdata$5$??$_Emplace_reallocate@AEBV?$Local@VObject@v8@@@v8@@@?$vector@V?$Local@VObject@v8@@@v8@@V?$allocator@V?$Local@VObject@v8@@@v8@@@std@@@std@@QEAAPEAV?$Local@VObject@v8@@@v8@@QEAV23@AEBV23@@Z 00000001800451f8     common.obj
 0004:00000204       $pdata$?_Xlength@?$vector@V?$Local@VObject@v8@@@v8@@V?$allocator@V?$Local@VObject@v8@@@v8@@@std@@@std@@CAXXZ 0000000180045204     common.obj
 0004:00000204       $pdata$?_Xlength@?$vector@NV?$allocator@N@std@@@std@@CAXXZ 0000000180045204     operations.obj
 0004:00000204       $pdata$?_Xlength@?$vector@PEAUInputDescriptor@sharp@@V?$allocator@PEAUInputDescriptor@sharp@@@std@@@std@@CAXXZ 0000000180045204     pipeline.obj
 0004:00000210       $pdata$?_Xlen@?$basic_string@DU?$char_traits@D@std@@V?$allocator@D@2@@std@@SAXXZ 0000000180045210     common.obj
 0004:0000021c       $pdata$?Set@Nan@@YA?AV?$Maybe@_N@1@V?$Local@VObject@v8@@@v8@@V?$Local@VValue@v8@@@4@1@Z 000000018004521c     metadata.obj
 0004:00000228       $pdata$?New@?$Factory@VUint32@v8@@@imp@Nan@@SA?AV?$Local@VUint32@v8@@@v8@@H@Z 0000000180045228     metadata.obj
 0004:00000234       $pdata$??0AsyncResource@Nan@@QEAA@PEBDV?$Local@VObject@v8@@@v8@@@Z 0000000180045234     metadata.obj
 0004:00000240       $pdata$??1AsyncResource@Nan@@QEAA@XZ 0000000180045240     metadata.obj
 0004:0000024c       $pdata$??0Callback@Nan@@QEAA@AEBV?$Local@VFunction@v8@@@v8@@@Z 000000018004524c     metadata.obj
 0004:00000258       $pdata$?Call@Callback@Nan@@QEBA?AV?$Local@VValue@v8@@@v8@@HQEAV34@@Z 0000000180045258     metadata.obj
 0004:00000264       $pdata$?Call_@Callback@Nan@@AEBA?AV?$MaybeLocal@VValue@v8@@@v8@@PEAVIsolate@4@V?$Local@VObject@v8@@@4@HQEAV?$Local@VValue@v8@@@4@PEAVAsyncResource@2@@Z 0000000180045264     metadata.obj
 0004:00000270       $pdata$??0AsyncWorker@Nan@@QEAA@PEAVCallback@1@PEBD@Z 0000000180045270     metadata.obj
 0004:0000027c       $pdata$??1AsyncWorker@Nan@@UEAA@XZ 000000018004527c     metadata.obj
 0004:00000288       $pdata$?WorkComplete@AsyncWorker@Nan@@UEAAXXZ 0000000180045288     metadata.obj
 0004:00000294       $pdata$?GetFromPersistent@AsyncWorker@Nan@@QEBA?AV?$Local@VValue@v8@@@v8@@I@Z 0000000180045294     metadata.obj
 0004:000002a0       $pdata$?HandleOKCallback@AsyncWorker@Nan@@MEAAXXZ 00000001800452a0     metadata.obj
 0004:000002ac       $pdata$?HandleErrorCallback@AsyncWorker@Nan@@MEAAXXZ 00000001800452ac     metadata.obj
 0004:000002b8       $pdata$??_GAsyncWorker@Nan@@UEAAPEAXI@Z 00000001800452b8     metadata.obj
 0004:000002c4       $pdata$??1?$Persistent@VObject@v8@@V?$NonCopyablePersistentTraits@VObject@v8@@@2@@Nan@@QEAA@XZ 00000001800452c4     metadata.obj
 0004:000002d0       $pdata$?AsyncExecuteComplete@Nan@@YAXPEAUuv_work_s@@@Z 00000001800452d0     metadata.obj
 0004:000002dc       $pdata$?AsyncQueueWorker@Nan@@YAXPEAVAsyncWorker@1@@Z 00000001800452dc     metadata.obj
 0004:000002e8       $pdata$??0MetadataWorker@@QEAA@PEAVCallback@Nan@@PEAUMetadataBaton@@V?$vector@V?$Local@VObject@v8@@@v8@@V?$allocator@V?$Local@VObject@v8@@@v8@@@std@@@std@@@Z 00000001800452e8     metadata.obj
 0004:000002f4       $pdata$?Execute@MetadataWorker@@UEAAXXZ 00000001800452f4     metadata.obj
 0004:00000300       $pdata$?HandleOKCallback@MetadataWorker@@UEAAXXZ 0000000180045300     metadata.obj
 0004:0000030c       $pdata$??_GMetadataWorker@@UEAAPEAXI@Z 000000018004530c     metadata.obj
 0004:00000318       $pdata$??_GInputDescriptor@sharp@@QEAAPEAXI@Z 0000000180045318     metadata.obj
 0004:00000324       $pdata$?metadata@@YAXAEBV?$FunctionCallbackInfo@VValue@v8@@@Nan@@@Z 0000000180045324     metadata.obj
 0004:00000330       $pdata$??0?$vector@V?$Local@VObject@v8@@@v8@@V?$allocator@V?$Local@VObject@v8@@@v8@@@std@@@std@@QEAA@AEBV01@@Z 0000000180045330     metadata.obj
 0004:0000033c       $pdata$?append@?$basic_string@DU?$char_traits@D@std@@V?$allocator@D@2@@std@@QEAAAEAV12@QEBD_K@Z 000000018004533c     metadata.obj
 0004:00000348       $pdata$0$?append@?$basic_string@DU?$char_traits@D@std@@V?$allocator@D@2@@std@@QEAAAEAV12@QEBD_K@Z 0000000180045348     metadata.obj
 0004:00000354       $pdata$1$?append@?$basic_string@DU?$char_traits@D@std@@V?$allocator@D@2@@std@@QEAAAEAV12@QEBD_K@Z 0000000180045354     metadata.obj
 0004:00000360       $pdata$??$?4VVImage@vips@@W4ImageType@sharp@@$0A@@?$tuple@AEAVVImage@vips@@AEAW4ImageType@sharp@@@std@@QEAAAEAV01@$$QEAV?$tuple@VVImage@vips@@W4ImageType@sharp@@@1@@Z 0000000180045360     metadata.obj
 0004:0000036c       $pdata$??$_Reallocate_grow_by@V<lambda_65e615be2a453ca0576c979606f46740>@@PEBD_K@?$basic_string@DU?$char_traits@D@std@@V?$allocator@D@2@@std@@QEAAAEAV01@_KV<lambda_65e615be2a453ca0576c979606f46740>@@PEBD_K@Z 000000018004536c     metadata.obj
 0004:00000378       $pdata$3$??$_Reallocate_grow_by@V<lambda_65e615be2a453ca0576c979606f46740>@@PEBD_K@?$basic_string@DU?$char_traits@D@std@@V?$allocator@D@2@@std@@QEAAAEAV01@_KV<lambda_65e615be2a453ca0576c979606f46740>@@PEBD_K@Z 0000000180045378     metadata.obj
 0004:00000384       $pdata$5$??$_Reallocate_grow_by@V<lambda_65e615be2a453ca0576c979606f46740>@@PEBD_K@?$basic_string@DU?$char_traits@D@std@@V?$allocator@D@2@@std@@QEAAAEAV01@_KV<lambda_65e615be2a453ca0576c979606f46740>@@PEBD_K@Z 0000000180045384     metadata.obj
 0004:00000390       $pdata$6$??$_Reallocate_grow_by@V<lambda_65e615be2a453ca0576c979606f46740>@@PEBD_K@?$basic_string@DU?$char_traits@D@std@@V?$allocator@D@2@@std@@QEAAAEAV01@_KV<lambda_65e615be2a453ca0576c979606f46740>@@PEBD_K@Z 0000000180045390     metadata.obj
 0004:0000039c       $pdata$?Composite@sharp@@YA?AVVImage@vips@@V23@0H@Z 000000018004539c     operations.obj
 0004:000003a8       $pdata$?Composite@sharp@@YA?AVVImage@vips@@V23@0HH@Z 00000001800453a8     operations.obj
 0004:000003b4       $pdata$?IsInputValidForComposition@sharp@@YA_NVVImage@vips@@0@Z 00000001800453b4     operations.obj
 0004:000003c0       $pdata$?CompositeImage@sharp@@YA?AVVImage@vips@@V23@0@Z 00000001800453c0     operations.obj
 0004:000003cc       $pdata$?Cutout@sharp@@YA?AVVImage@vips@@V23@0H@Z 00000001800453cc     operations.obj
 0004:000003d8       $pdata$?Normalize@sharp@@YA?AVVImage@vips@@V23@@Z 00000001800453d8     operations.obj
 0004:000003e4       $pdata$?Gamma@sharp@@YA?AVVImage@vips@@V23@N@Z 00000001800453e4     operations.obj
 0004:000003f0       $pdata$?Blur@sharp@@YA?AVVImage@vips@@V23@N@Z 00000001800453f0     operations.obj
 0004:000003fc       $pdata$?Convolve@sharp@@YA?AVVImage@vips@@V23@HHNNAEBV?$unique_ptr@$$BY0A@NU?$default_delete@$$BY0A@N@std@@@std@@@Z 00000001800453fc     operations.obj
 0004:00000408       $pdata$?Sharpen@sharp@@YA?AVVImage@vips@@V23@NNN@Z 0000000180045408     operations.obj
 0004:00000414       $pdata$??RAttentionStrategy@sharp@@QEAANVVImage@vips@@@Z 0000000180045414     operations.obj
 0004:00000420       $pdata$?Crop@sharp@@YA?AV?$tuple@HH@std@@VVImage@vips@@HHV?$function@$$A6ANVVImage@vips@@@Z@3@@Z 0000000180045420     operations.obj
 0004:0000042c       $pdata$??1?$function@$$A6ANVVImage@vips@@@Z@std@@QEAA@XZ 000000018004542c     operations.obj
 0004:0000042c       $pdata$??1?$_Func_class@NVVImage@vips@@@std@@QEAA@XZ 000000018004542c     operations.obj
 0004:00000438       $pdata$?TileCache@sharp@@YA?AVVImage@vips@@V23@N@Z 0000000180045438     operations.obj
 0004:00000444       $pdata$?Threshold@sharp@@YA?AVVImage@vips@@V23@N_N@Z 0000000180045444     operations.obj
 0004:00000450       $pdata$?Bandbool@sharp@@YA?AVVImage@vips@@V23@W4VipsOperationBoolean@@@Z 0000000180045450     operations.obj
 0004:0000045c       $pdata$?Boolean@sharp@@YA?AVVImage@vips@@V23@0W4VipsOperationBoolean@@@Z 000000018004545c     operations.obj
 0004:00000468       $pdata$?Trim@sharp@@YA?AVVImage@vips@@V23@H@Z 0000000180045468     operations.obj
 0004:00000474       $pdata$??0?$vector@NV?$allocator@N@std@@@std@@QEAA@AEBV01@@Z 0000000180045474     operations.obj
 0004:00000480       $pdata$0$??0?$vector@NV?$allocator@N@std@@@std@@QEAA@AEBV01@@Z 0000000180045480     operations.obj
 0004:0000048c       $pdata$1$??0?$vector@NV?$allocator@N@std@@@std@@QEAA@AEBV01@@Z 000000018004548c     operations.obj
 0004:00000498       $pdata$??0?$vector@NV?$allocator@N@std@@@std@@QEAA@V?$initializer_list@N@1@AEBV?$allocator@N@1@@Z 0000000180045498     operations.obj
 0004:000004a4       $pdata$?_Buy@?$vector@NV?$allocator@N@std@@@std@@AEAA_N_K@Z 00000001800454a4     operations.obj
 0004:000004b0       $pdata$0$?_Buy@?$vector@NV?$allocator@N@std@@@std@@AEAA_N_K@Z 00000001800454b0     operations.obj
 0004:000004bc       $pdata$1$?_Buy@?$vector@NV?$allocator@N@std@@@std@@AEAA_N_K@Z 00000001800454bc     operations.obj
 0004:000004c8       $pdata$2$?_Buy@?$vector@NV?$allocator@N@std@@@std@@AEAA_N_K@Z 00000001800454c8     operations.obj
 0004:000004d4       $pdata$3$?_Buy@?$vector@NV?$allocator@N@std@@@std@@AEAA_N_K@Z 00000001800454d4     operations.obj
 0004:000004e0       $pdata$??0PipelineWorker@@QEAA@PEAVCallback@Nan@@PEAUPipelineBaton@@0V?$vector@V?$Local@VObject@v8@@@v8@@V?$allocator@V?$Local@VObject@v8@@@v8@@@std@@@std@@@Z 00000001800454e0     pipeline.obj
 0004:000004ec       $pdata$?Execute@PipelineWorker@@UEAAXXZ 00000001800454ec     pipeline.obj
 0004:000004f8       $pdata$?HandleOKCallback@PipelineWorker@@UEAAXXZ 00000001800454f8     pipeline.obj
 0004:00000504       $pdata$?CalculateRotationAndFlip@PipelineWorker@@AEAA?AV?$tuple@W4VipsAngle@@_N_N@std@@HVVImage@vips@@@Z 0000000180045504     pipeline.obj
 0004:00000510       $pdata$?Error@PipelineWorker@@AEAAXXZ 0000000180045510     pipeline.obj
 0004:0000051c       $pdata$??_GPipelineWorker@@UEAAPEAXI@Z 000000018004551c     pipeline.obj
 0004:00000528       $pdata$??1?$map@W4VipsInterpretation@@V?$basic_string@DU?$char_traits@D@std@@V?$allocator@D@2@@std@@U?$less@W4VipsInterpretation@@@3@V?$allocator@U?$pair@$$CBW4VipsInterpretation@@V?$basic_string@DU?$char_traits@D@std@@V?$allocator@D@2@@std@@@std@@@3@@std@@QEAA@XZ 0000000180045528     pipeline.obj
 0004:00000528       $pdata$??1?$_Tree@V?$_Tmap_traits@W4VipsInterpretation@@V?$basic_string@DU?$char_traits@D@std@@V?$allocator@D@2@@std@@U?$less@W4VipsInterpretation@@@3@V?$allocator@U?$pair@$$CBW4VipsInterpretation@@V?$basic_string@DU?$char_traits@D@std@@V?$allocator@D@2@@std@@@std@@@3@$0A@@std@@@std@@QEAA@XZ 0000000180045528     pipeline.obj
 0004:00000534       $pdata$??1?$pair@W4VipsInterpretation@@V?$basic_string@DU?$char_traits@D@std@@V?$allocator@D@2@@std@@@std@@QEAA@XZ 0000000180045534     pipeline.obj
 0004:00000540       $pdata$??1PipelineBaton@@QEAA@XZ 0000000180045540     pipeline.obj
 0004:0000054c       $pdata$?pipeline@@YAXAEBV?$FunctionCallbackInfo@VValue@v8@@@Nan@@@Z 000000018004554c     pipeline.obj
 0004:00000558       $pdata$??A?$map@W4VipsInterpretation@@V?$basic_string@DU?$char_traits@D@std@@V?$allocator@D@2@@std@@U?$less@W4VipsInterpretation@@@3@V?$allocator@U?$pair@$$CBW4VipsInterpretation@@V?$basic_string@DU?$char_traits@D@std@@V?$allocator@D@2@@std@@@std@@@3@@std@@QEAAAEAV?$basic_string@DU?$char_traits@D@std@@V?$allocator@D@2@@1@AEBW4VipsInterpretation@@@Z 0000000180045558     pipeline.obj
 0004:00000564       $pdata$??0?$_Tree_comp_alloc@V?$_Tmap_traits@W4VipsInterpretation@@V?$basic_string@DU?$char_traits@D@std@@V?$allocator@D@2@@std@@U?$less@W4VipsInterpretation@@@3@V?$allocator@U?$pair@$$CBW4VipsInterpretation@@V?$basic_string@DU?$char_traits@D@std@@V?$allocator@D@2@@std@@@std@@@3@$0A@@std@@@std@@QEAA@AEBU?$less@W4VipsInterpretation@@@1@@Z 0000000180045564     pipeline.obj
 0004:00000570       $pdata$?erase@?$_Tree@V?$_Tmap_traits@W4VipsInterpretation@@V?$basic_string@DU?$char_traits@D@std@@V?$allocator@D@2@@std@@U?$less@W4VipsInterpretation@@@3@V?$allocator@U?$pair@$$CBW4VipsInterpretation@@V?$basic_string@DU?$char_traits@D@std@@V?$allocator@D@2@@std@@@std@@@3@$0A@@std@@@std@@QEAA?AV?$_Tree_iterator@V?$_Tree_val@U?$_Tree_simple_types@U?$pair@$$CBW4VipsInterpretation@@V?$basic_string@DU?$char_traits@D@std@@V?$allocator@D@2@@std@@@std@@@std@@@std@@@2@V?$_Tree_const_iterator@V?$_Tree_val@U?$_Tree_simple_types@U?$pair@$$CBW4VipsInterpretation@@V?$basic_string@DU?$char_traits@D@std@@V?$allocator@D@2@@std@@@std@@@std@@@std@@@2@0@Z 0000000180045570     pipeline.obj
 0004:0000057c       $pdata$?_Extract@?$_Tree_val@U?$_Tree_simple_types@U?$pair@$$CBW4VipsInterpretation@@V?$basic_string@DU?$char_traits@D@std@@V?$allocator@D@2@@std@@@std@@@std@@@std@@QEAAPEAU?$_Tree_node@U?$pair@$$CBW4VipsInterpretation@@V?$basic_string@DU?$char_traits@D@std@@V?$allocator@D@2@@std@@@std@@PEAX@2@V?$_Tree_const_iterator@V?$_Tree_val@U?$_Tree_simple_types@U?$pair@$$CBW4VipsInterpretation@@V?$basic_string@DU?$char_traits@D@std@@V?$allocator@D@2@@std@@@std@@@std@@@std@@@2@@Z 000000018004557c     pipeline.obj
 0004:00000588       $pdata$?_Erase@?$_Tree@V?$_Tmap_traits@W4VipsInterpretation@@V?$basic_string@DU?$char_traits@D@std@@V?$allocator@D@2@@std@@U?$less@W4VipsInterpretation@@@3@V?$allocator@U?$pair@$$CBW4VipsInterpretation@@V?$basic_string@DU?$char_traits@D@std@@V?$allocator@D@2@@std@@@std@@@3@$0A@@std@@@std@@IEAAXPEAU?$_Tree_node@U?$pair@$$CBW4VipsInterpretation@@V?$basic_string@DU?$char_traits@D@std@@V?$allocator@D@2@@std@@@std@@PEAX@2@@Z 0000000180045588     pipeline.obj
 0004:00000594       $pdata$0$?_Erase@?$_Tree@V?$_Tmap_traits@W4VipsInterpretation@@V?$basic_string@DU?$char_traits@D@std@@V?$allocator@D@2@@std@@U?$less@W4VipsInterpretation@@@3@V?$allocator@U?$pair@$$CBW4VipsInterpretation@@V?$basic_string@DU?$char_traits@D@std@@V?$allocator@D@2@@std@@@std@@@3@$0A@@std@@@std@@IEAAXPEAU?$_Tree_node@U?$pair@$$CBW4VipsInterpretation@@V?$basic_string@DU?$char_traits@D@std@@V?$allocator@D@2@@std@@@std@@PEAX@2@@Z 0000000180045594     pipeline.obj
 0004:000005a0       $pdata$1$?_Erase@?$_Tree@V?$_Tmap_traits@W4VipsInterpretation@@V?$basic_string@DU?$char_traits@D@std@@V?$allocator@D@2@@std@@U?$less@W4VipsInterpretation@@@3@V?$allocator@U?$pair@$$CBW4VipsInterpretation@@V?$basic_string@DU?$char_traits@D@std@@V?$allocator@D@2@@std@@@std@@@3@$0A@@std@@@std@@IEAAXPEAU?$_Tree_node@U?$pair@$$CBW4VipsInterpretation@@V?$basic_string@DU?$char_traits@D@std@@V?$allocator@D@2@@std@@@std@@PEAX@2@@Z 00000001800455a0     pipeline.obj
 0004:000005ac       $pdata$2$?_Erase@?$_Tree@V?$_Tmap_traits@W4VipsInterpretation@@V?$basic_string@DU?$char_traits@D@std@@V?$allocator@D@2@@std@@U?$less@W4VipsInterpretation@@@3@V?$allocator@U?$pair@$$CBW4VipsInterpretation@@V?$basic_string@DU?$char_traits@D@std@@V?$allocator@D@2@@std@@@std@@@3@$0A@@std@@@std@@IEAAXPEAU?$_Tree_node@U?$pair@$$CBW4VipsInterpretation@@V?$basic_string@DU?$char_traits@D@std@@V?$allocator@D@2@@std@@@std@@PEAX@2@@Z 00000001800455ac     pipeline.obj
 0004:000005b8       $pdata$??$?HDU?$char_traits@D@std@@V?$allocator@D@1@@std@@YA?AV?$basic_string@DU?$char_traits@D@std@@V?$allocator@D@2@@0@AEBV10@QEBD@Z 00000001800455b8     pipeline.obj
 0004:000005c4       $pdata$??$?9DU?$char_traits@D@std@@V?$allocator@D@1@@std@@YA_NAEBV?$basic_string@DU?$char_traits@D@std@@V?$allocator@D@2@@0@0@Z 00000001800455c4     pipeline.obj
 0004:000005d0       $pdata$?_Equal@?$basic_string@DU?$char_traits@D@std@@V?$allocator@D@2@@std@@QEBA_NQEBD@Z 00000001800455d0     pipeline.obj
 0004:000005d0       $pdata$??$?8DU?$char_traits@D@std@@V?$allocator@D@1@@std@@YA_NAEBV?$basic_string@DU?$char_traits@D@std@@V?$allocator@D@2@@0@QEBD@Z 00000001800455d0     pipeline.obj
 0004:000005dc       $pdata$??$?HDU?$char_traits@D@std@@V?$allocator@D@1@@std@@YA?AV?$basic_string@DU?$char_traits@D@std@@V?$allocator@D@2@@0@QEBDAEBV10@@Z 00000001800455dc     pipeline.obj
 0004:000005e8       $pdata$??$AttrTo@_N@sharp@@YA_NV?$Local@VObject@v8@@@v8@@V?$basic_string@DU?$char_traits@D@std@@V?$allocator@D@2@@std@@@Z 00000001800455e8     pipeline.obj
 0004:000005f4       $pdata$??$AttrTo@H@sharp@@YAHV?$Local@VObject@v8@@@v8@@V?$basic_string@DU?$char_traits@D@std@@V?$allocator@D@2@@std@@@Z 00000001800455f4     pipeline.obj
 0004:00000600       $pdata$??$AttrTo@N@sharp@@YANV?$Local@VObject@v8@@@v8@@V?$basic_string@DU?$char_traits@D@std@@V?$allocator@D@2@@std@@@Z 0000000180045600     pipeline.obj
 0004:0000060c       $pdata$??$_Emplace_reallocate@PEAUInputDescriptor@sharp@@@?$vector@PEAUInputDescriptor@sharp@@V?$allocator@PEAUInputDescriptor@sharp@@@std@@@std@@QEAAPEAPEAUInputDescriptor@sharp@@QEAPEAU23@$$QEAPEAU23@@Z 000000018004560c     pipeline.obj
 0004:00000618       $pdata$2$??$_Emplace_reallocate@PEAUInputDescriptor@sharp@@@?$vector@PEAUInputDescriptor@sharp@@V?$allocator@PEAUInputDescriptor@sharp@@@std@@@std@@QEAAPEAPEAUInputDescriptor@sharp@@QEAPEAU23@$$QEAPEAU23@@Z 0000000180045618     pipeline.obj
 0004:00000624       $pdata$3$??$_Emplace_reallocate@PEAUInputDescriptor@sharp@@@?$vector@PEAUInputDescriptor@sharp@@V?$allocator@PEAUInputDescriptor@sharp@@@std@@@std@@QEAAPEAPEAUInputDescriptor@sharp@@QEAPEAU23@$$QEAPEAU23@@Z 0000000180045624     pipeline.obj
 0004:00000630       $pdata$4$??$_Emplace_reallocate@PEAUInputDescriptor@sharp@@@?$vector@PEAUInputDescriptor@sharp@@V?$allocator@PEAUInputDescriptor@sharp@@@std@@@std@@QEAAPEAPEAUInputDescriptor@sharp@@QEAPEAU23@$$QEAPEAU23@@Z 0000000180045630     pipeline.obj
 0004:0000063c       $pdata$??$_Assign_range@PEBN@?$vector@NV?$allocator@N@std@@@std@@AEAAXPEBN0Uforward_iterator_tag@1@@Z 000000018004563c     pipeline.obj
 0004:00000648       $pdata$??$_Emplace_reallocate@N@?$vector@NV?$allocator@N@std@@@std@@QEAAPEANQEAN$$QEAN@Z 0000000180045648     pipeline.obj
 0004:00000654       $pdata$2$??$_Emplace_reallocate@N@?$vector@NV?$allocator@N@std@@@std@@QEAAPEANQEAN$$QEAN@Z 0000000180045654     pipeline.obj
 0004:00000660       $pdata$3$??$_Emplace_reallocate@N@?$vector@NV?$allocator@N@std@@@std@@QEAAPEANQEAN$$QEAN@Z 0000000180045660     pipeline.obj
 0004:0000066c       $pdata$4$??$_Emplace_reallocate@N@?$vector@NV?$allocator@N@std@@@std@@QEAAPEANQEAN$$QEAN@Z 000000018004566c     pipeline.obj
 0004:00000678       $pdata$?reserve@?$basic_string@DU?$char_traits@D@std@@V?$allocator@D@2@@std@@QEAAX_K@Z 0000000180045678     pipeline.obj
 0004:00000684       $pdata$0$?reserve@?$basic_string@DU?$char_traits@D@std@@V?$allocator@D@2@@std@@QEAAX_K@Z 0000000180045684     pipeline.obj
 0004:00000690       $pdata$2$?reserve@?$basic_string@DU?$char_traits@D@std@@V?$allocator@D@2@@std@@QEAAX_K@Z 0000000180045690     pipeline.obj
 0004:0000069c       $pdata$3$?reserve@?$basic_string@DU?$char_traits@D@std@@V?$allocator@D@2@@std@@QEAAX_K@Z 000000018004569c     pipeline.obj
 0004:000006a8       $pdata$4$?reserve@?$basic_string@DU?$char_traits@D@std@@V?$allocator@D@2@@std@@QEAAX_K@Z 00000001800456a8     pipeline.obj
 0004:000006b4       $pdata$5$?reserve@?$basic_string@DU?$char_traits@D@std@@V?$allocator@D@2@@std@@QEAAX_K@Z 00000001800456b4     pipeline.obj
 0004:000006c0       $pdata$??$_Try_emplace@W4VipsInterpretation@@$$V@?$map@W4VipsInterpretation@@V?$basic_string@DU?$char_traits@D@std@@V?$allocator@D@2@@std@@U?$less@W4VipsInterpretation@@@3@V?$allocator@U?$pair@$$CBW4VipsInterpretation@@V?$basic_string@DU?$char_traits@D@std@@V?$allocator@D@2@@std@@@std@@@3@@std@@QEAA?AU?$pair@V?$_Tree_iterator@V?$_Tree_val@U?$_Tree_simple_types@U?$pair@$$CBW4VipsInterpretation@@V?$basic_string@DU?$char_traits@D@std@@V?$allocator@D@2@@std@@@std@@@std@@@std@@@std@@_N@1@$$QEAW4VipsInterpretation@@@Z 00000001800456c0     pipeline.obj
 0004:000006cc       $pdata$??$_Buynode@U?$pair@W4VipsInterpretation@@V?$basic_string@DU?$char_traits@D@std@@V?$allocator@D@2@@std@@@std@@@?$_Tree_comp_alloc@V?$_Tmap_traits@W4VipsInterpretation@@V?$basic_string@DU?$char_traits@D@std@@V?$allocator@D@2@@std@@U?$less@W4VipsInterpretation@@@3@V?$allocator@U?$pair@$$CBW4VipsInterpretation@@V?$basic_string@DU?$char_traits@D@std@@V?$allocator@D@2@@std@@@std@@@3@$0A@@std@@@std@@QEAAPEAU?$_Tree_node@U?$pair@$$CBW4VipsInterpretation@@V?$basic_string@DU?$char_traits@D@std@@V?$allocator@D@2@@std@@@std@@PEAX@1@$$QEAU?$pair@W4VipsInterpretation@@V?$basic_string@DU?$char_traits@D@std@@V?$allocator@D@2@@std@@@1@@Z 00000001800456cc     pipeline.obj
 0004:000006d8       $pdata$??$_Insert_nohint@AEAU?$pair@$$CBW4VipsInterpretation@@V?$basic_string@DU?$char_traits@D@std@@V?$allocator@D@2@@std@@@std@@PEAU?$_Tree_node@U?$pair@$$CBW4VipsInterpretation@@V?$basic_string@DU?$char_traits@D@std@@V?$allocator@D@2@@std@@@std@@PEAX@2@@?$_Tree@V?$_Tmap_traits@W4VipsInterpretation@@V?$basic_string@DU?$char_traits@D@std@@V?$allocator@D@2@@std@@U?$less@W4VipsInterpretation@@@3@V?$allocator@U?$pair@$$CBW4VipsInterpretation@@V?$basic_string@DU?$char_traits@D@std@@V?$allocator@D@2@@std@@@std@@@3@$0A@@std@@@std@@IEAA?AU?$pair@V?$_Tree_iterator@V?$_Tree_val@U?$_Tree_simple_types@U?$pair@$$CBW4VipsInterpretation@@V?$basic_string@DU?$char_traits@D@std@@V?$allocator@D@2@@std@@@std@@@std@@@std@@@std@@_N@1@_NAEAU?$pair@$$CBW4VipsInterpretation@@V?$basic_string@DU?$char_traits@D@std@@V?$allocator@D@2@@std@@@1@PEAU?$_Tree_node@U?$pair@$$CBW4VipsInterpretation@@V?$basic_string@DU?$char_traits@D@std@@V?$allocator@D@2@@std@@@std@@PEAX@1@@Z 00000001800456d8     pipeline.obj
 0004:000006e4       $pdata$?_Do_call@?$_Func_impl_no_alloc@UEntropyStrategy@sharp@@NVVImage@vips@@@std@@EEAAN$$QEAVVImage@vips@@@Z 00000001800456e4     pipeline.obj
 0004:000006f0       $pdata$?_Do_call@?$_Func_impl_no_alloc@UAttentionStrategy@sharp@@NVVImage@vips@@@std@@EEAAN$$QEAVVImage@vips@@@Z 00000001800456f0     pipeline.obj
 0004:000006fc       $pdata$?_Destroy_if_node@?$_Tree@V?$_Tmap_traits@W4VipsInterpretation@@V?$basic_string@DU?$char_traits@D@std@@V?$allocator@D@2@@std@@U?$less@W4VipsInterpretation@@@3@V?$allocator@U?$pair@$$CBW4VipsInterpretation@@V?$basic_string@DU?$char_traits@D@std@@V?$allocator@D@2@@std@@@std@@@3@$0A@@std@@@std@@IEAAXPEAU?$_Tree_node@U?$pair@$$CBW4VipsInterpretation@@V?$basic_string@DU?$char_traits@D@std@@V?$allocator@D@2@@std@@@std@@PEAX@2@@Z 00000001800456fc     pipeline.obj
 0004:00000708       $pdata$??$_Insert_at@AEAU?$pair@$$CBW4VipsInterpretation@@V?$basic_string@DU?$char_traits@D@std@@V?$allocator@D@2@@std@@@std@@PEAU?$_Tree_node@U?$pair@$$CBW4VipsInterpretation@@V?$basic_string@DU?$char_traits@D@std@@V?$allocator@D@2@@std@@@std@@PEAX@2@@?$_Tree@V?$_Tmap_traits@W4VipsInterpretation@@V?$basic_string@DU?$char_traits@D@std@@V?$allocator@D@2@@std@@U?$less@W4VipsInterpretation@@@3@V?$allocator@U?$pair@$$CBW4VipsInterpretation@@V?$basic_string@DU?$char_traits@D@std@@V?$allocator@D@2@@std@@@std@@@3@$0A@@std@@@std@@IEAA?AV?$_Tree_iterator@V?$_Tree_val@U?$_Tree_simple_types@U?$pair@$$CBW4VipsInterpretation@@V?$basic_string@DU?$char_traits@D@std@@V?$allocator@D@2@@std@@@std@@@std@@@std@@@1@_NPEAU?$_Tree_node@U?$pair@$$CBW4VipsInterpretation@@V?$basic_string@DU?$char_traits@D@std@@V?$allocator@D@2@@std@@@std@@PEAX@1@AEAU?$pair@$$CBW4VipsInterpretation@@V?$basic_string@DU?$char_traits@D@std@@V?$allocator@D@2@@std@@@1@1@Z 0000000180045708     pipeline.obj
 0004:00000714       $pdata$0$??$_Insert_at@AEAU?$pair@$$CBW4VipsInterpretation@@V?$basic_string@DU?$char_traits@D@std@@V?$allocator@D@2@@std@@@std@@PEAU?$_Tree_node@U?$pair@$$CBW4VipsInterpretation@@V?$basic_string@DU?$char_traits@D@std@@V?$allocator@D@2@@std@@@std@@PEAX@2@@?$_Tree@V?$_Tmap_traits@W4VipsInterpretation@@V?$basic_string@DU?$char_traits@D@std@@V?$allocator@D@2@@std@@U?$less@W4VipsInterpretation@@@3@V?$allocator@U?$pair@$$CBW4VipsInterpretation@@V?$basic_string@DU?$char_traits@D@std@@V?$allocator@D@2@@std@@@std@@@3@$0A@@std@@@std@@IEAA?AV?$_Tree_iterator@V?$_Tree_val@U?$_Tree_simple_types@U?$pair@$$CBW4VipsInterpretation@@V?$basic_string@DU?$char_traits@D@std@@V?$allocator@D@2@@std@@@std@@@std@@@std@@@1@_NPEAU?$_Tree_node@U?$pair@$$CBW4VipsInterpretation@@V?$basic_string@DU?$char_traits@D@std@@V?$allocator@D@2@@std@@@std@@PEAX@1@AEAU?$pair@$$CBW4VipsInterpretation@@V?$basic_string@DU?$char_traits@D@std@@V?$allocator@D@2@@std@@@1@1@Z 0000000180045714     pipeline.obj
 0004:00000720       $pdata$1$??$_Insert_at@AEAU?$pair@$$CBW4VipsInterpretation@@V?$basic_string@DU?$char_traits@D@std@@V?$allocator@D@2@@std@@@std@@PEAU?$_Tree_node@U?$pair@$$CBW4VipsInterpretation@@V?$basic_string@DU?$char_traits@D@std@@V?$allocator@D@2@@std@@@std@@PEAX@2@@?$_Tree@V?$_Tmap_traits@W4VipsInterpretation@@V?$basic_string@DU?$char_traits@D@std@@V?$allocator@D@2@@std@@U?$less@W4VipsInterpretation@@@3@V?$allocator@U?$pair@$$CBW4VipsInterpretation@@V?$basic_string@DU?$char_traits@D@std@@V?$allocator@D@2@@std@@@std@@@3@$0A@@std@@@std@@IEAA?AV?$_Tree_iterator@V?$_Tree_val@U?$_Tree_simple_types@U?$pair@$$CBW4VipsInterpretation@@V?$basic_string@DU?$char_traits@D@std@@V?$allocator@D@2@@std@@@std@@@std@@@std@@@1@_NPEAU?$_Tree_node@U?$pair@$$CBW4VipsInterpretation@@V?$basic_string@DU?$char_traits@D@std@@V?$allocator@D@2@@std@@@std@@PEAX@1@AEAU?$pair@$$CBW4VipsInterpretation@@V?$basic_string@DU?$char_traits@D@std@@V?$allocator@D@2@@std@@@1@1@Z 0000000180045720     pipeline.obj
 0004:0000072c       $pdata$??$_Insert_hint@AEAU?$pair@$$CBW4VipsInterpretation@@V?$basic_string@DU?$char_traits@D@std@@V?$allocator@D@2@@std@@@std@@PEAU?$_Tree_node@U?$pair@$$CBW4VipsInterpretation@@V?$basic_string@DU?$char_traits@D@std@@V?$allocator@D@2@@std@@@std@@PEAX@2@@?$_Tree@V?$_Tmap_traits@W4VipsInterpretation@@V?$basic_string@DU?$char_traits@D@std@@V?$allocator@D@2@@std@@U?$less@W4VipsInterpretation@@@3@V?$allocator@U?$pair@$$CBW4VipsInterpretation@@V?$basic_string@DU?$char_traits@D@std@@V?$allocator@D@2@@std@@@std@@@3@$0A@@std@@@std@@IEAA?AV?$_Tree_iterator@V?$_Tree_val@U?$_Tree_simple_types@U?$pair@$$CBW4VipsInterpretation@@V?$basic_string@DU?$char_traits@D@std@@V?$allocator@D@2@@std@@@std@@@std@@@std@@@1@V?$_Tree_const_iterator@V?$_Tree_val@U?$_Tree_simple_types@U?$pair@$$CBW4VipsInterpretation@@V?$basic_string@DU?$char_traits@D@std@@V?$allocator@D@2@@std@@@std@@@std@@@std@@@1@AEAU?$pair@$$CBW4VipsInterpretation@@V?$basic_string@DU?$char_traits@D@std@@V?$allocator@D@2@@std@@@1@PEAU?$_Tree_node@U?$pair@$$CBW4VipsInterpretation@@V?$basic_string@DU?$char_traits@D@std@@V?$allocator@D@2@@std@@@std@@PEAX@1@@Z 000000018004572c     pipeline.obj
 0004:00000738       $pdata$0$??$_Insert_hint@AEAU?$pair@$$CBW4VipsInterpretation@@V?$basic_string@DU?$char_traits@D@std@@V?$allocator@D@2@@std@@@std@@PEAU?$_Tree_node@U?$pair@$$CBW4VipsInterpretation@@V?$basic_string@DU?$char_traits@D@std@@V?$allocator@D@2@@std@@@std@@PEAX@2@@?$_Tree@V?$_Tmap_traits@W4VipsInterpretation@@V?$basic_string@DU?$char_traits@D@std@@V?$allocator@D@2@@std@@U?$less@W4VipsInterpretation@@@3@V?$allocator@U?$pair@$$CBW4VipsInterpretation@@V?$basic_string@DU?$char_traits@D@std@@V?$allocator@D@2@@std@@@std@@@3@$0A@@std@@@std@@IEAA?AV?$_Tree_iterator@V?$_Tree_val@U?$_Tree_simple_types@U?$pair@$$CBW4VipsInterpretation@@V?$basic_string@DU?$char_traits@D@std@@V?$allocator@D@2@@std@@@std@@@std@@@std@@@1@V?$_Tree_const_iterator@V?$_Tree_val@U?$_Tree_simple_types@U?$pair@$$CBW4VipsInterpretation@@V?$basic_string@DU?$char_traits@D@std@@V?$allocator@D@2@@std@@@std@@@std@@@std@@@1@AEAU?$pair@$$CBW4VipsInterpretation@@V?$basic_string@DU?$char_traits@D@std@@V?$allocator@D@2@@std@@@1@PEAU?$_Tree_node@U?$pair@$$CBW4VipsInterpretation@@V?$basic_string@DU?$char_traits@D@std@@V?$allocator@D@2@@std@@@std@@PEAX@1@@Z 0000000180045738     pipeline.obj
 0004:00000744       $pdata$2$??$_Insert_hint@AEAU?$pair@$$CBW4VipsInterpretation@@V?$basic_string@DU?$char_traits@D@std@@V?$allocator@D@2@@std@@@std@@PEAU?$_Tree_node@U?$pair@$$CBW4VipsInterpretation@@V?$basic_string@DU?$char_traits@D@std@@V?$allocator@D@2@@std@@@std@@PEAX@2@@?$_Tree@V?$_Tmap_traits@W4VipsInterpretation@@V?$basic_string@DU?$char_traits@D@std@@V?$allocator@D@2@@std@@U?$less@W4VipsInterpretation@@@3@V?$allocator@U?$pair@$$CBW4VipsInterpretation@@V?$basic_string@DU?$char_traits@D@std@@V?$allocator@D@2@@std@@@std@@@3@$0A@@std@@@std@@IEAA?AV?$_Tree_iterator@V?$_Tree_val@U?$_Tree_simple_types@U?$pair@$$CBW4VipsInterpretation@@V?$basic_string@DU?$char_traits@D@std@@V?$allocator@D@2@@std@@@std@@@std@@@std@@@1@V?$_Tree_const_iterator@V?$_Tree_val@U?$_Tree_simple_types@U?$pair@$$CBW4VipsInterpretation@@V?$basic_string@DU?$char_traits@D@std@@V?$allocator@D@2@@std@@@std@@@std@@@std@@@1@AEAU?$pair@$$CBW4VipsInterpretation@@V?$basic_string@DU?$char_traits@D@std@@V?$allocator@D@2@@std@@@1@PEAU?$_Tree_node@U?$pair@$$CBW4VipsInterpretation@@V?$basic_string@DU?$char_traits@D@std@@V?$allocator@D@2@@std@@@std@@PEAX@1@@Z 0000000180045744     pipeline.obj
 0004:00000750       $pdata$4$??$_Insert_hint@AEAU?$pair@$$CBW4VipsInterpretation@@V?$basic_string@DU?$char_traits@D@std@@V?$allocator@D@2@@std@@@std@@PEAU?$_Tree_node@U?$pair@$$CBW4VipsInterpretation@@V?$basic_string@DU?$char_traits@D@std@@V?$allocator@D@2@@std@@@std@@PEAX@2@@?$_Tree@V?$_Tmap_traits@W4VipsInterpretation@@V?$basic_string@DU?$char_traits@D@std@@V?$allocator@D@2@@std@@U?$less@W4VipsInterpretation@@@3@V?$allocator@U?$pair@$$CBW4VipsInterpretation@@V?$basic_string@DU?$char_traits@D@std@@V?$allocator@D@2@@std@@@std@@@3@$0A@@std@@@std@@IEAA?AV?$_Tree_iterator@V?$_Tree_val@U?$_Tree_simple_types@U?$pair@$$CBW4VipsInterpretation@@V?$basic_string@DU?$char_traits@D@std@@V?$allocator@D@2@@std@@@std@@@std@@@std@@@1@V?$_Tree_const_iterator@V?$_Tree_val@U?$_Tree_simple_types@U?$pair@$$CBW4VipsInterpretation@@V?$basic_string@DU?$char_traits@D@std@@V?$allocator@D@2@@std@@@std@@@std@@@std@@@1@AEAU?$pair@$$CBW4VipsInterpretation@@V?$basic_string@DU?$char_traits@D@std@@V?$allocator@D@2@@std@@@1@PEAU?$_Tree_node@U?$pair@$$CBW4VipsInterpretation@@V?$basic_string@DU?$char_traits@D@std@@V?$allocator@D@2@@std@@@std@@PEAX@1@@Z 0000000180045750     pipeline.obj
 0004:0000075c       $pdata$6$??$_Insert_hint@AEAU?$pair@$$CBW4VipsInterpretation@@V?$basic_string@DU?$char_traits@D@std@@V?$allocator@D@2@@std@@@std@@PEAU?$_Tree_node@U?$pair@$$CBW4VipsInterpretation@@V?$basic_string@DU?$char_traits@D@std@@V?$allocator@D@2@@std@@@std@@PEAX@2@@?$_Tree@V?$_Tmap_traits@W4VipsInterpretation@@V?$basic_string@DU?$char_traits@D@std@@V?$allocator@D@2@@std@@U?$less@W4VipsInterpretation@@@3@V?$allocator@U?$pair@$$CBW4VipsInterpretation@@V?$basic_string@DU?$char_traits@D@std@@V?$allocator@D@2@@std@@@std@@@3@$0A@@std@@@std@@IEAA?AV?$_Tree_iterator@V?$_Tree_val@U?$_Tree_simple_types@U?$pair@$$CBW4VipsInterpretation@@V?$basic_string@DU?$char_traits@D@std@@V?$allocator@D@2@@std@@@std@@@std@@@std@@@1@V?$_Tree_const_iterator@V?$_Tree_val@U?$_Tree_simple_types@U?$pair@$$CBW4VipsInterpretation@@V?$basic_string@DU?$char_traits@D@std@@V?$allocator@D@2@@std@@@std@@@std@@@std@@@1@AEAU?$pair@$$CBW4VipsInterpretation@@V?$basic_string@DU?$char_traits@D@std@@V?$allocator@D@2@@std@@@1@PEAU?$_Tree_node@U?$pair@$$CBW4VipsInterpretation@@V?$basic_string@DU?$char_traits@D@std@@V?$allocator@D@2@@std@@@std@@PEAX@1@@Z 000000018004575c     pipeline.obj
 0004:00000768       $pdata$8$??$_Insert_hint@AEAU?$pair@$$CBW4VipsInterpretation@@V?$basic_string@DU?$char_traits@D@std@@V?$allocator@D@2@@std@@@std@@PEAU?$_Tree_node@U?$pair@$$CBW4VipsInterpretation@@V?$basic_string@DU?$char_traits@D@std@@V?$allocator@D@2@@std@@@std@@PEAX@2@@?$_Tree@V?$_Tmap_traits@W4VipsInterpretation@@V?$basic_string@DU?$char_traits@D@std@@V?$allocator@D@2@@std@@U?$less@W4VipsInterpretation@@@3@V?$allocator@U?$pair@$$CBW4VipsInterpretation@@V?$basic_string@DU?$char_traits@D@std@@V?$allocator@D@2@@std@@@std@@@3@$0A@@std@@@std@@IEAA?AV?$_Tree_iterator@V?$_Tree_val@U?$_Tree_simple_types@U?$pair@$$CBW4VipsInterpretation@@V?$basic_string@DU?$char_traits@D@std@@V?$allocator@D@2@@std@@@std@@@std@@@std@@@1@V?$_Tree_const_iterator@V?$_Tree_val@U?$_Tree_simple_types@U?$pair@$$CBW4VipsInterpretation@@V?$basic_string@DU?$char_traits@D@std@@V?$allocator@D@2@@std@@@std@@@std@@@std@@@1@AEAU?$pair@$$CBW4VipsInterpretation@@V?$basic_string@DU?$char_traits@D@std@@V?$allocator@D@2@@std@@@1@PEAU?$_Tree_node@U?$pair@$$CBW4VipsInterpretation@@V?$basic_string@DU?$char_traits@D@std@@V?$allocator@D@2@@std@@@std@@PEAX@1@@Z 0000000180045768     pipeline.obj
 0004:00000774       $pdata$?FunctionCallbackWrapper@imp@Nan@@YAXAEBV?$FunctionCallbackInfo@VValue@v8@@@v8@@@Z 0000000180045774     sharp.obj
 0004:00000780       $pdata$?init@@YAXV?$Local@VObject@v8@@@v8@@@Z 0000000180045780     sharp.obj
 0004:0000078c       $pdata$??$New@VFunctionTemplate@v8@@@Nan@@YA?AV?$Local@VFunctionTemplate@v8@@@v8@@P6AXAEBV?$FunctionCallbackInfo@VValue@v8@@@0@@ZV?$Local@VValue@v8@@@2@@Z 000000018004578c     sharp.obj
 0004:00000798       $pdata$?ThrowError@Nan@@YAXPEBD@Z 0000000180045798     utilities.obj
 0004:000007a4       $pdata$?cache@@YAXAEBV?$FunctionCallbackInfo@VValue@v8@@@Nan@@@Z 00000001800457a4     utilities.obj
 0004:000007b0       $pdata$?concurrency@@YAXAEBV?$FunctionCallbackInfo@VValue@v8@@@Nan@@@Z 00000001800457b0     utilities.obj
 0004:000007bc       $pdata$?counters@@YAXAEBV?$FunctionCallbackInfo@VValue@v8@@@Nan@@@Z 00000001800457bc     utilities.obj
 0004:000007c8       $pdata$?simd@@YAXAEBV?$FunctionCallbackInfo@VValue@v8@@@Nan@@@Z 00000001800457c8     utilities.obj
 0004:000007d4       $pdata$?libvipsVersion@@YAXAEBV?$FunctionCallbackInfo@VValue@v8@@@Nan@@@Z 00000001800457d4     utilities.obj
 0004:000007e0       $pdata$?format@@YAXAEBV?$FunctionCallbackInfo@VValue@v8@@@Nan@@@Z 00000001800457e0     utilities.obj
 0004:000007ec       $pdata$?_maxColourDistance@@YAXAEBV?$FunctionCallbackInfo@VValue@v8@@@Nan@@@Z 00000001800457ec     utilities.obj
 0004:000007f8       $pdata$?load_exe_hook@@YAP6A_JXZIPEAUDelayLoadInfo@@@Z 00000001800457f8     win_delay_load_hook.obj
 0004:00000810       $pdata$??0bad_alloc@std@@QEAA@AEBV01@@Z 0000000180045810     libcpmt:xthrow.obj
 0004:0000081c       $pdata$??0bad_function_call@std@@QEAA@AEBV01@@Z 000000018004581c     libcpmt:xthrow.obj
 0004:00000828       $pdata$??0exception@std@@QEAA@AEBV01@@Z 0000000180045828     libcpmt:xthrow.obj
 0004:00000834       $pdata$??0length_error@std@@QEAA@AEBV01@@Z 0000000180045834     libcpmt:xthrow.obj
 0004:00000840       $pdata$??0length_error@std@@QEAA@PEBD@Z 0000000180045840     libcpmt:xthrow.obj
 0004:0000084c       $pdata$??0logic_error@std@@QEAA@AEBV01@@Z 000000018004584c     libcpmt:xthrow.obj
 0004:00000858       $pdata$??0out_of_range@std@@QEAA@AEBV01@@Z 0000000180045858     libcpmt:xthrow.obj
 0004:00000864       $pdata$??0out_of_range@std@@QEAA@PEBD@Z 0000000180045864     libcpmt:xthrow.obj
 0004:00000870       $pdata$??_Gbad_function_call@std@@UEAAPEAXI@Z 0000000180045870     libcpmt:xthrow.obj
 0004:00000870       $pdata$??_Glength_error@std@@UEAAPEAXI@Z 0000000180045870     libcpmt:xthrow.obj
 0004:00000870       $pdata$??_Gbad_array_new_length@std@@UEAAPEAXI@Z 0000000180045870     LIBCMT:throw_bad_alloc.obj
 0004:00000870       $pdata$??_Gout_of_range@std@@UEAAPEAXI@Z 0000000180045870     libcpmt:xthrow.obj
 0004:00000870       $pdata$??_Gexception@std@@UEAAPEAXI@Z 0000000180045870     libcpmt:xthrow.obj
 0004:00000870       $pdata$??_Glogic_error@std@@UEAAPEAXI@Z 0000000180045870     libcpmt:xthrow.obj
 0004:00000870       $pdata$??_Gbad_exception@std@@UEAAPEAXI@Z 0000000180045870     libvcruntime:frame.obj
 0004:00000870       $pdata$??_Gbad_alloc@std@@UEAAPEAXI@Z 0000000180045870     libcpmt:xthrow.obj
 0004:0000087c       $pdata$?_Xbad_function_call@std@@YAXXZ 000000018004587c     libcpmt:xthrow.obj
 0004:00000888       $pdata$?_Xlength_error@std@@YAXPEBD@Z 0000000180045888     libcpmt:xthrow.obj
 0004:00000894       $pdata$?_Xout_of_range@std@@YAXPEBD@Z 0000000180045894     libcpmt:xthrow.obj
 0004:000008ac       $pdata$??2@YAPEAX_K@Z      00000001800458ac     LIBCMT:new_scalar.obj
 0004:000008b8       $pdata$??_Gtype_info@@UEAAPEAXI@Z 00000001800458b8     LIBCMT:std_type_info_static.obj
 0004:000008c4       $pdata$?dllmain_crt_dispatch@@YAHQEAUHINSTANCE__@@KQEAX@Z 00000001800458c4     LIBCMT:dll_dllmain.obj
 0004:000008d0       $pdata$?dllmain_crt_process_attach@@YAHQEAUHINSTANCE__@@QEAX@Z 00000001800458d0     LIBCMT:dll_dllmain.obj
 0004:000008dc       $pdata$?dllmain_crt_process_detach@@YAH_N@Z 00000001800458dc     LIBCMT:dll_dllmain.obj
 0004:000008e8       $pdata$?dllmain_dispatch@@YAHQEAUHINSTANCE__@@KQEAX@Z 00000001800458e8     LIBCMT:dll_dllmain.obj
 0004:000008f4       $pdata$_DllMainCRTStartup  00000001800458f4     LIBCMT:dll_dllmain.obj
 0004:00000900       $pdata$__raise_securityfailure 0000000180045900     LIBCMT:gs_report.obj
 0004:0000090c       $pdata$__report_gsfailure  000000018004590c     LIBCMT:gs_report.obj
 0004:00000918       $pdata$__report_rangecheckfailure 0000000180045918     LIBCMT:gs_report.obj
 0004:00000924       $pdata$__report_securityfailure 0000000180045924     LIBCMT:gs_report.obj
 0004:00000930       $pdata$capture_current_context 0000000180045930     LIBCMT:gs_report.obj
 0004:0000093c       $pdata$capture_previous_context 000000018004593c     LIBCMT:gs_report.obj
 0004:00000948       $pdata$??0bad_array_new_length@std@@QEAA@AEBV01@@Z 0000000180045948     LIBCMT:throw_bad_alloc.obj
 0004:00000954       $pdata$?__scrt_throw_std_bad_alloc@@YAXXZ 0000000180045954     LIBCMT:throw_bad_alloc.obj
 0004:00000960       $pdata$?__scrt_throw_std_bad_array_new_length@@YAXXZ 0000000180045960     LIBCMT:throw_bad_alloc.obj
 0004:0000096c       $pdata$__security_init_cookie 000000018004596c     LIBCMT:gs_support.obj
 0004:00000978       $pdata$__scrt_initialize_default_local_stdio_options 0000000180045978     LIBCMT:default_local_stdio_options.obj
 0004:00000984       $pdata$__scrt_acquire_startup_lock 0000000180045984     LIBCMT:utility.obj
 0004:00000990       $pdata$__scrt_dllmain_after_initialize_c 0000000180045990     LIBCMT:utility.obj
 0004:0000099c       $pdata$__scrt_dllmain_before_initialize_c 000000018004599c     LIBCMT:utility.obj
 0004:000009a8       $pdata$__scrt_dllmain_crt_thread_attach 00000001800459a8     LIBCMT:utility.obj
 0004:000009b4       $pdata$__scrt_dllmain_crt_thread_detach 00000001800459b4     LIBCMT:utility.obj
 0004:000009c0       $pdata$__scrt_dllmain_exception_filter 00000001800459c0     LIBCMT:utility.obj
 0004:000009cc       $pdata$__scrt_dllmain_uninitialize_c 00000001800459cc     LIBCMT:utility.obj
 0004:000009d8       $pdata$__scrt_dllmain_uninitialize_critical 00000001800459d8     LIBCMT:utility.obj
 0004:000009e4       $pdata$__scrt_initialize_crt 00000001800459e4     LIBCMT:utility.obj
 0004:000009f0       $pdata$__scrt_initialize_onexit_tables 00000001800459f0     LIBCMT:utility.obj
 0004:000009fc       $pdata$__scrt_is_nonwritable_in_current_image 00000001800459fc     LIBCMT:utility.obj
 0004:00000a08       $pdata$__scrt_release_startup_lock 0000000180045a08     LIBCMT:utility.obj
 0004:00000a14       $pdata$__scrt_uninitialize_crt 0000000180045a14     LIBCMT:utility.obj
 0004:00000a20       $pdata$__scrt_fastfail     0000000180045a20     LIBCMT:utility_desktop.obj
 0004:00000a2c       $pdata$_RTC_Initialize     0000000180045a2c     LIBCMT:_initsect_.obj
 0004:00000a38       $pdata$_RTC_Terminate      0000000180045a38     LIBCMT:_initsect_.obj
 0004:00000a44       $pdata$__isa_available_init 0000000180045a44     LIBCMT:_cpu_disp_.obj
 0004:00000a50       $pdata$??$_CallSETranslator@V__FrameHandler3@@@@YAHPEAUEHExceptionRecord@@PEA_KPEAU_CONTEXT@@PEAU_xDISPATCHER_CONTEXT@@PEBU_s_FuncInfo@@K1@Z 0000000180045a50     libvcruntime:risctrnsctrl.obj
 0004:00000a5c       $pdata$?CatchTryBlock@__FrameHandler3@@SAPEBU_s_TryBlockMapEntry@@PEBU_s_FuncInfo@@H@Z 0000000180045a5c     libvcruntime:risctrnsctrl.obj
 0004:00000a68       $pdata$?ExecutionInCatch@__FrameHandler3@@SA_NPEAU_xDISPATCHER_CONTEXT@@PEBU_s_FuncInfo@@@Z 0000000180045a68     libvcruntime:risctrnsctrl.obj
 0004:00000a74       $pdata$?FrameUnwindToEmptyState@__FrameHandler3@@SAXPEA_KPEAU_xDISPATCHER_CONTEXT@@PEBU_s_FuncInfo@@@Z 0000000180045a74     libvcruntime:risctrnsctrl.obj
 0004:00000a80       $pdata$?GetEstablisherFrame@__FrameHandler3@@SAPEA_KPEA_KPEAU_xDISPATCHER_CONTEXT@@PEBU_s_FuncInfo@@0@Z 0000000180045a80     libvcruntime:risctrnsctrl.obj
 0004:00000a8c       $pdata$?GetRangeOfTrysToCheck@__FrameHandler3@@SA?AU?$pair@Viterator@TryBlockMap@__FrameHandler3@@V123@@std@@AEAVTryBlockMap@1@HH@Z 0000000180045a8c     libvcruntime:risctrnsctrl.obj
 0004:00000a98       $pdata$?UnwindNestedFrames@__FrameHandler3@@SAXPEA_KPEAUEHExceptionRecord@@PEAU_CONTEXT@@0PEAXPEBU_s_FuncInfo@@HHPEBU_s_HandlerType@@PEAU_xDISPATCHER_CONTEXT@@E@Z 0000000180045a98     libvcruntime:risctrnsctrl.obj
 0004:00000aa4       $pdata$_CreateFrameInfo    0000000180045aa4     libvcruntime:risctrnsctrl.obj
 0004:00000ab0       $pdata$_FindAndUnlinkFrame 0000000180045ab0     libvcruntime:risctrnsctrl.obj
 0004:00000abc       $pdata$_GetImageBase       0000000180045abc     libvcruntime:risctrnsctrl.obj
 0004:00000ac8       $pdata$_GetThrowImageBase  0000000180045ac8     libvcruntime:risctrnsctrl.obj
 0004:00000ad4       $pdata$_SetImageBase       0000000180045ad4     libvcruntime:risctrnsctrl.obj
 0004:00000ae0       $pdata$_SetThrowImageBase  0000000180045ae0     libvcruntime:risctrnsctrl.obj
 0004:00000aec       $pdata$__CxxFrameHandler3  0000000180045aec     libvcruntime:risctrnsctrl.obj
 0004:00000af8       $pdata$__DestructExceptionObject 0000000180045af8     libvcruntime:ehhelpers.obj
 0004:00000b04       $pdata$_IsExceptionObjectToBeDestroyed 0000000180045b04     libvcruntime:ehhelpers.obj
 0004:00000b10       $pdata$__FrameUnwindFilter 0000000180045b10     libvcruntime:ehhelpers.obj
 0004:00000b1c       $pdata$__std_terminate     0000000180045b1c     libvcruntime:ehhelpers.obj
 0004:00000b28       $pdata$_purecall           0000000180045b28     libvcruntime:purevirt.obj
 0004:00000b34       $pdata$__std_exception_copy 0000000180045b34     libvcruntime:std_exception.obj
 0004:00000b40       $pdata$__std_exception_destroy 0000000180045b40     libvcruntime:std_exception.obj
 0004:00000b4c       $pdata$_CxxThrowException  0000000180045b4c     libvcruntime:throw.obj
 0004:00000b58       $pdata$__C_specific_handler 0000000180045b58     libvcruntime:_riscchandler_.obj
 0004:00000b64       $pdata$__std_type_info_destroy_list 0000000180045b64     libvcruntime:std_type_info.obj
 0004:00000b70       $pdata$__vcrt_initialize   0000000180045b70     libvcruntime:initialization.obj
 0004:00000b7c       $pdata$__vcrt_thread_attach 0000000180045b7c     libvcruntime:initialization.obj
 0004:00000b88       $pdata$__vcrt_thread_detach 0000000180045b88     libvcruntime:initialization.obj
 0004:00000b94       $pdata$__vcrt_uninitialize 0000000180045b94     libvcruntime:initialization.obj
 0004:00000ba0       $pdata$__vcrt_uninitialize_critical 0000000180045ba0     libvcruntime:initialization.obj
 0004:00000bc4       $pdata$__vcrt_freefls      0000000180045bc4     libvcruntime:per_thread_data.obj
 0004:00000bd0       $pdata$__vcrt_freeptd      0000000180045bd0     libvcruntime:per_thread_data.obj
 0004:00000bdc       $pdata$__vcrt_getptd       0000000180045bdc     libvcruntime:per_thread_data.obj
 0004:00000be8       $pdata$__vcrt_getptd_noexit 0000000180045be8     libvcruntime:per_thread_data.obj
 0004:00000bf4       $pdata$__vcrt_initialize_ptd 0000000180045bf4     libvcruntime:per_thread_data.obj
 0004:00000c00       $pdata$__vcrt_uninitialize_ptd 0000000180045c00     libvcruntime:per_thread_data.obj
 0004:00000c0c       $pdata$?GetCurrentState@__FrameHandler3@@SAHPEA_KPEAU_xDISPATCHER_CONTEXT@@PEBU_s_FuncInfo@@@Z 0000000180045c0c     libvcruntime:ehstate.obj
 0004:00000c18       $pdata$?GetUnwindTryBlock@__FrameHandler3@@SAHPEA_KPEAU_xDISPATCHER_CONTEXT@@PEBU_s_FuncInfo@@@Z 0000000180045c18     libvcruntime:ehstate.obj
 0004:00000c24       $pdata$?SetUnwindTryBlock@__FrameHandler3@@SAXPEA_KPEAU_xDISPATCHER_CONTEXT@@PEBU_s_FuncInfo@@H@Z 0000000180045c24     libvcruntime:ehstate.obj
 0004:00000c30       $pdata$?StateFromIp@__FrameHandler3@@SAHPEBU_s_FuncInfo@@PEAU_xDISPATCHER_CONTEXT@@_K@Z 0000000180045c30     libvcruntime:ehstate.obj
 0004:00000c3c       $pdata$??$BuildCatchObjectHelperInternal@$$CBU_s_HandlerType@@@@YAHPEAUEHExceptionRecord@@PEAXPEBU_s_HandlerType@@PEBU_s_CatchableType@@@Z 0000000180045c3c     libvcruntime:frame.obj
 0004:00000c48       $pdata$??$BuildCatchObjectInternal@$$CBU_s_HandlerType@@@@YAXPEAUEHExceptionRecord@@PEAXPEBU_s_HandlerType@@PEBU_s_CatchableType@@@Z 0000000180045c48     libvcruntime:frame.obj
 0004:00000c54       $pdata$??$CatchIt@V__FrameHandler3@@@@YAXPEAUEHExceptionRecord@@PEA_KPEAU_CONTEXT@@PEAU_xDISPATCHER_CONTEXT@@PEBU_s_FuncInfo@@PEBU_s_HandlerType@@PEBU_s_CatchableType@@PEBU_s_TryBlockMapEntry@@H1EE@Z 0000000180045c54     libvcruntime:frame.obj
 0004:00000c60       $pdata$??$FindHandler@V__FrameHandler3@@@@YAXPEAUEHExceptionRecord@@PEA_KPEAU_CONTEXT@@PEAU_xDISPATCHER_CONTEXT@@PEBU_s_FuncInfo@@EH1@Z 0000000180045c60     libvcruntime:frame.obj
 0004:00000c6c       $pdata$??$FindHandlerForForeignException@V__FrameHandler3@@@@YAXPEAUEHExceptionRecord@@PEA_KPEAU_CONTEXT@@PEAU_xDISPATCHER_CONTEXT@@PEBU_s_FuncInfo@@HH1@Z 0000000180045c6c     libvcruntime:frame.obj
 0004:00000c78       $pdata$??$TypeMatchHelper@$$CBU_s_HandlerType@@@@YAHPEBU_s_HandlerType@@PEBU_s_CatchableType@@PEBU_s_ThrowInfo@@@Z 0000000180045c78     libvcruntime:frame.obj
 0004:00000c84       $pdata$??$__InternalCxxFrameHandler@V__FrameHandler3@@@@YA?AW4_EXCEPTION_DISPOSITION@@PEAUEHExceptionRecord@@PEA_KPEAU_CONTEXT@@PEAU_xDISPATCHER_CONTEXT@@PEBU_s_FuncInfo@@H1E@Z 0000000180045c84     libvcruntime:frame.obj
 0004:00000c90       $pdata$??0bad_exception@std@@QEAA@AEBV01@@Z 0000000180045c90     libvcruntime:frame.obj
 0004:00000c9c       $pdata$?CxxCallCatchBlock@__FrameHandler3@@SAPEAXPEAU_EXCEPTION_RECORD@@@Z 0000000180045c9c     libvcruntime:frame.obj
 0004:00000ca8       $pdata$?ExFilterRethrow@@YAHPEAU_EXCEPTION_POINTERS@@PEAUEHExceptionRecord@@PEAH@Z 0000000180045ca8     libvcruntime:frame.obj
 0004:00000cb4       $pdata$?FrameUnwindToState@__FrameHandler3@@SAXPEA_KPEAU_xDISPATCHER_CONTEXT@@PEBU_s_FuncInfo@@H@Z 0000000180045cb4     libvcruntime:frame.obj
 0004:00000cc0       $pdata$?GetHandlerSearchState@__FrameHandler3@@SAHPEA_KPEAU_xDISPATCHER_CONTEXT@@PEBU_s_FuncInfo@@@Z 0000000180045cc0     libvcruntime:frame.obj
 0004:00000ccc       $pdata$?IsInExceptionSpec@@YAEPEAUEHExceptionRecord@@PEBU_s_ESTypeList@@@Z 0000000180045ccc     libvcruntime:frame.obj
 0004:00000cd8       $pdata$?Is_bad_exception_allowed@@YAEPEBU_s_ESTypeList@@@Z 0000000180045cd8     libvcruntime:frame.obj
 0004:00000d08       $pdata$__vcrt_initialize_locks 0000000180045d08     libvcruntime:locks.obj
 0004:00000d14       $pdata$__vcrt_uninitialize_locks 0000000180045d14     libvcruntime:locks.obj
 0004:00000d20       $pdata$?try_get_function@@YAPEAXW4function_id@?A0xcc2f1bd3@@QEBDQEBW4module_id@2@2@Z 0000000180045d20     libvcruntime:winapi_downlevel.obj
 0004:00000d2c       $pdata$__vcrt_FlsAlloc     0000000180045d2c     libvcruntime:winapi_downlevel.obj
 0004:00000d38       $pdata$__vcrt_FlsFree      0000000180045d38     libvcruntime:winapi_downlevel.obj
 0004:00000d44       $pdata$__vcrt_FlsGetValue  0000000180045d44     libvcruntime:winapi_downlevel.obj
 0004:00000d50       $pdata$__vcrt_FlsSetValue  0000000180045d50     libvcruntime:winapi_downlevel.obj
 0004:00000d5c       $pdata$__vcrt_InitializeCriticalSectionEx 0000000180045d5c     libvcruntime:winapi_downlevel.obj
 0004:00000d68       $pdata$__vcrt_initialize_winapi_thunks 0000000180045d68     libvcruntime:winapi_downlevel.obj
 0004:00000d74       $pdata$__vcrt_uninitialize_winapi_thunks 0000000180045d74     libvcruntime:winapi_downlevel.obj
 0004:00000db0       $pdata$??$parse_integer@KV?$c_string_character_source@D@__crt_strtox@@@__crt_strtox@@YAKQEAU__crt_locale_pointers@@V?$c_string_character_source@D@0@H_N@Z 0000000180045db0     libucrt:atox.obj
 0004:00000dbc       $pdata$??$parse_integer@KV?$c_string_character_source@_W@__crt_strtox@@@__crt_strtox@@YAKQEAU__crt_locale_pointers@@V?$c_string_character_source@_W@0@H_N@Z 0000000180045dbc     libucrt:atox.obj
 0004:00000dc8       $pdata$??0_LocaleUpdate@@QEAA@QEAU__crt_locale_pointers@@@Z 0000000180045dc8     libucrt:atox.obj
 0004:00000dd4       $pdata$atoi                0000000180045dd4     libucrt:atox.obj
 0004:00000de0       $pdata$round               0000000180045de0     libucrt:round.obj
 0004:00000dec       $pdata$??$common_assert_to_message_box@_W@@YAXQEB_W0IQEAX@Z 0000000180045dec     libucrt:assert.obj
 0004:00000df8       $pdata$??$common_assert_to_message_box_build_string@_W@@YAXQEA_W_KQEB_W2IQEAX@Z 0000000180045df8     libucrt:assert.obj
 0004:00000e04       $pdata$??$common_assert_to_stderr@_W@@YAXQEB_W0I@Z 0000000180045e04     libucrt:assert.obj
 0004:00000e10       $pdata$_wassert            0000000180045e10     libucrt:assert.obj
 0004:00000e1c       $pdata$fwprintf            0000000180045e1c     libucrt:assert.obj
 0004:00000e28       $pdata$swprintf            0000000180045e28     libucrt:assert.obj
 0004:00000e34       $pdata$__acrt_call_reportfault 0000000180045e34     libucrt:invalid_parameter.obj
 0004:00000e40       $pdata$_invalid_parameter  0000000180045e40     libucrt:invalid_parameter.obj
 0004:00000e4c       $pdata$_invalid_parameter_noinfo 0000000180045e4c     libucrt:invalid_parameter.obj
 0004:00000e58       $pdata$_invalid_parameter_noinfo_noreturn 0000000180045e58     libucrt:invalid_parameter.obj
 0004:00000e64       $pdata$_invoke_watson      0000000180045e64     libucrt:invalid_parameter.obj
 0004:00000e70       $pdata$_stricmp            0000000180045e70     libucrt:stricmp.obj
 0004:00000e7c       $pdata$_stricmp_l          0000000180045e7c     libucrt:stricmp.obj
 0004:00000e88       $pdata$_callnewh           0000000180045e88     libucrt:new_handler.obj
 0004:00000e94       $pdata$_query_new_handler  0000000180045e94     libucrt:new_handler.obj
 0004:00000ea0       $pdata$_initterm           0000000180045ea0     libucrt:initterm.obj
 0004:00000eac       $pdata$_initterm_e         0000000180045eac     libucrt:initterm.obj
 0004:00000eb8       $pdata$_seh_filter_exe     0000000180045eb8     libucrt:exception_filter.obj
 0004:00000ec4       $pdata$??$?RV<lambda_d80eeec6fff315bfe5c115232f3240e3>@@AEAV<lambda_6e4b09c48022b2350581041d5f6b0c4c>@@V<lambda_2358e3775559c9db80273638284d5e45>@@@?$__crt_seh_guarded_call@X@@QEAAX$$QEAV<lambda_d80eeec6fff315bfe5c115232f3240e3>@@AEAV<lambda_6e4b09c48022b2350581041d5f6b0c4c>@@$$QEAV<lambda_2358e3775559c9db80273638284d5e45>@@@Z 0000000180045ec4     libucrt:exit.obj
 0004:00000ed0       $pdata$??R<lambda_6e4b09c48022b2350581041d5f6b0c4c>@@QEBA@XZ 0000000180045ed0     libucrt:exit.obj
 0004:00000edc       $pdata$?common_exit@@YAXHW4_crt_exit_cleanup_mode@@W4_crt_exit_return_mode@@@Z 0000000180045edc     libucrt:exit.obj
 0004:00000ee8       $pdata$?exit_or_terminate_process@@YAXI@Z 0000000180045ee8     libucrt:exit.obj
 0004:00000ef4       $pdata$?try_cor_exit_process@@YAXI@Z 0000000180045ef4     libucrt:exit.obj
 0004:00000f00       $pdata$??$parse_command_line@D@@YAXPEADPEAPEAD0PEA_K2@Z 0000000180045f00     libucrt:argv_parsing.obj
 0004:00000f0c       $pdata$__acrt_allocate_buffer_for_argv 0000000180045f0c     libucrt:argv_parsing.obj
 0004:00000f18       $pdata$_configure_narrow_argv 0000000180045f18     libucrt:argv_parsing.obj
 0004:00000f24       $pdata$??$common_initialize_environment_nolock@D@@YAHXZ 0000000180045f24     libucrt:environment_initialization.obj
 0004:00000f30       $pdata$??$create_environment@D@@YAQEAPEADQEAD@Z 0000000180045f30     libucrt:environment_initialization.obj
 0004:00000f3c       $pdata$??$free_environment@D@@YAXQEAPEAD@Z 0000000180045f3c     libucrt:environment_initialization.obj
 0004:00000f3c       $pdata$??$free_environment@_W@@YAXQEAPEA_W@Z 0000000180045f3c     libucrt:environment_initialization.obj
 0004:00000f48       $pdata$??$uninitialize_environment_internal@D@@YAXAEAPEAPEAD@Z 0000000180045f48     libucrt:environment_initialization.obj
 0004:00000f54       $pdata$??$uninitialize_environment_internal@_W@@YAXAEAPEAPEA_W@Z 0000000180045f54     libucrt:environment_initialization.obj
 0004:00000f60       $pdata$__dcrt_uninitialize_environments_nolock 0000000180045f60     libucrt:environment_initialization.obj
 0004:00000f6c       $pdata$??$?RV<lambda_7777bce6b2f8c936911f934f8298dc43>@@AEAV<lambda_f03950bc5685219e0bcd2087efbe011e>@@V<lambda_3883c3dff614d5e0c5f61bb1ac94921c>@@@?$__crt_seh_guarded_call@H@@QEAAH$$QEAV<lambda_7777bce6b2f8c936911f934f8298dc43>@@AEAV<lambda_f03950bc5685219e0bcd2087efbe011e>@@$$QEAV<lambda_3883c3dff614d5e0c5f61bb1ac94921c>@@@Z 0000000180045f6c     libucrt:onexit.obj
 0004:00000f78       $pdata$??R<lambda_f03950bc5685219e0bcd2087efbe011e>@@QEBAHXZ 0000000180045f78     libucrt:onexit.obj
 0004:00000f84       $pdata$_execute_onexit_table 0000000180045f84     libucrt:onexit.obj
 0004:00000f90       $pdata$initialize_c        0000000180045f90     libucrt:initialization.obj
 0004:00000f9c       $pdata$uninitialize_environment 0000000180045f9c     libucrt:initialization.obj
 0004:00000fa8       $pdata$initialize_pointers 0000000180045fa8     libucrt:initialization.obj
 0004:00000fb4       $pdata$uninitialize_allocated_memory 0000000180045fb4     libucrt:initialization.obj
 0004:00000fc0       $pdata$uninitialize_allocated_io_buffers 0000000180045fc0     libucrt:initialization.obj
 0004:00000fcc       $pdata$__acrt_thread_attach 0000000180045fcc     libucrt:initialization.obj
 0004:00000fd8       $pdata$__acrt_thread_detach 0000000180045fd8     libucrt:initialization.obj
 0004:00000fe4       $pdata$__acrt_uninitialize 0000000180045fe4     libucrt:initialization.obj
 0004:00000ff0       $pdata$__acrt_uninitialize_critical 0000000180045ff0     libucrt:initialization.obj
 0004:00000ffc       $pdata$terminate           0000000180045ffc     libucrt:terminate.obj
 0004:00001008       $pdata$abort               0000000180046008     libucrt:abort.obj
 0004:00001014       $pdata$strcpy_s            0000000180046014     libucrt:strcpy_s.obj
 0004:00001020       $pdata$??$?RV<lambda_0d412022a4b28cc8a401ea49574e8ae6>@@AEAV<lambda_a775ed57af18ba8e4d5dc780aa9068fe>@@V<lambda_975a71a6baa488a08f4e15f6b0339b9e>@@@?$__crt_seh_guarded_call@H@@QEAAH$$QEAV<lambda_0d412022a4b28cc8a401ea49574e8ae6>@@AEAV<lambda_a775ed57af18ba8e4d5dc780aa9068fe>@@$$QEAV<lambda_975a71a6baa488a08f4e15f6b0339b9e>@@@Z 0000000180046020     libucrt:output.obj
 0004:0000102c       $pdata$??$common_vsprintf@Vstandard_base@__crt_stdio_output@@_W@@YAH_KQEA_W0QEB_WQEAU__crt_locale_pointers@@QEAD@Z 000000018004602c     libucrt:output.obj
 0004:00001038       $pdata$??$ensure_buffer_is_big_enough@D@formatting_buffer@__crt_stdio_output@@QEAA_N_K@Z 0000000180046038     libucrt:output.obj
 0004:00001044       $pdata$??$ensure_buffer_is_big_enough@_W@formatting_buffer@__crt_stdio_output@@QEAA_N_K@Z 0000000180046044     libucrt:output.obj
 0004:00001050       $pdata$??$type_case_integer_parse_into_buffer@I@?$output_processor@_WV?$string_output_adapter@_W@__crt_stdio_output@@V?$standard_base@_WV?$string_output_adapter@_W@__crt_stdio_output@@@2@@__crt_stdio_output@@AEAAXII_N@Z 0000000180046050     libucrt:output.obj
 0004:00001050       $pdata$??$type_case_integer_parse_into_buffer@I@?$output_processor@_WV?$stream_output_adapter@_W@__crt_stdio_output@@V?$standard_base@_WV?$stream_output_adapter@_W@__crt_stdio_output@@@2@@__crt_stdio_output@@AEAAXII_N@Z 0000000180046050     libucrt:output.obj
 0004:0000105c       $pdata$??$type_case_integer_parse_into_buffer@_K@?$output_processor@_WV?$string_output_adapter@_W@__crt_stdio_output@@V?$standard_base@_WV?$string_output_adapter@_W@__crt_stdio_output@@@2@@__crt_stdio_output@@AEAAX_KI_N@Z 000000018004605c     libucrt:output.obj
 0004:0000105c       $pdata$??$type_case_integer_parse_into_buffer@_K@?$output_processor@_WV?$stream_output_adapter@_W@__crt_stdio_output@@V?$standard_base@_WV?$stream_output_adapter@_W@__crt_stdio_output@@@2@@__crt_stdio_output@@AEAAX_KI_N@Z 000000018004605c     libucrt:output.obj
 0004:00001068       $pdata$??$write_multiple_characters@V?$stream_output_adapter@_W@__crt_stdio_output@@D@__crt_stdio_output@@YAXAEBV?$stream_output_adapter@_W@0@DHQEAH@Z 0000000180046068     libucrt:output.obj
 0004:00001074       $pdata$??$write_multiple_characters@V?$string_output_adapter@_W@__crt_stdio_output@@D@__crt_stdio_output@@YAXAEBV?$string_output_adapter@_W@0@DHQEAH@Z 0000000180046074     libucrt:output.obj
 0004:00001080       $pdata$??R<lambda_a775ed57af18ba8e4d5dc780aa9068fe>@@QEBAHXZ 0000000180046080     libucrt:output.obj
 0004:0000108c       $pdata$?force_decimal_point@__crt_stdio_output@@YAXPEADQEAU__crt_locale_pointers@@@Z 000000018004608c     libucrt:output.obj
 0004:00001098       $pdata$?parse_int_from_format_string@?$output_processor@_WV?$string_output_adapter@_W@__crt_stdio_output@@V?$standard_base@_WV?$string_output_adapter@_W@__crt_stdio_output@@@2@@__crt_stdio_output@@AEAA_NQEAH@Z 0000000180046098     libucrt:output.obj
 0004:00001098       $pdata$?parse_int_from_format_string@?$output_processor@_WV?$stream_output_adapter@_W@__crt_stdio_output@@V?$standard_base@_WV?$stream_output_adapter@_W@__crt_stdio_output@@@2@@__crt_stdio_output@@AEAA_NQEAH@Z 0000000180046098     libucrt:output.obj
 0004:000010a4       $pdata$?process@?$output_processor@_WV?$stream_output_adapter@_W@__crt_stdio_output@@V?$standard_base@_WV?$stream_output_adapter@_W@__crt_stdio_output@@@2@@__crt_stdio_output@@QEAAHXZ 00000001800460a4     libucrt:output.obj
 0004:000010b0       $pdata$?process@?$output_processor@_WV?$string_output_adapter@_W@__crt_stdio_output@@V?$standard_base@_WV?$string_output_adapter@_W@__crt_stdio_output@@@2@@__crt_stdio_output@@QEAAHXZ 00000001800460b0     libucrt:output.obj
 0004:000010bc       $pdata$?state_case_size@?$output_processor@_WV?$stream_output_adapter@_W@__crt_stdio_output@@V?$standard_base@_WV?$stream_output_adapter@_W@__crt_stdio_output@@@2@@__crt_stdio_output@@AEAA_NXZ 00000001800460bc     libucrt:output.obj
 0004:000010c8       $pdata$?state_case_size@?$output_processor@_WV?$string_output_adapter@_W@__crt_stdio_output@@V?$standard_base@_WV?$string_output_adapter@_W@__crt_stdio_output@@@2@@__crt_stdio_output@@AEAA_NXZ 00000001800460c8     libucrt:output.obj
 0004:000010d4       $pdata$?state_case_type@?$output_processor@_WV?$stream_output_adapter@_W@__crt_stdio_output@@V?$standard_base@_WV?$stream_output_adapter@_W@__crt_stdio_output@@@2@@__crt_stdio_output@@AEAA_NXZ 00000001800460d4     libucrt:output.obj
 0004:000010e0       $pdata$?state_case_type@?$output_processor@_WV?$string_output_adapter@_W@__crt_stdio_output@@V?$standard_base@_WV?$string_output_adapter@_W@__crt_stdio_output@@@2@@__crt_stdio_output@@AEAA_NXZ 00000001800460e0     libucrt:output.obj
 0004:000010ec       $pdata$?type_case_Z@?$output_processor@_WV?$string_output_adapter@_W@__crt_stdio_output@@V?$standard_base@_WV?$string_output_adapter@_W@__crt_stdio_output@@@2@@__crt_stdio_output@@AEAA_NXZ 00000001800460ec     libucrt:output.obj
 0004:000010ec       $pdata$?type_case_Z@?$output_processor@_WV?$stream_output_adapter@_W@__crt_stdio_output@@V?$standard_base@_WV?$stream_output_adapter@_W@__crt_stdio_output@@@2@@__crt_stdio_output@@AEAA_NXZ 00000001800460ec     libucrt:output.obj
 0004:000010f8       $pdata$?type_case_a@?$output_processor@_WV?$stream_output_adapter@_W@__crt_stdio_output@@V?$standard_base@_WV?$stream_output_adapter@_W@__crt_stdio_output@@@2@@__crt_stdio_output@@AEAA_NXZ 00000001800460f8     libucrt:output.obj
 0004:000010f8       $pdata$?type_case_a@?$output_processor@_WV?$string_output_adapter@_W@__crt_stdio_output@@V?$standard_base@_WV?$string_output_adapter@_W@__crt_stdio_output@@@2@@__crt_stdio_output@@AEAA_NXZ 00000001800460f8     libucrt:output.obj
 0004:00001104       $pdata$?type_case_c_tchar@?$output_processor@_WV?$stream_output_adapter@_W@__crt_stdio_output@@V?$standard_base@_WV?$stream_output_adapter@_W@__crt_stdio_output@@@2@@__crt_stdio_output@@AEAA_N_W@Z 0000000180046104     libucrt:output.obj
 0004:00001104       $pdata$?type_case_c_tchar@?$output_processor@_WV?$string_output_adapter@_W@__crt_stdio_output@@V?$standard_base@_WV?$string_output_adapter@_W@__crt_stdio_output@@@2@@__crt_stdio_output@@AEAA_N_W@Z 0000000180046104     libucrt:output.obj
 0004:00001110       $pdata$?type_case_integer@?$output_processor@_WV?$string_output_adapter@_W@__crt_stdio_output@@V?$standard_base@_WV?$string_output_adapter@_W@__crt_stdio_output@@@2@@__crt_stdio_output@@AEAA_NI_N@Z 0000000180046110     libucrt:output.obj
 0004:00001110       $pdata$?type_case_integer@?$output_processor@_WV?$stream_output_adapter@_W@__crt_stdio_output@@V?$standard_base@_WV?$stream_output_adapter@_W@__crt_stdio_output@@@2@@__crt_stdio_output@@AEAA_NI_N@Z 0000000180046110     libucrt:output.obj
 0004:0000111c       $pdata$?type_case_n@?$output_processor@_WV?$string_output_adapter@_W@__crt_stdio_output@@V?$standard_base@_WV?$string_output_adapter@_W@__crt_stdio_output@@@2@@__crt_stdio_output@@AEAA_NXZ 000000018004611c     libucrt:output.obj
 0004:0000111c       $pdata$?type_case_n@?$output_processor@_WV?$stream_output_adapter@_W@__crt_stdio_output@@V?$standard_base@_WV?$stream_output_adapter@_W@__crt_stdio_output@@@2@@__crt_stdio_output@@AEAA_NXZ 000000018004611c     libucrt:output.obj
 0004:00001128       $pdata$?type_case_s@?$output_processor@_WV?$string_output_adapter@_W@__crt_stdio_output@@V?$standard_base@_WV?$string_output_adapter@_W@__crt_stdio_output@@@2@@__crt_stdio_output@@AEAA_NXZ 0000000180046128     libucrt:output.obj
 0004:00001128       $pdata$?type_case_s@?$output_processor@_WV?$stream_output_adapter@_W@__crt_stdio_output@@V?$standard_base@_WV?$stream_output_adapter@_W@__crt_stdio_output@@@2@@__crt_stdio_output@@AEAA_NXZ 0000000180046128     libucrt:output.obj
 0004:00001134       $pdata$?write_stored_string_tchar@?$output_processor@_WV?$stream_output_adapter@_W@__crt_stdio_output@@V?$standard_base@_WV?$stream_output_adapter@_W@__crt_stdio_output@@@2@@__crt_stdio_output@@AEAA_N_W@Z 0000000180046134     libucrt:output.obj
 0004:00001140       $pdata$?write_stored_string_tchar@?$output_processor@_WV?$string_output_adapter@_W@__crt_stdio_output@@V?$standard_base@_WV?$string_output_adapter@_W@__crt_stdio_output@@@2@@__crt_stdio_output@@AEAA_N_W@Z 0000000180046140     libucrt:output.obj
 0004:0000114c       $pdata$?write_string@?$string_output_adapter@_W@__crt_stdio_output@@QEBAXQEB_WHQEAHAEAV__crt_deferred_errno_cache@@@Z 000000018004614c     libucrt:output.obj
 0004:00001158       $pdata$?write_string_impl@?$output_adapter_common@_WV?$stream_output_adapter@_W@__crt_stdio_output@@@__crt_stdio_output@@IEBAXQEB_WHQEAHAEAV__crt_deferred_errno_cache@@@Z 0000000180046158     libucrt:output.obj
 0004:00001164       $pdata$__stdio_common_vfwprintf 0000000180046164     libucrt:output.obj
 0004:0000117c       $pdata$_free_base          000000018004617c     libucrt:free_base.obj
 0004:00001188       $pdata$__acrt_errno_map_os_error 0000000180046188     libucrt:errno.obj
 0004:00001194       $pdata$__doserrno          0000000180046194     libucrt:errno.obj
 0004:000011a0       $pdata$_errno              00000001800461a0     libucrt:errno.obj
 0004:000011ac       $pdata$__pctype_func       00000001800461ac     libucrt:ctype.obj
 0004:000011b8       $pdata$iswctype            00000001800461b8     libucrt:iswctype.obj
 0004:000011c4       $pdata$_isctype_l          00000001800461c4     libucrt:isctype.obj
 0004:000011d0       $pdata$??$?RV<lambda_0ae27a3a962d80f24befdcbee591983d>@@AEAV<lambda_8d0ee55de4b1038c4002e0adecdf1839>@@V<lambda_dc504788e8f1664fe9b84e20bfb512f2>@@@?$__crt_seh_guarded_call@X@@QEAAX$$QEAV<lambda_0ae27a3a962d80f24befdcbee591983d>@@AEAV<lambda_8d0ee55de4b1038c4002e0adecdf1839>@@$$QEAV<lambda_dc504788e8f1664fe9b84e20bfb512f2>@@@Z 00000001800461d0     libucrt:per_thread_data.obj
 0004:000011dc       $pdata$??$?RV<lambda_2d41944a1d46af3157314b8a01080d33>@@AEAV<lambda_8f455de75cd7d7f24b4096f044d8b9e6>@@V<lambda_aa500f224e6afead328df44964fe2772>@@@?$__crt_seh_guarded_call@X@@QEAAX$$QEAV<lambda_2d41944a1d46af3157314b8a01080d33>@@AEAV<lambda_8f455de75cd7d7f24b4096f044d8b9e6>@@$$QEAV<lambda_aa500f224e6afead328df44964fe2772>@@@Z 00000001800461dc     libucrt:per_thread_data.obj
 0004:000011e8       $pdata$??$?RV<lambda_aa87e3671a710a21b5dc78c0bdf72e11>@@AEAV<lambda_92619d2358a28f41a33ba319515a20b9>@@V<lambda_6992ecaafeb10aed2b74cb1fae11a551>@@@?$__crt_seh_guarded_call@X@@QEAAX$$QEAV<lambda_aa87e3671a710a21b5dc78c0bdf72e11>@@AEAV<lambda_92619d2358a28f41a33ba319515a20b9>@@$$QEAV<lambda_6992ecaafeb10aed2b74cb1fae11a551>@@@Z 00000001800461e8     libucrt:per_thread_data.obj
 0004:000011f4       $pdata$??$?RV<lambda_f2e299630e499de9f9a165e60fcd3db5>@@AEAV<lambda_2ae9d31cdba2644fcbeaf08da7c24588>@@V<lambda_40d01ff24d0e7b3814fdbdcee8eab3c7>@@@?$__crt_seh_guarded_call@X@@QEAAX$$QEAV<lambda_f2e299630e499de9f9a165e60fcd3db5>@@AEAV<lambda_2ae9d31cdba2644fcbeaf08da7c24588>@@$$QEAV<lambda_40d01ff24d0e7b3814fdbdcee8eab3c7>@@@Z 00000001800461f4     libucrt:per_thread_data.obj
 0004:00001200       $pdata$?construct_ptd_array@@YAXQEAU__acrt_ptd@@@Z 0000000180046200     libucrt:per_thread_data.obj
 0004:0000120c       $pdata$?destroy_fls@@YAXPEAX@Z 000000018004620c     libucrt:per_thread_data.obj
 0004:00001218       $pdata$?destroy_ptd_array@@YAXQEAU__acrt_ptd@@@Z 0000000180046218     libucrt:per_thread_data.obj
 0004:00001224       $pdata$?replace_current_thread_locale_nolock@@YAXQEAU__acrt_ptd@@QEAU__crt_locale_data@@@Z 0000000180046224     libucrt:per_thread_data.obj
 0004:00001230       $pdata$__acrt_freeptd      0000000180046230     libucrt:per_thread_data.obj
 0004:0000123c       $pdata$__acrt_getptd       000000018004623c     libucrt:per_thread_data.obj
 0004:00001248       $pdata$__acrt_getptd_head  0000000180046248     libucrt:per_thread_data.obj
 0004:00001254       $pdata$__acrt_getptd_noexit 0000000180046254     libucrt:per_thread_data.obj
 0004:00001260       $pdata$__acrt_initialize_ptd 0000000180046260     libucrt:per_thread_data.obj
 0004:0000126c       $pdata$__acrt_uninitialize_ptd 000000018004626c     libucrt:per_thread_data.obj
 0004:00001278       $pdata$__acrt_update_locale_info 0000000180046278     libucrt:locale_update.obj
 0004:00001284       $pdata$__acrt_update_multibyte_info 0000000180046284     libucrt:locale_update.obj
 0004:00001290       $pdata$??$?RV<lambda_410d79af7f07d98d83a3f525b3859a53>@@AEAV<lambda_3e16ef9562a7dcce91392c22ab16ea36>@@V<lambda_38119f0e861e05405d8a144b9b982f0a>@@@?$__crt_seh_guarded_call@X@@QEAAX$$QEAV<lambda_410d79af7f07d98d83a3f525b3859a53>@@AEAV<lambda_3e16ef9562a7dcce91392c22ab16ea36>@@$$QEAV<lambda_38119f0e861e05405d8a144b9b982f0a>@@@Z 0000000180046290     libucrt:wsetlocale.obj
 0004:0000129c       $pdata$__acrt_uninitialize_locale 000000018004629c     libucrt:wsetlocale.obj
 0004:000012a8       $pdata$??$common_xtox@K_W@@YAHKQEA_W_KI_N@Z 00000001800462a8     libucrt:xtoa.obj
 0004:000012b4       $pdata$??$common_xtox_s@K_W@@YAHKQEA_W_KI_N@Z 00000001800462b4     libucrt:xtoa.obj
 0004:000012c0       $pdata$_itow_s             00000001800462c0     libucrt:xtoa.obj
 0004:000012cc       $pdata$_set_error_mode     00000001800462cc     libucrt:set_error_mode.obj
 0004:000012d8       $pdata$wcscat_s            00000001800462d8     libucrt:wcscat_s.obj
 0004:000012e4       $pdata$wcscpy_s            00000001800462e4     libucrt:wcscpy_s.obj
 0004:000012f0       $pdata$wcsncat_s           00000001800462f0     libucrt:wcsncat_s.obj
 0004:000012fc       $pdata$__acrt_GetModuleFileNameA 00000001800462fc     libucrt:getmodulefilenamea.obj
 0004:00001308       $pdata$__acrt_show_wide_message_box 0000000180046308     libucrt:crtmbox.obj
 0004:00001314       $pdata$__acrt_initialize_stdio 0000000180046314     libucrt:_file.obj
 0004:00001320       $pdata$__acrt_uninitialize_stdio 0000000180046320     libucrt:_file.obj
 0004:0000132c       $pdata$??$?RV<lambda_842d9ff0dc9ef11c61343bbaebe7f885>@@AEAV<lambda_c5860995281e5c4ce005b3de8f5874ee>@@V<lambda_d90129c13df834fdcbf8d2b88dafcf2d>@@@?$__crt_seh_guarded_call@X@@QEAAX$$QEAV<lambda_842d9ff0dc9ef11c61343bbaebe7f885>@@AEAV<lambda_c5860995281e5c4ce005b3de8f5874ee>@@$$QEAV<lambda_d90129c13df834fdcbf8d2b88dafcf2d>@@@Z 000000018004632c     libucrt:fflush.obj
 0004:00001338       $pdata$??$?RV<lambda_886d6c58226a84441f68b9f2b8217b83>@@AEAV<lambda_ab61a845afdef5b7c387490eaf3616ee>@@V<lambda_f7f22ab5edc0698d5f6905b0d3f44752>@@@?$__crt_seh_guarded_call@X@@QEAAX$$QEAV<lambda_886d6c58226a84441f68b9f2b8217b83>@@AEAV<lambda_ab61a845afdef5b7c387490eaf3616ee>@@$$QEAV<lambda_f7f22ab5edc0698d5f6905b0d3f44752>@@@Z 0000000180046338     libucrt:fflush.obj
 0004:00001344       $pdata$??$?RV<lambda_c376a267cfb53b6959b3b692ec76b120>@@AEAV<lambda_9a32fed5bf61b6b509b2d3f6003082a1>@@V<lambda_572fbb9fa0ab338edf41edfd4b5fcc8d>@@@?$__crt_seh_guarded_call@H@@QEAAH$$QEAV<lambda_c376a267cfb53b6959b3b692ec76b120>@@AEAV<lambda_9a32fed5bf61b6b509b2d3f6003082a1>@@$$QEAV<lambda_572fbb9fa0ab338edf41edfd4b5fcc8d>@@@Z 0000000180046344     libucrt:fflush.obj
 0004:00001350       $pdata$?common_flush_all@@YAH_N@Z 0000000180046350     libucrt:fflush.obj
 0004:0000135c       $pdata$__acrt_stdio_flush_nolock 000000018004635c     libucrt:fflush.obj
 0004:00001368       $pdata$_fflush_nolock      0000000180046368     libucrt:fflush.obj
 0004:00001374       $pdata$fflush              0000000180046374     libucrt:fflush.obj
 0004:00001380       $pdata$??$?RV<lambda_84ec643ea9557e2f7dc01bb0e9624395>@@AEAV<lambda_ca71763b3c0644891230e4f79ea54fa6>@@V<lambda_439a761618c59b0600e24586724d733b>@@@?$__crt_seh_guarded_call@H@@QEAAH$$QEAV<lambda_84ec643ea9557e2f7dc01bb0e9624395>@@AEAV<lambda_ca71763b3c0644891230e4f79ea54fa6>@@$$QEAV<lambda_439a761618c59b0600e24586724d733b>@@@Z 0000000180046380     libucrt:setvbuf.obj
 0004:0000138c       $pdata$??R<lambda_ca71763b3c0644891230e4f79ea54fa6>@@QEBAHXZ 000000018004638c     libucrt:setvbuf.obj
 0004:00001398       $pdata$setvbuf             0000000180046398     libucrt:setvbuf.obj
 0004:000013a4       $pdata$??$?RV<lambda_450d765d439847d4c735a33c368b5fc0>@@AEAV<lambda_44731a7d0e6d81c3e6aa82d741081786>@@V<lambda_601a2a7da3b7a96e9554ac7215c4b07c>@@@?$__crt_seh_guarded_call@P6AXH@Z@@QEAAP6AXH@Z$$QEAV<lambda_450d765d439847d4c735a33c368b5fc0>@@AEAV<lambda_44731a7d0e6d81c3e6aa82d741081786>@@$$QEAV<lambda_601a2a7da3b7a96e9554ac7215c4b07c>@@@Z 00000001800463a4     libucrt:signal.obj
 0004:000013b0       $pdata$__acrt_get_sigabrt_handler 00000001800463b0     libucrt:signal.obj
 0004:000013bc       $pdata$raise               00000001800463bc     libucrt:signal.obj
 0004:000013c8       $pdata$_malloc_base        00000001800463c8     libucrt:malloc_base.obj
 0004:000013d4       $pdata$?internal_isupper_l@@YA_NHQEAU__crt_locale_pointers@@@Z 00000001800463d4     libucrt:tolower_toupper.obj
 0004:000013e0       $pdata$_tolower_l          00000001800463e0     libucrt:tolower_toupper.obj
 0004:000013ec       $pdata$tolower             00000001800463ec     libucrt:tolower_toupper.obj
 0004:000013f8       $pdata$__acrt_initialize_locks 00000001800463f8     libucrt:locks.obj
 0004:00001404       $pdata$__acrt_uninitialize_locks 0000000180046404     libucrt:locks.obj
 0004:00001410       $pdata$__acrt_get_developer_information_policy 0000000180046410     libucrt:win_policies.obj
 0004:0000141c       $pdata$__acrt_get_process_end_policy 000000018004641c     libucrt:win_policies.obj
 0004:00001428       $pdata$__acrt_get_windowing_model_policy 0000000180046428     libucrt:win_policies.obj
 0004:00001434       $pdata$_calloc_base        0000000180046434     libucrt:calloc_base.obj
 0004:00001440       $pdata$??$common_expand_argv_wildcards@D@@YAHQEAPEADQEAPEAPEAD@Z 0000000180046440     libucrt:argv_wildcards.obj
 0004:0000144c       $pdata$??$copy_and_add_argument_to_buffer@D@@YAHQEBD0_KAEAV?$argument_list@D@?A0x5f5c8891@@@Z 000000018004644c     libucrt:argv_wildcards.obj
 0004:00001458       $pdata$??$expand_argument_wildcards@D@@YAHQEAD0AEAV?$argument_list@D@?A0x5f5c8891@@@Z 0000000180046458     libucrt:argv_wildcards.obj
 0004:00001464       $pdata$??$?RV<lambda_efdfa57d1f175319df784efa44bb7b81>@@AEAV<lambda_5f0a4c1567f8adc6734073e5d1e1b35c>@@V<lambda_2e8a7d3640ea6ccb4c2413664c2db6fd>@@@?$__crt_seh_guarded_call@X@@QEAAX$$QEAV<lambda_efdfa57d1f175319df784efa44bb7b81>@@AEAV<lambda_5f0a4c1567f8adc6734073e5d1e1b35c>@@$$QEAV<lambda_2e8a7d3640ea6ccb4c2413664c2db6fd>@@@Z 0000000180046464     libucrt:mbctype.obj
 0004:00001470       $pdata$?getSystemCP@@YAHH@Z 0000000180046470     libucrt:mbctype.obj
 0004:0000147c       $pdata$?setSBCS@@YAXPEAU__crt_multibyte_data@@@Z 000000018004647c     libucrt:mbctype.obj
 0004:00001488       $pdata$?setSBUpLow@@YAXPEAU__crt_multibyte_data@@@Z 0000000180046488     libucrt:mbctype.obj
 0004:00001494       $pdata$?setmbcp_internal@@YAHH_NQEAU__acrt_ptd@@QEAPEAU__crt_multibyte_data@@@Z 0000000180046494     libucrt:mbctype.obj
 0004:000014a0       $pdata$?update_thread_multibyte_data_internal@@YAPEAU__crt_multibyte_data@@QEAU__acrt_ptd@@QEAPEAU1@@Z 00000001800464a0     libucrt:mbctype.obj
 0004:000014ac       $pdata$__acrt_initialize_multibyte 00000001800464ac     libucrt:mbctype.obj
 0004:000014b8       $pdata$__acrt_update_thread_multibyte_data 00000001800464b8     libucrt:mbctype.obj
 0004:000014c4       $pdata$_setmbcp_nolock     00000001800464c4     libucrt:mbctype.obj
 0004:000014d0       $pdata$?x_ismbbtype_l@@YAHPEAU__crt_locale_pointers@@IHH@Z 00000001800464d0     libucrt:ismbbyte.obj
 0004:000014dc       $pdata$__acrt_initialize_command_line 00000001800464dc     libucrt:argv_data.obj
 0004:000014e8       $pdata$__acrt_WideCharToMultiByte 00000001800464e8     libucrt:widechartomultibyte.obj
 0004:000014f4       $pdata$__dcrt_get_narrow_environment_from_os 00000001800464f4     libucrt:get_environment_from_os.obj
 0004:00001500       $pdata$_recalloc_base      0000000180046500     libucrt:recalloc.obj
 0004:0000150c       $pdata$?try_get_function@@YAPEAXW4function_id@?A0x391cf84c@@QEBDQEBW4module_id@2@2@Z 000000018004650c     libucrt:winapi_thunks.obj
 0004:00001518       $pdata$__acrt_AppPolicyGetProcessTerminationMethodInternal 0000000180046518     libucrt:winapi_thunks.obj
 0004:00001524       $pdata$__acrt_AppPolicyGetShowDeveloperDiagnosticInternal 0000000180046524     libucrt:winapi_thunks.obj
 0004:00001530       $pdata$__acrt_AppPolicyGetWindowingModelInternal 0000000180046530     libucrt:winapi_thunks.obj
 0004:0000153c       $pdata$__acrt_FlsAlloc     000000018004653c     libucrt:winapi_thunks.obj
 0004:00001548       $pdata$__acrt_FlsFree      0000000180046548     libucrt:winapi_thunks.obj
 0004:00001554       $pdata$__acrt_FlsGetValue  0000000180046554     libucrt:winapi_thunks.obj
 0004:00001560       $pdata$__acrt_FlsSetValue  0000000180046560     libucrt:winapi_thunks.obj
 0004:0000156c       $pdata$__acrt_InitializeCriticalSectionEx 000000018004656c     libucrt:winapi_thunks.obj
 0004:00001578       $pdata$__acrt_LCMapStringEx 0000000180046578     libucrt:winapi_thunks.obj
 0004:00001584       $pdata$__acrt_LocaleNameToLCID 0000000180046584     libucrt:winapi_thunks.obj
 0004:00001590       $pdata$__acrt_MessageBoxW  0000000180046590     libucrt:winapi_thunks.obj
 0004:0000159c       $pdata$__acrt_can_show_message_box 000000018004659c     libucrt:winapi_thunks.obj
 0004:000015a8       $pdata$__acrt_get_parent_window 00000001800465a8     libucrt:winapi_thunks.obj
 0004:000015b4       $pdata$__acrt_initialize_winapi_thunks 00000001800465b4     libucrt:winapi_thunks.obj
 0004:000015c0       $pdata$__acrt_is_interactive 00000001800465c0     libucrt:winapi_thunks.obj
 0004:000015cc       $pdata$__acrt_uninitialize_winapi_thunks 00000001800465cc     libucrt:winapi_thunks.obj
 0004:000015d8       $pdata$__acrt_initialize_heap 00000001800465d8     libucrt:heap_handle.obj
 0004:000015e4       $pdata$?initialize_inherited_file_handles_nolock@@YAXXZ 00000001800465e4     libucrt:ioinit.obj
 0004:000015f0       $pdata$?initialize_stdio_handles_nolock@@YAXXZ 00000001800465f0     libucrt:ioinit.obj
 0004:000015fc       $pdata$__acrt_initialize_lowio 00000001800465fc     libucrt:ioinit.obj
 0004:00001608       $pdata$__acrt_uninitialize_lowio 0000000180046608     libucrt:ioinit.obj
 0004:00001614       $pdata$__acrt_execute_initializers 0000000180046614     libucrt:shared_initialization.obj
 0004:00001620       $pdata$__acrt_execute_uninitializers 0000000180046620     libucrt:shared_initialization.obj
 0004:0000162c       $pdata$__acrt_stdio_begin_temporary_buffering_nolock 000000018004662c     libucrt:_sftbuf.obj
 0004:00001638       $pdata$__acrt_stdio_end_temporary_buffering_nolock 0000000180046638     libucrt:_sftbuf.obj
 0004:00001644       $pdata$isdigit             0000000180046644     libucrt:_ctype.obj
 0004:00001650       $pdata$wcstol              0000000180046650     libucrt:strtox.obj
 0004:0000165c       $pdata$_mbtowc_l           000000018004665c     libucrt:mbtowc.obj
 0004:00001668       $pdata$_wctomb_s_l         0000000180046668     libucrt:wctomb.obj
 0004:00001674       $pdata$wctomb_s            0000000180046674     libucrt:wctomb.obj
 0004:00001680       $pdata$?fp_format_a@@YAHQEBNPEAD_KQEAD2H_NIQEAU__crt_locale_pointers@@@Z 0000000180046680     libucrt:cvt.obj
 0004:0000168c       $pdata$?fp_format_e@@YAHQEBNQEAD_K12H_NIQEAU__crt_locale_pointers@@@Z 000000018004668c     libucrt:cvt.obj
 0004:00001698       $pdata$?fp_format_e_internal@@YAHQEAD_KH_NIQEAU_strflt@@2QEAU__crt_locale_pointers@@@Z 0000000180046698     libucrt:cvt.obj
 0004:000016a4       $pdata$?fp_format_f_internal@@YAHQEAD_KHQEAU_strflt@@_NQEAU__crt_locale_pointers@@@Z 00000001800466a4     libucrt:cvt.obj
 0004:000016b0       $pdata$?fp_format_g@@YAHQEBNQEAD_K12H_NIQEAU__crt_locale_pointers@@@Z 00000001800466b0     libucrt:cvt.obj
 0004:000016bc       $pdata$?fp_format_nan_or_infinity@@YAHW4__acrt_fp_class@@_NPEAD_K1@Z 00000001800466bc     libucrt:cvt.obj
 0004:000016c8       $pdata$__acrt_fp_format    00000001800466c8     libucrt:cvt.obj
 0004:000016d4       $pdata$_fputwc_nolock      00000001800466d4     libucrt:fputwc.obj
 0004:000016e0       $pdata$_fileno             00000001800466e0     libucrt:fileno.obj
 0004:000016ec       $pdata$_isleadbyte_l       00000001800466ec     libucrt:_wctype.obj
 0004:000016f8       $pdata$__acrt_GetStringTypeA 00000001800466f8     libucrt:getstringtypea.obj
 0004:00001704       $pdata$__acrt_free_locale  0000000180046704     libucrt:locale_refcounting.obj
 0004:00001710       $pdata$__acrt_locale_free_lc_time_if_unreferenced 0000000180046710     libucrt:locale_refcounting.obj
 0004:0000171c       $pdata$__acrt_release_locale_ref 000000018004671c     libucrt:locale_refcounting.obj
 0004:00001728       $pdata$__acrt_update_thread_locale_data 0000000180046728     libucrt:locale_refcounting.obj
 0004:00001734       $pdata$_updatetlocinfoEx_nolock 0000000180046734     libucrt:locale_refcounting.obj
 0004:00001740       $pdata$__acrt_locale_free_monetary 0000000180046740     libucrt:initmon.obj
 0004:0000174c       $pdata$__acrt_locale_free_numeric 000000018004674c     libucrt:initnum.obj
 0004:00001758       $pdata$?free_crt_array_internal@@YAXQEAPEBX_K@Z 0000000180046758     libucrt:inittime.obj
 0004:00001764       $pdata$__acrt_locale_free_time 0000000180046764     libucrt:inittime.obj
 0004:00001770       $pdata$__acrt_fenv_set_control 0000000180046770     libucrt:_fenvutils.obj
 0004:0000177c       $pdata$?_mbstowcs_l_helper@@YA_KPEA_WPEBD_KPEAU__crt_locale_pointers@@@Z 000000018004677c     libucrt:mbstowcs.obj
 0004:00001788       $pdata$_fcloseall          0000000180046788     libucrt:closeall.obj
 0004:00001794       $pdata$__acrt_stdio_free_buffer_nolock 0000000180046794     libucrt:_freebuf.obj
 0004:000017a0       $pdata$??$?RV<lambda_a37b2b86f63e897a80ea819b0eb08c01>@@AEAV<lambda_38ce7e780aa69e748d6df282ebc68efe>@@V<lambda_99fb1378e971ab6e7edea83e3a7a83a2>@@@?$__crt_seh_guarded_call@H@@QEAAH$$QEAV<lambda_a37b2b86f63e897a80ea819b0eb08c01>@@AEAV<lambda_38ce7e780aa69e748d6df282ebc68efe>@@$$QEAV<lambda_99fb1378e971ab6e7edea83e3a7a83a2>@@@Z 00000001800467a0     libucrt:commit.obj
 0004:000017ac       $pdata$_commit             00000001800467ac     libucrt:commit.obj
 0004:000017b8       $pdata$?write_double_translated_ansi_nolock@@YA?AUwrite_result@?A0x17268360@@HQEBDI@Z 00000001800467b8     libucrt:write.obj
 0004:000017c4       $pdata$?write_text_ansi_nolock@@YA?AUwrite_result@?A0x17268360@@HQEBDI@Z 00000001800467c4     libucrt:write.obj
 0004:000017d0       $pdata$?write_text_utf16le_nolock@@YA?AUwrite_result@?A0x17268360@@HQEBDI@Z 00000001800467d0     libucrt:write.obj
 0004:000017dc       $pdata$?write_text_utf8_nolock@@YA?AUwrite_result@?A0x17268360@@HQEBDI@Z 00000001800467dc     libucrt:write.obj
 0004:000017e8       $pdata$_write              00000001800467e8     libucrt:write.obj
 0004:000017f4       $pdata$_write_nolock       00000001800467f4     libucrt:write.obj
 0004:00001800       $pdata$?__acrt_LCMapStringA_stat@@YAHPEAU__crt_locale_pointers@@PEB_WKPEBDHPEADHHH@Z 0000000180046800     libucrt:lcmapstringa.obj
 0004:0000180c       $pdata$__acrt_LCMapStringA 000000018004680c     libucrt:lcmapstringa.obj
 0004:00001818       $pdata$qsort               0000000180046818     libucrt:qsort.obj
 0004:00001824       $pdata$4$qsort             0000000180046824     libucrt:qsort.obj
 0004:00001830       $pdata$5$qsort             0000000180046830     libucrt:qsort.obj
 0004:0000183c       $pdata$strncpy_s           000000018004683c     libucrt:strncpy_s.obj
 0004:00001848       $pdata$fallbackMethod      0000000180046848     libucrt:strpbrk.obj
 0004:00001854       $pdata$strpbrk             0000000180046854     libucrt:strpbrk.obj
 0004:00001860       $pdata$??$__acrt_convert_wcs_mbs@D_W$$A6A_KPEA_WPEBD_KPEAU__crt_locale_pointers@@@ZU__crt_win32_buffer_internal_dynamic_resizing@@@@YAHQEBDAEAV?$__crt_win32_buffer@_WU__crt_win32_buffer_internal_dynamic_resizing@@@@A6A_KPEA_WPEBD_KPEAU__crt_locale_pointers@@@Z5@Z 0000000180046860     libucrt:findfirstfileexa.obj
 0004:0000186c       $pdata$__acrt_FindFirstFileExA 000000018004686c     libucrt:findfirstfileexa.obj
 0004:00001878       $pdata$??$__acrt_convert_wcs_mbs@_WD$$A6A_KPEADPEB_W_KPEAU__crt_locale_pointers@@@ZU__crt_win32_buffer_no_resizing@@@@YAHQEB_WAEAV?$__crt_win32_buffer@DU__crt_win32_buffer_no_resizing@@@@A6A_KPEADPEB_W_KPEAU__crt_locale_pointers@@@Z5@Z 0000000180046878     libucrt:findnextfilea.obj
 0004:00001884       $pdata$__acrt_FindNextFileA 0000000180046884     libucrt:findnextfilea.obj
 0004:00001890       $pdata$_mbsdec_l           0000000180046890     libucrt:mbsdec.obj
 0004:0000189c       $pdata$?initialize_multibyte@@YAHXZ 000000018004689c     libucrt:multibyte_initializer.obj
 0004:000018a8       $pdata$_msize_base         00000001800468a8     libucrt:msize.obj
 0004:000018b4       $pdata$_realloc_base       00000001800468b4     libucrt:realloc_base.obj
 0004:000018c0       $pdata$?GetTableIndexFromLocaleName@@YAHPEB_W@Z 00000001800468c0     libucrt:lcidtoname_downlevel.obj
 0004:000018cc       $pdata$__acrt_DownlevelLocaleNameToLCID 00000001800468cc     libucrt:lcidtoname_downlevel.obj
 0004:000018d8       $pdata$__acrt_lowio_create_handle_array 00000001800468d8     libucrt:osfinfo.obj
 0004:000018e4       $pdata$__acrt_lowio_destroy_handle_array 00000001800468e4     libucrt:osfinfo.obj
 0004:000018f0       $pdata$__acrt_lowio_ensure_fh_exists 00000001800468f0     libucrt:osfinfo.obj
 0004:000018fc       $pdata$_free_osfhnd        00000001800468fc     libucrt:osfinfo.obj
 0004:00001908       $pdata$_get_osfhandle      0000000180046908     libucrt:osfinfo.obj
 0004:00001914       $pdata$_isatty             0000000180046914     libucrt:isatty.obj
 0004:00001920       $pdata$?__mbrtowc_utf8@__crt_mbstring@@YA_KPEA_WPEBD_KPEAU_Mbstatet@@@Z 0000000180046920     libucrt:mbrtowc.obj
 0004:0000192c       $pdata$?__mbsrtowcs_utf8@__crt_mbstring@@YA_KPEA_WPEAPEBD_KPEAU_Mbstatet@@@Z 000000018004692c     libucrt:mbrtowc.obj
 0004:00001938       $pdata$__acrt_fp_strflt_to_string 0000000180046938     libucrt:_fptostr.obj
 0004:00001944       $pdata$?divide@__crt_strtox@@YA_KAEAUbig_integer@1@AEBU21@@Z 0000000180046944     libucrt:cfout.obj
 0004:00001950       $pdata$0$?divide@__crt_strtox@@YA_KAEAUbig_integer@1@AEBU21@@Z 0000000180046950     libucrt:cfout.obj
 0004:0000195c       $pdata$6$?divide@__crt_strtox@@YA_KAEAUbig_integer@1@AEBU21@@Z 000000018004695c     libucrt:cfout.obj
 0004:00001968       $pdata$7$?divide@__crt_strtox@@YA_KAEAUbig_integer@1@AEBU21@@Z 0000000180046968     libucrt:cfout.obj
 0004:00001974       $pdata$8$?divide@__crt_strtox@@YA_KAEAUbig_integer@1@AEBU21@@Z 0000000180046974     libucrt:cfout.obj
 0004:00001980       $pdata$__acrt_fltout       0000000180046980     libucrt:cfout.obj
 0004:0000198c       $pdata$memcpy_s            000000018004698c     libucrt:cfout.obj
 0004:00001998       $pdata$??$write_buffer_nolock@D@@YA_NDV__crt_stdio_stream@@@Z 0000000180046998     libucrt:_flsbuf.obj
 0004:000019a4       $pdata$??$write_buffer_nolock@_W@@YA_N_WV__crt_stdio_stream@@@Z 00000001800469a4     libucrt:_flsbuf.obj
 0004:000019b0       $pdata$__acrt_stdio_flush_and_write_narrow_nolock 00000001800469b0     libucrt:_flsbuf.obj
 0004:000019bc       $pdata$__acrt_stdio_flush_and_write_wide_nolock 00000001800469bc     libucrt:_flsbuf.obj
 0004:000019c8       $pdata$_fclose_nolock      00000001800469c8     libucrt:fclose.obj
 0004:000019d4       $pdata$fclose              00000001800469d4     libucrt:fclose.obj
 0004:000019e0       $pdata$??$common_lseek@_J@@YA_JH_JH@Z 00000001800469e0     libucrt:lseek.obj
 0004:000019ec       $pdata$??$common_lseek_nolock@_J@@YA_JH_JH@Z 00000001800469ec     libucrt:lseek.obj
 0004:000019f8       $pdata$_putwch_nolock      00000001800469f8     libucrt:putwch.obj
 0004:00001a04       $pdata$?_wcstombs_l_helper@@YA_KPEADPEB_W_KPEAU__crt_locale_pointers@@@Z 0000000180046a04     libucrt:wcstombs.obj
 0004:00001a10       $pdata$?__mbrtoc32_utf8@__crt_mbstring@@YA_KPEA_UPEBD_KPEAU_Mbstatet@@@Z 0000000180046a10     libucrt:mbrtoc32.obj
 0004:00001a1c       $pdata$fegetenv            0000000180046a1c     libucrt:fegetenv.obj
 0004:00001a28       $pdata$fesetenv            0000000180046a28     libucrt:fesetenv.obj
 0004:00001a34       $pdata$feholdexcept        0000000180046a34     libucrt:feholdexcept.obj
 0004:00001a4c       $pdata$__acrt_stdio_allocate_buffer_nolock 0000000180046a4c     libucrt:_getbuf.obj
 0004:00001a58       $pdata$??$?RV<lambda_751a882b2c74d4b022dec766aa51a29a>@@AEAV<lambda_628dfdc04ba53c8bfc02c9951375f3f5>@@V<lambda_f6c7be5f7998530c34de24c7437d6b54>@@@?$__crt_seh_guarded_call@H@@QEAAH$$QEAV<lambda_751a882b2c74d4b022dec766aa51a29a>@@AEAV<lambda_628dfdc04ba53c8bfc02c9951375f3f5>@@$$QEAV<lambda_f6c7be5f7998530c34de24c7437d6b54>@@@Z 0000000180046a58     libucrt:close.obj
 0004:00001a64       $pdata$_close              0000000180046a64     libucrt:close.obj
 0004:00001a70       $pdata$_close_nolock       0000000180046a70     libucrt:close.obj
 0004:00001a7c       $pdata$__dcrt_lowio_ensure_console_output_initialized 0000000180046a7c     libucrt:initcon.obj
 0004:00001a88       $pdata$__dcrt_terminate_console_output 0000000180046a88     libucrt:initcon.obj
 0004:00001a94       $pdata$__dcrt_write_console 0000000180046a94     libucrt:initcon.obj
 0004:00001aa0       $pdata$?__wcsrtombs_utf8@__crt_mbstring@@YA_KPEADPEAPEB_W_KPEAU_Mbstatet@@@Z 0000000180046aa0     libucrt:wcrtomb.obj
 0004:00001aac       $pdata$_clearfp            0000000180046aac     libucrt:ieee.obj
 0004:00001ab8       $pdata$_call_matherr       0000000180046ab8     libucrt:libm_error.obj
 0004:00001ac4       $pdata$_exception_enabled  0000000180046ac4     libucrt:libm_error.obj
 0004:00001ad0       $pdata$_handle_error       0000000180046ad0     libucrt:libm_error.obj
 0004:00001adc       $pdata$__acrt_initialize_fma3 0000000180046adc     libucrt:fma3_available.obj
 0004:00001ae8       $pdata$_log10_special      0000000180046ae8     libucrt:log_special.obj
 0004:00001af4       $pdata$_log_special_common 0000000180046af4     libucrt:log_special.obj
 0004:00001b00       $pdata$?__c16rtomb_utf8@__crt_mbstring@@YA_KPEAD_SPEAU_Mbstatet@@@Z 0000000180046b00     libucrt:c16rtomb.obj
 0004:00001b18       $pdata$_raise_exc          0000000180046b18     libucrt:fpexcept.obj
 0004:00001b24       $pdata$_raise_exc_ex       0000000180046b24     libucrt:fpexcept.obj
 0004:00001b30       $pdata$_set_errno_from_matherr 0000000180046b30     libucrt:fpexcept.obj
 0004:00001b3c       $pdata$_clrfp              0000000180046b3c     libucrt:fpctrl.obj
 0004:00001b48       $pdata$_ctrlfp             0000000180046b48     libucrt:fpctrl.obj
 0004:00001b54       $pdata$_set_statfp         0000000180046b54     libucrt:fpctrl.obj
 0004:00001b60       $pdata$_statfp             0000000180046b60     libucrt:fpctrl.obj
 0004:00001b6c       $pdata$?__c32rtomb_utf8@__crt_mbstring@@YA_KPEAD_UPEAU_Mbstatet@@@Z 0000000180046b6c     libucrt:c32rtomb.obj
 0004:00001b78       $pdata$?DloadAcquireSectionWriteAccess@@YAXXZ 0000000180046b78     DelayImp:delayhlp.obj
 0004:00001b84       $pdata$?DloadGetSRWLockFunctionPointers@@YAEXZ 0000000180046b84     DelayImp:delayhlp.obj
 0004:00001b90       $pdata$?DloadMakePermanentImageCommit@@YAXPEAX_K@Z 0000000180046b90     DelayImp:delayhlp.obj
 0004:00001b9c       $pdata$?DloadObtainSection@@YAPEAXPEAK0@Z 0000000180046b9c     DelayImp:delayhlp.obj
 0004:00001ba8       $pdata$?DloadProtectSection@@YAXKPEAK@Z 0000000180046ba8     DelayImp:delayhlp.obj
 0004:00001bb4       $pdata$?DloadReleaseSectionWriteAccess@@YAXXZ 0000000180046bb4     DelayImp:delayhlp.obj
 0004:00001bc0       $pdata$__delayLoadHelper2  0000000180046bc0     DelayImp:delayhlp.obj
 0004:00001bcc       $pdata$__GSHandlerCheck    0000000180046bcc     LIBCMT:_gshandler_.obj
 0004:00001bd8       $pdata$__GSHandlerCheckCommon 0000000180046bd8     LIBCMT:_gshandler_.obj
 0004:00001be4       $pdata$_IsNonwritableInCurrentImage 0000000180046be4     LIBCMT:pesect.obj
 0004:00001bfc       $pdata$__GSHandlerCheck_EH 0000000180046bfc     LIBCMT:gshandlereh.obj
 0004:00001c14       $pdata$strrchr             0000000180046c14     libvcruntime:strrchr.obj
 0004:00001c2c       $pdata$?dtor$0@?0??IsDzZip@sharp@@YA_NAEBV?$basic_string@DU?$char_traits@D@std@@V?$allocator@D@2@@std@@@Z@4HA 0000000180046c2c     common.obj
 0004:00001c2c       $pdata$?dtor$0@?0??IsTiff@sharp@@YA_NAEBV?$basic_string@DU?$char_traits@D@std@@V?$allocator@D@2@@std@@@Z@4HA 0000000180046c2c     common.obj
 0004:00001c2c       $pdata$?dtor$0@?0??IsJpeg@sharp@@YA_NAEBV?$basic_string@DU?$char_traits@D@std@@V?$allocator@D@2@@std@@@Z@4HA 0000000180046c2c     common.obj
 0004:00001c2c       $pdata$?dtor$0@?0??IsV@sharp@@YA_NAEBV?$basic_string@DU?$char_traits@D@std@@V?$allocator@D@2@@std@@@Z@4HA 0000000180046c2c     common.obj
 0004:00001c38       $pdata$?dtor$1@?0??IsJpeg@sharp@@YA_NAEBV?$basic_string@DU?$char_traits@D@std@@V?$allocator@D@2@@std@@@Z@4HA 0000000180046c38     common.obj
 0004:00001c38       $pdata$?dtor$1@?0??IsDzZip@sharp@@YA_NAEBV?$basic_string@DU?$char_traits@D@std@@V?$allocator@D@2@@std@@@Z@4HA 0000000180046c38     common.obj
 0004:00001c38       $pdata$?dtor$1@?0??IsV@sharp@@YA_NAEBV?$basic_string@DU?$char_traits@D@std@@V?$allocator@D@2@@std@@@Z@4HA 0000000180046c38     common.obj
 0004:00001c38       $pdata$?dtor$1@?0??IsTiff@sharp@@YA_NAEBV?$basic_string@DU?$char_traits@D@std@@V?$allocator@D@2@@std@@@Z@4HA 0000000180046c38     common.obj
 0004:00001c44       $pdata$?dtor$2@?0??IsV@sharp@@YA_NAEBV?$basic_string@DU?$char_traits@D@std@@V?$allocator@D@2@@std@@@Z@4HA 0000000180046c44     common.obj
 0004:00001c44       $pdata$?dtor$2@?0??IsDzZip@sharp@@YA_NAEBV?$basic_string@DU?$char_traits@D@std@@V?$allocator@D@2@@std@@@Z@4HA 0000000180046c44     common.obj
 0004:00001c44       $pdata$?dtor$2@?0??IsJpeg@sharp@@YA_NAEBV?$basic_string@DU?$char_traits@D@std@@V?$allocator@D@2@@std@@@Z@4HA 0000000180046c44     common.obj
 0004:00001c44       $pdata$?dtor$2@?0??IsTiff@sharp@@YA_NAEBV?$basic_string@DU?$char_traits@D@std@@V?$allocator@D@2@@std@@@Z@4HA 0000000180046c44     common.obj
 0004:00001c50       $pdata$?dtor$3@?0??IsDzZip@sharp@@YA_NAEBV?$basic_string@DU?$char_traits@D@std@@V?$allocator@D@2@@std@@@Z@4HA 0000000180046c50     common.obj
 0004:00001c50       $pdata$?dtor$3@?0??IsTiff@sharp@@YA_NAEBV?$basic_string@DU?$char_traits@D@std@@V?$allocator@D@2@@std@@@Z@4HA 0000000180046c50     common.obj
 0004:00001c50       $pdata$?dtor$3@?0??IsJpeg@sharp@@YA_NAEBV?$basic_string@DU?$char_traits@D@std@@V?$allocator@D@2@@std@@@Z@4HA 0000000180046c50     common.obj
 0004:00001c50       $pdata$?dtor$3@?0??IsV@sharp@@YA_NAEBV?$basic_string@DU?$char_traits@D@std@@V?$allocator@D@2@@std@@@Z@4HA 0000000180046c50     common.obj
 0004:00001c5c       $pdata$?dtor$0@?0??IsPng@sharp@@YA_NAEBV?$basic_string@DU?$char_traits@D@std@@V?$allocator@D@2@@std@@@Z@4HA 0000000180046c5c     common.obj
 0004:00001c5c       $pdata$?dtor$0@?0??IsDz@sharp@@YA_NAEBV?$basic_string@DU?$char_traits@D@std@@V?$allocator@D@2@@std@@@Z@4HA 0000000180046c5c     common.obj
 0004:00001c5c       $pdata$?dtor$0@?0??IsWebp@sharp@@YA_NAEBV?$basic_string@DU?$char_traits@D@std@@V?$allocator@D@2@@std@@@Z@4HA 0000000180046c5c     common.obj
 0004:00001c68       $pdata$?dtor$1@?0??IsDz@sharp@@YA_NAEBV?$basic_string@DU?$char_traits@D@std@@V?$allocator@D@2@@std@@@Z@4HA 0000000180046c68     common.obj
 0004:00001c68       $pdata$?dtor$1@?0??IsPng@sharp@@YA_NAEBV?$basic_string@DU?$char_traits@D@std@@V?$allocator@D@2@@std@@@Z@4HA 0000000180046c68     common.obj
 0004:00001c68       $pdata$?dtor$1@?0??IsWebp@sharp@@YA_NAEBV?$basic_string@DU?$char_traits@D@std@@V?$allocator@D@2@@std@@@Z@4HA 0000000180046c68     common.obj
 0004:00001c74       $pdata$?dtor$0@?0???$?HDU?$char_traits@D@std@@V?$allocator@D@1@@std@@YA?AV?$basic_string@DU?$char_traits@D@std@@V?$allocator@D@2@@0@QEBDAEBV10@@Z@4HA 0000000180046c74     pipeline.obj
 0004:00001c74       $pdata$?dtor$0@?0??ImageTypeId@sharp@@YA?AV?$basic_string@DU?$char_traits@D@std@@V?$allocator@D@2@@std@@W4ImageType@1@@Z@4HA 0000000180046c74     common.obj
 0004:00001c80       $pdata$?dtor$12@?0??DetermineImageType@sharp@@YA?AW4ImageType@1@PEBD@Z@4HA 0000000180046c80     common.obj
 0004:00001c8c       $pdata$?dtor$13@?0??DetermineImageType@sharp@@YA?AW4ImageType@1@PEBD@Z@4HA 0000000180046c8c     common.obj
 0004:00001c98       $pdata$?catch$24@?0??OpenInput@sharp@@YA?AV?$tuple@VVImage@vips@@W4ImageType@sharp@@@std@@PEAUInputDescriptor@1@W4VipsAccess@@@Z@4HA 0000000180046c98     common.obj
 0004:00001ca4       $pdata$?catch$25@?0??OpenInput@sharp@@YA?AV?$tuple@VVImage@vips@@W4ImageType@sharp@@@std@@PEAUInputDescriptor@1@W4VipsAccess@@@Z@4HA 0000000180046ca4     common.obj
 0004:00001cb0       $pdata$?dtor$2@?0???0AsyncWorker@Nan@@QEAA@PEAVCallback@1@PEBD@Z@4HA 0000000180046cb0     metadata.obj
 0004:00001cbc       $pdata$?catch$18@?0??Execute@MetadataWorker@@UEAAXXZ@4HA 0000000180046cbc     metadata.obj
 0004:00001cc8       $pdata$?dtor$4@?0??metadata@@YAXAEBV?$FunctionCallbackInfo@VValue@v8@@@Nan@@@Z@4HA 0000000180046cc8     metadata.obj
 0004:00001cd4       $pdata$?dtor$5@?0??metadata@@YAXAEBV?$FunctionCallbackInfo@VValue@v8@@@Nan@@@Z@4HA 0000000180046cd4     metadata.obj
 0004:00001ce0       $pdata$?catch$868@?0??Execute@PipelineWorker@@UEAAXXZ@4HA 0000000180046ce0     pipeline.obj
 0004:00001cec       $pdata$?dtor$130@?0??Execute@PipelineWorker@@UEAAXXZ@4HA 0000000180046cec     pipeline.obj
 0004:00001cf8       $pdata$?catch$869@?0??Execute@PipelineWorker@@UEAAXXZ@4HA 0000000180046cf8     pipeline.obj
 0004:00001d04       $pdata$?dtor$97@?0??pipeline@@YAXAEBV?$FunctionCallbackInfo@VValue@v8@@@Nan@@@Z@4HA 0000000180046d04     pipeline.obj
 0004:00001d10       $pdata$?dtor$99@?0??pipeline@@YAXAEBV?$FunctionCallbackInfo@VValue@v8@@@Nan@@@Z@4HA 0000000180046d10     pipeline.obj
 0004:00001d1c       $pdata$?dtor$100@?0??pipeline@@YAXAEBV?$FunctionCallbackInfo@VValue@v8@@@Nan@@@Z@4HA 0000000180046d1c     pipeline.obj
 0004:00001d28       $pdata$?dtor$0@?0???$?HDU?$char_traits@D@std@@V?$allocator@D@1@@std@@YA?AV?$basic_string@DU?$char_traits@D@std@@V?$allocator@D@2@@0@AEBV10@QEBD@Z@4HA 0000000180046d28     pipeline.obj
 0004:00001d34       $pdata$?dtor$8@?0??format@@YAXAEBV?$FunctionCallbackInfo@VValue@v8@@@Nan@@@Z@4HA 0000000180046d34     utilities.obj
 0004:00001d40       $pdata$?dtor$14@?0??format@@YAXAEBV?$FunctionCallbackInfo@VValue@v8@@@Nan@@@Z@4HA 0000000180046d40     utilities.obj
 0004:00001d4c       $pdata$?dtor$23@?0??format@@YAXAEBV?$FunctionCallbackInfo@VValue@v8@@@Nan@@@Z@4HA 0000000180046d4c     utilities.obj
 0004:00001d58       $pdata$?dtor$29@?0??format@@YAXAEBV?$FunctionCallbackInfo@VValue@v8@@@Nan@@@Z@4HA 0000000180046d58     utilities.obj
 0004:00001d64       $pdata$?catch$22@?0??_maxColourDistance@@YAXAEBV?$FunctionCallbackInfo@VValue@v8@@@Nan@@@Z@4HA 0000000180046d64     utilities.obj
 0004:00001d70       $pdata$?catch$21@?0??_maxColourDistance@@YAXAEBV?$FunctionCallbackInfo@VValue@v8@@@Nan@@@Z@4HA 0000000180046d70     utilities.obj
 0004:00001d7c       $pdata$?catch$20@?0??_maxColourDistance@@YAXAEBV?$FunctionCallbackInfo@VValue@v8@@@Nan@@@Z@4HA 0000000180046d7c     utilities.obj
 0004:00001d88       $pdata$?fin$0@?0??dllmain_crt_process_attach@@YAHQEAUHINSTANCE__@@QEAX@Z@4HA 0000000180046d88     LIBCMT:dll_dllmain.obj
 0004:00001d94       $pdata$?fin$0@?0??dllmain_crt_process_detach@@YAH_N@Z@4HA 0000000180046d94     LIBCMT:dll_dllmain.obj
 0004:00001da0       $pdata$?filt$0@?0??dllmain_dispatch@@YAHQEAUHINSTANCE__@@KQEAX@Z@4HA 0000000180046da0     LIBCMT:dll_dllmain.obj
 0004:00001dac       $pdata$__scrt_is_nonwritable_in_current_image$filt$0 0000000180046dac     LIBCMT:utility.obj
 0004:00001db8       $pdata$?filt$0@?0???$_CallSETranslator@V__FrameHandler3@@@@YAHPEAUEHExceptionRecord@@PEA_KPEAU_CONTEXT@@PEAU_xDISPATCHER_CONTEXT@@PEBU_s_FuncInfo@@K1@Z@4HA 0000000180046db8     libvcruntime:risctrnsctrl.obj
 0004:00001dc4       $pdata$__DestructExceptionObject$filt$0 0000000180046dc4     libvcruntime:ehhelpers.obj
 0004:00001dd0       $pdata$?filt$0@?0??CxxCallCatchBlock@__FrameHandler3@@SAPEAXPEAU_EXCEPTION_RECORD@@@Z@4HA 0000000180046dd0     libvcruntime:frame.obj
 0004:00001ddc       $pdata$?fin$1@?0??CxxCallCatchBlock@__FrameHandler3@@SAPEAXPEAU_EXCEPTION_RECORD@@@Z@4HA 0000000180046ddc     libvcruntime:frame.obj
 0004:00001de8       $pdata$?filt$0@?0??FrameUnwindToState@__FrameHandler3@@SAXPEA_KPEAU_xDISPATCHER_CONTEXT@@PEBU_s_FuncInfo@@H@Z@4HA 0000000180046de8     libvcruntime:frame.obj
 0004:00001df4       $pdata$?fin$1@?0??FrameUnwindToState@__FrameHandler3@@SAXPEA_KPEAU_xDISPATCHER_CONTEXT@@PEBU_s_FuncInfo@@H@Z@4HA 0000000180046df4     libvcruntime:frame.obj
 0004:00001e00       $pdata$_query_new_handler$fin$0 0000000180046e00     libucrt:new_handler.obj
 0004:00001e0c       $pdata$?fin$0@?0???$?RV<lambda_efdfa57d1f175319df784efa44bb7b81>@@AEAV<lambda_5f0a4c1567f8adc6734073e5d1e1b35c>@@V<lambda_2e8a7d3640ea6ccb4c2413664c2db6fd>@@@?$__crt_seh_guarded_call@X@@QEAAX$$QEAV<lambda_efdfa57d1f175319df784efa44bb7b81>@@AEAV<lambda_5f0a4c1567f8adc6734073e5d1e1b35c>@@$$QEAV<lambda_2e8a7d3640ea6ccb4c2413664c2db6fd>@@@Z@4HA 0000000180046e0c     libucrt:mbctype.obj
 0004:00001e0c       $pdata$?fin$0@?0???$?RV<lambda_450d765d439847d4c735a33c368b5fc0>@@AEAV<lambda_44731a7d0e6d81c3e6aa82d741081786>@@V<lambda_601a2a7da3b7a96e9554ac7215c4b07c>@@@?$__crt_seh_guarded_call@P6AXH@Z@@QEAAP6AXH@Z$$QEAV<lambda_450d765d439847d4c735a33c368b5fc0>@@AEAV<lambda_44731a7d0e6d81c3e6aa82d741081786>@@$$QEAV<lambda_601a2a7da3b7a96e9554ac7215c4b07c>@@@Z@4HA 0000000180046e0c     libucrt:signal.obj
 0004:00001e0c       $pdata$?fin$0@?0???$?RV<lambda_0ae27a3a962d80f24befdcbee591983d>@@AEAV<lambda_8d0ee55de4b1038c4002e0adecdf1839>@@V<lambda_dc504788e8f1664fe9b84e20bfb512f2>@@@?$__crt_seh_guarded_call@X@@QEAAX$$QEAV<lambda_0ae27a3a962d80f24befdcbee591983d>@@AEAV<lambda_8d0ee55de4b1038c4002e0adecdf1839>@@$$QEAV<lambda_dc504788e8f1664fe9b84e20bfb512f2>@@@Z@4HA 0000000180046e0c     libucrt:per_thread_data.obj
 0004:00001e0c       $pdata$?fin$0@?0???$?RV<lambda_d80eeec6fff315bfe5c115232f3240e3>@@AEAV<lambda_6e4b09c48022b2350581041d5f6b0c4c>@@V<lambda_2358e3775559c9db80273638284d5e45>@@@?$__crt_seh_guarded_call@X@@QEAAX$$QEAV<lambda_d80eeec6fff315bfe5c115232f3240e3>@@AEAV<lambda_6e4b09c48022b2350581041d5f6b0c4c>@@$$QEAV<lambda_2358e3775559c9db80273638284d5e45>@@@Z@4HA 0000000180046e0c     libucrt:exit.obj
 0004:00001e0c       $pdata$?fin$0@?0???$?RV<lambda_7777bce6b2f8c936911f934f8298dc43>@@AEAV<lambda_f03950bc5685219e0bcd2087efbe011e>@@V<lambda_3883c3dff614d5e0c5f61bb1ac94921c>@@@?$__crt_seh_guarded_call@H@@QEAAH$$QEAV<lambda_7777bce6b2f8c936911f934f8298dc43>@@AEAV<lambda_f03950bc5685219e0bcd2087efbe011e>@@$$QEAV<lambda_3883c3dff614d5e0c5f61bb1ac94921c>@@@Z@4HA 0000000180046e0c     libucrt:onexit.obj
 0004:00001e0c       $pdata$?fin$0@?0???$?RV<lambda_2d41944a1d46af3157314b8a01080d33>@@AEAV<lambda_8f455de75cd7d7f24b4096f044d8b9e6>@@V<lambda_aa500f224e6afead328df44964fe2772>@@@?$__crt_seh_guarded_call@X@@QEAAX$$QEAV<lambda_2d41944a1d46af3157314b8a01080d33>@@AEAV<lambda_8f455de75cd7d7f24b4096f044d8b9e6>@@$$QEAV<lambda_aa500f224e6afead328df44964fe2772>@@@Z@4HA 0000000180046e0c     libucrt:per_thread_data.obj
 0004:00001e0c       $pdata$?fin$0@?0???$?RV<lambda_f2e299630e499de9f9a165e60fcd3db5>@@AEAV<lambda_2ae9d31cdba2644fcbeaf08da7c24588>@@V<lambda_40d01ff24d0e7b3814fdbdcee8eab3c7>@@@?$__crt_seh_guarded_call@X@@QEAAX$$QEAV<lambda_f2e299630e499de9f9a165e60fcd3db5>@@AEAV<lambda_2ae9d31cdba2644fcbeaf08da7c24588>@@$$QEAV<lambda_40d01ff24d0e7b3814fdbdcee8eab3c7>@@@Z@4HA 0000000180046e0c     libucrt:per_thread_data.obj
 0004:00001e0c       $pdata$?fin$0@?0???$?RV<lambda_aa87e3671a710a21b5dc78c0bdf72e11>@@AEAV<lambda_92619d2358a28f41a33ba319515a20b9>@@V<lambda_6992ecaafeb10aed2b74cb1fae11a551>@@@?$__crt_seh_guarded_call@X@@QEAAX$$QEAV<lambda_aa87e3671a710a21b5dc78c0bdf72e11>@@AEAV<lambda_92619d2358a28f41a33ba319515a20b9>@@$$QEAV<lambda_6992ecaafeb10aed2b74cb1fae11a551>@@@Z@4HA 0000000180046e0c     libucrt:per_thread_data.obj
 0004:00001e18       $pdata$?filt$0@?0???R<lambda_6e4b09c48022b2350581041d5f6b0c4c>@@QEBA@XZ@4HA 0000000180046e18     libucrt:exit.obj
 0004:00001e24       $pdata$?fin$0@?0???$?RV<lambda_c376a267cfb53b6959b3b692ec76b120>@@AEAV<lambda_9a32fed5bf61b6b509b2d3f6003082a1>@@V<lambda_572fbb9fa0ab338edf41edfd4b5fcc8d>@@@?$__crt_seh_guarded_call@H@@QEAAH$$QEAV<lambda_c376a267cfb53b6959b3b692ec76b120>@@AEAV<lambda_9a32fed5bf61b6b509b2d3f6003082a1>@@$$QEAV<lambda_572fbb9fa0ab338edf41edfd4b5fcc8d>@@@Z@4HA 0000000180046e24     libucrt:fflush.obj
 0004:00001e24       $pdata$?fin$0@?0???$?RV<lambda_842d9ff0dc9ef11c61343bbaebe7f885>@@AEAV<lambda_c5860995281e5c4ce005b3de8f5874ee>@@V<lambda_d90129c13df834fdcbf8d2b88dafcf2d>@@@?$__crt_seh_guarded_call@X@@QEAAX$$QEAV<lambda_842d9ff0dc9ef11c61343bbaebe7f885>@@AEAV<lambda_c5860995281e5c4ce005b3de8f5874ee>@@$$QEAV<lambda_d90129c13df834fdcbf8d2b88dafcf2d>@@@Z@4HA 0000000180046e24     libucrt:fflush.obj
 0004:00001e24       $pdata$?fin$0@?0???$?RV<lambda_84ec643ea9557e2f7dc01bb0e9624395>@@AEAV<lambda_ca71763b3c0644891230e4f79ea54fa6>@@V<lambda_439a761618c59b0600e24586724d733b>@@@?$__crt_seh_guarded_call@H@@QEAAH$$QEAV<lambda_84ec643ea9557e2f7dc01bb0e9624395>@@AEAV<lambda_ca71763b3c0644891230e4f79ea54fa6>@@$$QEAV<lambda_439a761618c59b0600e24586724d733b>@@@Z@4HA 0000000180046e24     libucrt:setvbuf.obj
 0004:00001e24       $pdata$?fin$0@?0???$?RV<lambda_0d412022a4b28cc8a401ea49574e8ae6>@@AEAV<lambda_a775ed57af18ba8e4d5dc780aa9068fe>@@V<lambda_975a71a6baa488a08f4e15f6b0339b9e>@@@?$__crt_seh_guarded_call@H@@QEAAH$$QEAV<lambda_0d412022a4b28cc8a401ea49574e8ae6>@@AEAV<lambda_a775ed57af18ba8e4d5dc780aa9068fe>@@$$QEAV<lambda_975a71a6baa488a08f4e15f6b0339b9e>@@@Z@4HA 0000000180046e24     libucrt:output.obj
 0004:00001e30       $pdata$?fin$0@?0???$?RV<lambda_410d79af7f07d98d83a3f525b3859a53>@@AEAV<lambda_3e16ef9562a7dcce91392c22ab16ea36>@@V<lambda_38119f0e861e05405d8a144b9b982f0a>@@@?$__crt_seh_guarded_call@X@@QEAAX$$QEAV<lambda_410d79af7f07d98d83a3f525b3859a53>@@AEAV<lambda_3e16ef9562a7dcce91392c22ab16ea36>@@$$QEAV<lambda_38119f0e861e05405d8a144b9b982f0a>@@@Z@4HA 0000000180046e30     libucrt:wsetlocale.obj
 0004:00001e3c       $pdata$?fin$0@?0???$?RV<lambda_886d6c58226a84441f68b9f2b8217b83>@@AEAV<lambda_ab61a845afdef5b7c387490eaf3616ee>@@V<lambda_f7f22ab5edc0698d5f6905b0d3f44752>@@@?$__crt_seh_guarded_call@X@@QEAAX$$QEAV<lambda_886d6c58226a84441f68b9f2b8217b83>@@AEAV<lambda_ab61a845afdef5b7c387490eaf3616ee>@@$$QEAV<lambda_f7f22ab5edc0698d5f6905b0d3f44752>@@@Z@4HA 0000000180046e3c     libucrt:fflush.obj
 0004:00001e48       $pdata$raise$fin$0         0000000180046e48     libucrt:signal.obj
 0004:00001e54       $pdata$?fin$0@?0??update_thread_multibyte_data_internal@@YAPEAU__crt_multibyte_data@@QEAU__acrt_ptd@@QEAPEAU1@@Z@4HA 0000000180046e54     libucrt:mbctype.obj
 0004:00001e60       $pdata$__acrt_lowio_ensure_fh_exists$fin$0 0000000180046e60     libucrt:osfinfo.obj
 0004:00001e60       $pdata$__acrt_initialize_lowio$fin$0 0000000180046e60     libucrt:ioinit.obj
 0004:00001e6c       $pdata$__acrt_update_thread_locale_data$fin$0 0000000180046e6c     libucrt:locale_refcounting.obj
 0004:00001e78       $pdata$_fcloseall$fin$0    0000000180046e78     libucrt:closeall.obj
 0004:00001e84       $pdata$?fin$0@?0???$?RV<lambda_751a882b2c74d4b022dec766aa51a29a>@@AEAV<lambda_628dfdc04ba53c8bfc02c9951375f3f5>@@V<lambda_f6c7be5f7998530c34de24c7437d6b54>@@@?$__crt_seh_guarded_call@H@@QEAAH$$QEAV<lambda_751a882b2c74d4b022dec766aa51a29a>@@AEAV<lambda_628dfdc04ba53c8bfc02c9951375f3f5>@@$$QEAV<lambda_f6c7be5f7998530c34de24c7437d6b54>@@@Z@4HA 0000000180046e84     libucrt:close.obj
 0004:00001e84       $pdata$?fin$0@?0???$?RV<lambda_a37b2b86f63e897a80ea819b0eb08c01>@@AEAV<lambda_38ce7e780aa69e748d6df282ebc68efe>@@V<lambda_99fb1378e971ab6e7edea83e3a7a83a2>@@@?$__crt_seh_guarded_call@H@@QEAAH$$QEAV<lambda_a37b2b86f63e897a80ea819b0eb08c01>@@AEAV<lambda_38ce7e780aa69e748d6df282ebc68efe>@@$$QEAV<lambda_99fb1378e971ab6e7edea83e3a7a83a2>@@@Z@4HA 0000000180046e84     libucrt:commit.obj
 0004:00001e90       $pdata$_write$fin$0        0000000180046e90     libucrt:write.obj
 0004:00001e90       $pdata$?fin$0@?0???$common_lseek@_J@@YA_JH_JH@Z@4HA 0000000180046e90     libucrt:lseek.obj
 0004:00001e9c       $pdata$fclose$fin$0        0000000180046e9c     libucrt:fclose.obj
 0004:00001ea8       $pdata$_ctrlfp$filt$0      0000000180046ea8     libucrt:fpctrl.obj
 0004:00001eb4       $pdata$_IsNonwritableInCurrentImage$filt$0 0000000180046eb4     LIBCMT:pesect.obj
 0005:00000060       $R000000                   0000000180047060     * linker generated manifest res *

 Exports

  ordinal    name

        1    _register_sharp_
